ARM GAS  C:\Users\Lenovo\AppData\Local\Temp\ccy2Jckb.s 			page 1


   1              		.cpu cortex-m4
   2              		.arch armv7e-m
   3              		.fpu softvfp
   4              		.eabi_attribute 20, 1
   5              		.eabi_attribute 21, 1
   6              		.eabi_attribute 23, 3
   7              		.eabi_attribute 24, 1
   8              		.eabi_attribute 25, 1
   9              		.eabi_attribute 26, 1
  10              		.eabi_attribute 30, 6
  11              		.eabi_attribute 34, 1
  12              		.eabi_attribute 18, 4
  13              		.file	"syscalls.c"
  14              		.text
  15              	.Ltext0:
  16              		.cfi_sections	.debug_frame
  17              		.section	.text.ITM_SendChar,"ax",%progbits
  18              		.align	1
  19              		.global	ITM_SendChar
  20              		.syntax unified
  21              		.thumb
  22              		.thumb_func
  24              	ITM_SendChar:
  25              	.LFB25:
  26              		.file 1 "Core/Src/syscalls.c"
   1:Core/Src/syscalls.c **** /**
   2:Core/Src/syscalls.c ****  ******************************************************************************
   3:Core/Src/syscalls.c ****  * @file      syscalls.c
   4:Core/Src/syscalls.c ****  * @author    Auto-generated by STM32CubeMX
   5:Core/Src/syscalls.c ****  * @brief     Minimal System calls file
   6:Core/Src/syscalls.c ****  *
   7:Core/Src/syscalls.c ****  *            For more information about which c-functions
   8:Core/Src/syscalls.c ****  *            need which of these lowlevel functions
   9:Core/Src/syscalls.c ****  *            please consult the Newlib libc-manual
  10:Core/Src/syscalls.c ****  ******************************************************************************
  11:Core/Src/syscalls.c ****  * @attention
  12:Core/Src/syscalls.c ****  *
  13:Core/Src/syscalls.c ****  * Copyright (c) 2020-2024 STMicroelectronics.
  14:Core/Src/syscalls.c ****  * All rights reserved.
  15:Core/Src/syscalls.c ****  *
  16:Core/Src/syscalls.c ****  * This software is licensed under terms that can be found in the LICENSE file
  17:Core/Src/syscalls.c ****  * in the root directory of this software component.
  18:Core/Src/syscalls.c ****  * If no LICENSE file comes with this software, it is provided AS-IS.
  19:Core/Src/syscalls.c ****  *
  20:Core/Src/syscalls.c ****  ******************************************************************************
  21:Core/Src/syscalls.c ****  */
  22:Core/Src/syscalls.c **** 
  23:Core/Src/syscalls.c **** /* Includes */
  24:Core/Src/syscalls.c **** #include <sys/stat.h>
  25:Core/Src/syscalls.c **** #include <stdlib.h>
  26:Core/Src/syscalls.c **** #include <errno.h>
  27:Core/Src/syscalls.c **** #include <stdio.h>
  28:Core/Src/syscalls.c **** #include <signal.h>
  29:Core/Src/syscalls.c **** #include <time.h>
  30:Core/Src/syscalls.c **** #include <sys/time.h>
  31:Core/Src/syscalls.c **** #include <sys/times.h>
  32:Core/Src/syscalls.c **** 
ARM GAS  C:\Users\Lenovo\AppData\Local\Temp\ccy2Jckb.s 			page 2


  33:Core/Src/syscalls.c **** ///////////////////////////////////////////////////////////////////////////////////////////////////
  34:Core/Src/syscalls.c **** //					Implementation of printf like feature using ARM Cortex M3/M4/ ITM functionality
  35:Core/Src/syscalls.c **** //					This function will not work for ARM Cortex M0/M0+
  36:Core/Src/syscalls.c **** //					If you are using Cortex M0, then you can use semihosting feature of openOCD
  37:Core/Src/syscalls.c **** ///////////////////////////////////////////////////////////////////////////////////////////////////
  38:Core/Src/syscalls.c **** 
  39:Core/Src/syscalls.c **** // Debug Exception and Monitor Control Register base address
  40:Core/Src/syscalls.c **** #define DEMCR *((volatile uint32_t *)0xE000EDFCU)
  41:Core/Src/syscalls.c **** 
  42:Core/Src/syscalls.c **** /* ITM register addresses */
  43:Core/Src/syscalls.c **** #define ITM_STIMULUS_PORT0 *((volatile uint32_t *)0xE0000000)
  44:Core/Src/syscalls.c **** #define ITM_TRACE_EN *((volatile uint32_t *)0xE0000E00)
  45:Core/Src/syscalls.c **** 
  46:Core/Src/syscalls.c **** void ITM_SendChar(uint8_t ch)
  47:Core/Src/syscalls.c **** {
  27              		.loc 1 47 1
  28              		.cfi_startproc
  29              		@ args = 0, pretend = 0, frame = 8
  30              		@ frame_needed = 1, uses_anonymous_args = 0
  31              		@ link register save eliminated.
  32 0000 80B4     		push	{r7}
  33              	.LCFI0:
  34              		.cfi_def_cfa_offset 4
  35              		.cfi_offset 7, -4
  36 0002 83B0     		sub	sp, sp, #12
  37              	.LCFI1:
  38              		.cfi_def_cfa_offset 16
  39 0004 00AF     		add	r7, sp, #0
  40              	.LCFI2:
  41              		.cfi_def_cfa_register 7
  42 0006 0346     		mov	r3, r0
  43 0008 FB71     		strb	r3, [r7, #7]
  48:Core/Src/syscalls.c **** 
  49:Core/Src/syscalls.c ****   // Enable TRCENA
  50:Core/Src/syscalls.c ****   DEMCR |= (1 << 24);
  44              		.loc 1 50 9
  45 000a 0E4B     		ldr	r3, .L3
  46 000c 1B68     		ldr	r3, [r3]
  47 000e 0D4A     		ldr	r2, .L3
  48 0010 43F08073 		orr	r3, r3, #16777216
  49 0014 1360     		str	r3, [r2]
  51:Core/Src/syscalls.c **** 
  52:Core/Src/syscalls.c ****   // enable stimulus port 0
  53:Core/Src/syscalls.c ****   ITM_TRACE_EN |= (1 << 0);
  50              		.loc 1 53 16
  51 0016 0C4B     		ldr	r3, .L3+4
  52 0018 1B68     		ldr	r3, [r3]
  53 001a 0B4A     		ldr	r2, .L3+4
  54 001c 43F00103 		orr	r3, r3, #1
  55 0020 1360     		str	r3, [r2]
  54:Core/Src/syscalls.c **** 
  55:Core/Src/syscalls.c ****   // read FIFO status in bit [0]:
  56:Core/Src/syscalls.c ****   while (!(ITM_STIMULUS_PORT0 & 1))
  56              		.loc 1 56 9
  57 0022 00BF     		nop
  58              	.L2:
  59              		.loc 1 56 12 discriminator 1
ARM GAS  C:\Users\Lenovo\AppData\Local\Temp\ccy2Jckb.s 			page 3


  60 0024 4FF06043 		mov	r3, #-536870912
  61 0028 1B68     		ldr	r3, [r3]
  62              		.loc 1 56 31 discriminator 1
  63 002a 03F00103 		and	r3, r3, #1
  64              		.loc 1 56 9 discriminator 1
  65 002e 002B     		cmp	r3, #0
  66 0030 F8D0     		beq	.L2
  57:Core/Src/syscalls.c ****     ;
  58:Core/Src/syscalls.c **** 
  59:Core/Src/syscalls.c ****   // Write to ITM stimulus port0
  60:Core/Src/syscalls.c ****   ITM_STIMULUS_PORT0 = ch;
  67              		.loc 1 60 3
  68 0032 4FF06042 		mov	r2, #-536870912
  69              		.loc 1 60 22
  70 0036 FB79     		ldrb	r3, [r7, #7]	@ zero_extendqisi2
  71 0038 1360     		str	r3, [r2]
  61:Core/Src/syscalls.c **** }
  72              		.loc 1 61 1
  73 003a 00BF     		nop
  74 003c 0C37     		adds	r7, r7, #12
  75              	.LCFI3:
  76              		.cfi_def_cfa_offset 4
  77 003e BD46     		mov	sp, r7
  78              	.LCFI4:
  79              		.cfi_def_cfa_register 13
  80              		@ sp needed
  81 0040 80BC     		pop	{r7}
  82              	.LCFI5:
  83              		.cfi_restore 7
  84              		.cfi_def_cfa_offset 0
  85 0042 7047     		bx	lr
  86              	.L4:
  87              		.align	2
  88              	.L3:
  89 0044 FCED00E0 		.word	-536809988
  90 0048 000E00E0 		.word	-536867328
  91              		.cfi_endproc
  92              	.LFE25:
  94              		.global	__env
  95              		.section	.bss.__env,"aw",%nobits
  96              		.align	2
  99              	__env:
 100 0000 00000000 		.space	4
 101              		.global	environ
 102              		.section	.data.environ,"aw"
 103              		.align	2
 106              	environ:
 107 0000 00000000 		.word	__env
 108              		.section	.text.initialise_monitor_handles,"ax",%progbits
 109              		.align	1
 110              		.global	initialise_monitor_handles
 111              		.syntax unified
 112              		.thumb
 113              		.thumb_func
 115              	initialise_monitor_handles:
 116              	.LFB26:
  62:Core/Src/syscalls.c **** 
ARM GAS  C:\Users\Lenovo\AppData\Local\Temp\ccy2Jckb.s 			page 4


  63:Core/Src/syscalls.c **** /* Variables */
  64:Core/Src/syscalls.c **** extern int __io_putchar(int ch) __attribute__((weak));
  65:Core/Src/syscalls.c **** extern int __io_getchar(void) __attribute__((weak));
  66:Core/Src/syscalls.c **** 
  67:Core/Src/syscalls.c **** char *__env[1] = {0};
  68:Core/Src/syscalls.c **** char **environ = __env;
  69:Core/Src/syscalls.c **** 
  70:Core/Src/syscalls.c **** /* Functions */
  71:Core/Src/syscalls.c **** void initialise_monitor_handles()
  72:Core/Src/syscalls.c **** {
 117              		.loc 1 72 1
 118              		.cfi_startproc
 119              		@ args = 0, pretend = 0, frame = 0
 120              		@ frame_needed = 1, uses_anonymous_args = 0
 121              		@ link register save eliminated.
 122 0000 80B4     		push	{r7}
 123              	.LCFI6:
 124              		.cfi_def_cfa_offset 4
 125              		.cfi_offset 7, -4
 126 0002 00AF     		add	r7, sp, #0
 127              	.LCFI7:
 128              		.cfi_def_cfa_register 7
  73:Core/Src/syscalls.c **** }
 129              		.loc 1 73 1
 130 0004 00BF     		nop
 131 0006 BD46     		mov	sp, r7
 132              	.LCFI8:
 133              		.cfi_def_cfa_register 13
 134              		@ sp needed
 135 0008 80BC     		pop	{r7}
 136              	.LCFI9:
 137              		.cfi_restore 7
 138              		.cfi_def_cfa_offset 0
 139 000a 7047     		bx	lr
 140              		.cfi_endproc
 141              	.LFE26:
 143              		.section	.text._getpid,"ax",%progbits
 144              		.align	1
 145              		.global	_getpid
 146              		.syntax unified
 147              		.thumb
 148              		.thumb_func
 150              	_getpid:
 151              	.LFB27:
  74:Core/Src/syscalls.c **** 
  75:Core/Src/syscalls.c **** int _getpid(void)
  76:Core/Src/syscalls.c **** {
 152              		.loc 1 76 1
 153              		.cfi_startproc
 154              		@ args = 0, pretend = 0, frame = 0
 155              		@ frame_needed = 1, uses_anonymous_args = 0
 156              		@ link register save eliminated.
 157 0000 80B4     		push	{r7}
 158              	.LCFI10:
 159              		.cfi_def_cfa_offset 4
 160              		.cfi_offset 7, -4
 161 0002 00AF     		add	r7, sp, #0
ARM GAS  C:\Users\Lenovo\AppData\Local\Temp\ccy2Jckb.s 			page 5


 162              	.LCFI11:
 163              		.cfi_def_cfa_register 7
  77:Core/Src/syscalls.c ****   return 1;
 164              		.loc 1 77 10
 165 0004 0123     		movs	r3, #1
  78:Core/Src/syscalls.c **** }
 166              		.loc 1 78 1
 167 0006 1846     		mov	r0, r3
 168 0008 BD46     		mov	sp, r7
 169              	.LCFI12:
 170              		.cfi_def_cfa_register 13
 171              		@ sp needed
 172 000a 80BC     		pop	{r7}
 173              	.LCFI13:
 174              		.cfi_restore 7
 175              		.cfi_def_cfa_offset 0
 176 000c 7047     		bx	lr
 177              		.cfi_endproc
 178              	.LFE27:
 180              		.section	.text._kill,"ax",%progbits
 181              		.align	1
 182              		.global	_kill
 183              		.syntax unified
 184              		.thumb
 185              		.thumb_func
 187              	_kill:
 188              	.LFB28:
  79:Core/Src/syscalls.c **** 
  80:Core/Src/syscalls.c **** int _kill(int pid, int sig)
  81:Core/Src/syscalls.c **** {
 189              		.loc 1 81 1
 190              		.cfi_startproc
 191              		@ args = 0, pretend = 0, frame = 8
 192              		@ frame_needed = 1, uses_anonymous_args = 0
 193 0000 80B5     		push	{r7, lr}
 194              	.LCFI14:
 195              		.cfi_def_cfa_offset 8
 196              		.cfi_offset 7, -8
 197              		.cfi_offset 14, -4
 198 0002 82B0     		sub	sp, sp, #8
 199              	.LCFI15:
 200              		.cfi_def_cfa_offset 16
 201 0004 00AF     		add	r7, sp, #0
 202              	.LCFI16:
 203              		.cfi_def_cfa_register 7
 204 0006 7860     		str	r0, [r7, #4]
 205 0008 3960     		str	r1, [r7]
  82:Core/Src/syscalls.c ****   (void)pid;
  83:Core/Src/syscalls.c ****   (void)sig;
  84:Core/Src/syscalls.c ****   errno = EINVAL;
 206              		.loc 1 84 3
 207 000a FFF7FEFF 		bl	__errno
 208 000e 0346     		mov	r3, r0
 209              		.loc 1 84 9
 210 0010 1622     		movs	r2, #22
 211 0012 1A60     		str	r2, [r3]
  85:Core/Src/syscalls.c ****   return -1;
ARM GAS  C:\Users\Lenovo\AppData\Local\Temp\ccy2Jckb.s 			page 6


 212              		.loc 1 85 10
 213 0014 4FF0FF33 		mov	r3, #-1
  86:Core/Src/syscalls.c **** }
 214              		.loc 1 86 1
 215 0018 1846     		mov	r0, r3
 216 001a 0837     		adds	r7, r7, #8
 217              	.LCFI17:
 218              		.cfi_def_cfa_offset 8
 219 001c BD46     		mov	sp, r7
 220              	.LCFI18:
 221              		.cfi_def_cfa_register 13
 222              		@ sp needed
 223 001e 80BD     		pop	{r7, pc}
 224              		.cfi_endproc
 225              	.LFE28:
 227              		.section	.text._exit,"ax",%progbits
 228              		.align	1
 229              		.global	_exit
 230              		.syntax unified
 231              		.thumb
 232              		.thumb_func
 234              	_exit:
 235              	.LFB29:
  87:Core/Src/syscalls.c **** 
  88:Core/Src/syscalls.c **** void _exit(int status)
  89:Core/Src/syscalls.c **** {
 236              		.loc 1 89 1
 237              		.cfi_startproc
 238              		@ args = 0, pretend = 0, frame = 8
 239              		@ frame_needed = 1, uses_anonymous_args = 0
 240 0000 80B5     		push	{r7, lr}
 241              	.LCFI19:
 242              		.cfi_def_cfa_offset 8
 243              		.cfi_offset 7, -8
 244              		.cfi_offset 14, -4
 245 0002 82B0     		sub	sp, sp, #8
 246              	.LCFI20:
 247              		.cfi_def_cfa_offset 16
 248 0004 00AF     		add	r7, sp, #0
 249              	.LCFI21:
 250              		.cfi_def_cfa_register 7
 251 0006 7860     		str	r0, [r7, #4]
  90:Core/Src/syscalls.c ****   _kill(status, -1);
 252              		.loc 1 90 3
 253 0008 4FF0FF31 		mov	r1, #-1
 254 000c 7868     		ldr	r0, [r7, #4]
 255 000e FFF7FEFF 		bl	_kill
 256              	.L11:
  91:Core/Src/syscalls.c ****   while (1)
 257              		.loc 1 91 9 discriminator 1
 258 0012 FEE7     		b	.L11
 259              		.cfi_endproc
 260              	.LFE29:
 262              		.section	.text._read,"ax",%progbits
 263              		.align	1
 264              		.weak	_read
 265              		.syntax unified
ARM GAS  C:\Users\Lenovo\AppData\Local\Temp\ccy2Jckb.s 			page 7


 266              		.thumb
 267              		.thumb_func
 269              	_read:
 270              	.LFB30:
  92:Core/Src/syscalls.c ****   {
  93:Core/Src/syscalls.c ****   } /* Make sure we hang here */
  94:Core/Src/syscalls.c **** }
  95:Core/Src/syscalls.c **** 
  96:Core/Src/syscalls.c **** __attribute__((weak)) int _read(int file, char *ptr, int len)
  97:Core/Src/syscalls.c **** {
 271              		.loc 1 97 1
 272              		.cfi_startproc
 273              		@ args = 0, pretend = 0, frame = 24
 274              		@ frame_needed = 1, uses_anonymous_args = 0
 275 0000 80B5     		push	{r7, lr}
 276              	.LCFI22:
 277              		.cfi_def_cfa_offset 8
 278              		.cfi_offset 7, -8
 279              		.cfi_offset 14, -4
 280 0002 86B0     		sub	sp, sp, #24
 281              	.LCFI23:
 282              		.cfi_def_cfa_offset 32
 283 0004 00AF     		add	r7, sp, #0
 284              	.LCFI24:
 285              		.cfi_def_cfa_register 7
 286 0006 F860     		str	r0, [r7, #12]
 287 0008 B960     		str	r1, [r7, #8]
 288 000a 7A60     		str	r2, [r7, #4]
  98:Core/Src/syscalls.c ****   (void)file;
  99:Core/Src/syscalls.c ****   int DataIdx;
 100:Core/Src/syscalls.c **** 
 101:Core/Src/syscalls.c ****   for (DataIdx = 0; DataIdx < len; DataIdx++)
 289              		.loc 1 101 16
 290 000c 0023     		movs	r3, #0
 291 000e 7B61     		str	r3, [r7, #20]
 292              		.loc 1 101 3
 293 0010 0AE0     		b	.L13
 294              	.L14:
 102:Core/Src/syscalls.c ****   {
 103:Core/Src/syscalls.c ****     *ptr++ = __io_getchar();
 295              		.loc 1 103 14 discriminator 3
 296 0012 FFF7FEFF 		bl	__io_getchar
 297 0016 0146     		mov	r1, r0
 298              		.loc 1 103 9 discriminator 3
 299 0018 BB68     		ldr	r3, [r7, #8]
 300 001a 5A1C     		adds	r2, r3, #1
 301 001c BA60     		str	r2, [r7, #8]
 302              		.loc 1 103 12 discriminator 3
 303 001e CAB2     		uxtb	r2, r1
 304 0020 1A70     		strb	r2, [r3]
 101:Core/Src/syscalls.c ****   {
 305              		.loc 1 101 43 discriminator 3
 306 0022 7B69     		ldr	r3, [r7, #20]
 307 0024 0133     		adds	r3, r3, #1
 308 0026 7B61     		str	r3, [r7, #20]
 309              	.L13:
 101:Core/Src/syscalls.c ****   {
ARM GAS  C:\Users\Lenovo\AppData\Local\Temp\ccy2Jckb.s 			page 8


 310              		.loc 1 101 3 discriminator 1
 311 0028 7A69     		ldr	r2, [r7, #20]
 312 002a 7B68     		ldr	r3, [r7, #4]
 313 002c 9A42     		cmp	r2, r3
 314 002e F0DB     		blt	.L14
 104:Core/Src/syscalls.c ****   }
 105:Core/Src/syscalls.c **** 
 106:Core/Src/syscalls.c ****   return len;
 315              		.loc 1 106 10
 316 0030 7B68     		ldr	r3, [r7, #4]
 107:Core/Src/syscalls.c **** }
 317              		.loc 1 107 1
 318 0032 1846     		mov	r0, r3
 319 0034 1837     		adds	r7, r7, #24
 320              	.LCFI25:
 321              		.cfi_def_cfa_offset 8
 322 0036 BD46     		mov	sp, r7
 323              	.LCFI26:
 324              		.cfi_def_cfa_register 13
 325              		@ sp needed
 326 0038 80BD     		pop	{r7, pc}
 327              		.cfi_endproc
 328              	.LFE30:
 330              		.section	.text._write,"ax",%progbits
 331              		.align	1
 332              		.weak	_write
 333              		.syntax unified
 334              		.thumb
 335              		.thumb_func
 337              	_write:
 338              	.LFB31:
 108:Core/Src/syscalls.c **** 
 109:Core/Src/syscalls.c **** __attribute__((weak)) int _write(int file, char *ptr, int len)
 110:Core/Src/syscalls.c **** {
 339              		.loc 1 110 1
 340              		.cfi_startproc
 341              		@ args = 0, pretend = 0, frame = 24
 342              		@ frame_needed = 1, uses_anonymous_args = 0
 343 0000 80B5     		push	{r7, lr}
 344              	.LCFI27:
 345              		.cfi_def_cfa_offset 8
 346              		.cfi_offset 7, -8
 347              		.cfi_offset 14, -4
 348 0002 86B0     		sub	sp, sp, #24
 349              	.LCFI28:
 350              		.cfi_def_cfa_offset 32
 351 0004 00AF     		add	r7, sp, #0
 352              	.LCFI29:
 353              		.cfi_def_cfa_register 7
 354 0006 F860     		str	r0, [r7, #12]
 355 0008 B960     		str	r1, [r7, #8]
 356 000a 7A60     		str	r2, [r7, #4]
 111:Core/Src/syscalls.c ****   (void)file;
 112:Core/Src/syscalls.c ****   int DataIdx;
 113:Core/Src/syscalls.c **** 
 114:Core/Src/syscalls.c ****   for (DataIdx = 0; DataIdx < len; DataIdx++)
 357              		.loc 1 114 16
ARM GAS  C:\Users\Lenovo\AppData\Local\Temp\ccy2Jckb.s 			page 9


 358 000c 0023     		movs	r3, #0
 359 000e 7B61     		str	r3, [r7, #20]
 360              		.loc 1 114 3
 361 0010 09E0     		b	.L17
 362              	.L18:
 115:Core/Src/syscalls.c ****   {
 116:Core/Src/syscalls.c ****     //__io_putchar(*ptr++);
 117:Core/Src/syscalls.c ****     ITM_SendChar(*ptr++);
 363              		.loc 1 117 22 discriminator 3
 364 0012 BB68     		ldr	r3, [r7, #8]
 365 0014 5A1C     		adds	r2, r3, #1
 366 0016 BA60     		str	r2, [r7, #8]
 367              		.loc 1 117 5 discriminator 3
 368 0018 1B78     		ldrb	r3, [r3]	@ zero_extendqisi2
 369 001a 1846     		mov	r0, r3
 370 001c FFF7FEFF 		bl	ITM_SendChar
 114:Core/Src/syscalls.c ****   {
 371              		.loc 1 114 43 discriminator 3
 372 0020 7B69     		ldr	r3, [r7, #20]
 373 0022 0133     		adds	r3, r3, #1
 374 0024 7B61     		str	r3, [r7, #20]
 375              	.L17:
 114:Core/Src/syscalls.c ****   {
 376              		.loc 1 114 3 discriminator 1
 377 0026 7A69     		ldr	r2, [r7, #20]
 378 0028 7B68     		ldr	r3, [r7, #4]
 379 002a 9A42     		cmp	r2, r3
 380 002c F1DB     		blt	.L18
 118:Core/Src/syscalls.c ****   }
 119:Core/Src/syscalls.c ****   return len;
 381              		.loc 1 119 10
 382 002e 7B68     		ldr	r3, [r7, #4]
 120:Core/Src/syscalls.c **** }
 383              		.loc 1 120 1
 384 0030 1846     		mov	r0, r3
 385 0032 1837     		adds	r7, r7, #24
 386              	.LCFI30:
 387              		.cfi_def_cfa_offset 8
 388 0034 BD46     		mov	sp, r7
 389              	.LCFI31:
 390              		.cfi_def_cfa_register 13
 391              		@ sp needed
 392 0036 80BD     		pop	{r7, pc}
 393              		.cfi_endproc
 394              	.LFE31:
 396              		.section	.text._close,"ax",%progbits
 397              		.align	1
 398              		.global	_close
 399              		.syntax unified
 400              		.thumb
 401              		.thumb_func
 403              	_close:
 404              	.LFB32:
 121:Core/Src/syscalls.c **** 
 122:Core/Src/syscalls.c **** int _close(int file)
 123:Core/Src/syscalls.c **** {
 405              		.loc 1 123 1
ARM GAS  C:\Users\Lenovo\AppData\Local\Temp\ccy2Jckb.s 			page 10


 406              		.cfi_startproc
 407              		@ args = 0, pretend = 0, frame = 8
 408              		@ frame_needed = 1, uses_anonymous_args = 0
 409              		@ link register save eliminated.
 410 0000 80B4     		push	{r7}
 411              	.LCFI32:
 412              		.cfi_def_cfa_offset 4
 413              		.cfi_offset 7, -4
 414 0002 83B0     		sub	sp, sp, #12
 415              	.LCFI33:
 416              		.cfi_def_cfa_offset 16
 417 0004 00AF     		add	r7, sp, #0
 418              	.LCFI34:
 419              		.cfi_def_cfa_register 7
 420 0006 7860     		str	r0, [r7, #4]
 124:Core/Src/syscalls.c ****   (void)file;
 125:Core/Src/syscalls.c ****   return -1;
 421              		.loc 1 125 10
 422 0008 4FF0FF33 		mov	r3, #-1
 126:Core/Src/syscalls.c **** }
 423              		.loc 1 126 1
 424 000c 1846     		mov	r0, r3
 425 000e 0C37     		adds	r7, r7, #12
 426              	.LCFI35:
 427              		.cfi_def_cfa_offset 4
 428 0010 BD46     		mov	sp, r7
 429              	.LCFI36:
 430              		.cfi_def_cfa_register 13
 431              		@ sp needed
 432 0012 80BC     		pop	{r7}
 433              	.LCFI37:
 434              		.cfi_restore 7
 435              		.cfi_def_cfa_offset 0
 436 0014 7047     		bx	lr
 437              		.cfi_endproc
 438              	.LFE32:
 440              		.section	.text._fstat,"ax",%progbits
 441              		.align	1
 442              		.global	_fstat
 443              		.syntax unified
 444              		.thumb
 445              		.thumb_func
 447              	_fstat:
 448              	.LFB33:
 127:Core/Src/syscalls.c **** 
 128:Core/Src/syscalls.c **** int _fstat(int file, struct stat *st)
 129:Core/Src/syscalls.c **** {
 449              		.loc 1 129 1
 450              		.cfi_startproc
 451              		@ args = 0, pretend = 0, frame = 8
 452              		@ frame_needed = 1, uses_anonymous_args = 0
 453              		@ link register save eliminated.
 454 0000 80B4     		push	{r7}
 455              	.LCFI38:
 456              		.cfi_def_cfa_offset 4
 457              		.cfi_offset 7, -4
 458 0002 83B0     		sub	sp, sp, #12
ARM GAS  C:\Users\Lenovo\AppData\Local\Temp\ccy2Jckb.s 			page 11


 459              	.LCFI39:
 460              		.cfi_def_cfa_offset 16
 461 0004 00AF     		add	r7, sp, #0
 462              	.LCFI40:
 463              		.cfi_def_cfa_register 7
 464 0006 7860     		str	r0, [r7, #4]
 465 0008 3960     		str	r1, [r7]
 130:Core/Src/syscalls.c ****   (void)file;
 131:Core/Src/syscalls.c ****   st->st_mode = S_IFCHR;
 466              		.loc 1 131 15
 467 000a 3B68     		ldr	r3, [r7]
 468 000c 4FF40052 		mov	r2, #8192
 469 0010 5A60     		str	r2, [r3, #4]
 132:Core/Src/syscalls.c ****   return 0;
 470              		.loc 1 132 10
 471 0012 0023     		movs	r3, #0
 133:Core/Src/syscalls.c **** }
 472              		.loc 1 133 1
 473 0014 1846     		mov	r0, r3
 474 0016 0C37     		adds	r7, r7, #12
 475              	.LCFI41:
 476              		.cfi_def_cfa_offset 4
 477 0018 BD46     		mov	sp, r7
 478              	.LCFI42:
 479              		.cfi_def_cfa_register 13
 480              		@ sp needed
 481 001a 80BC     		pop	{r7}
 482              	.LCFI43:
 483              		.cfi_restore 7
 484              		.cfi_def_cfa_offset 0
 485 001c 7047     		bx	lr
 486              		.cfi_endproc
 487              	.LFE33:
 489              		.section	.text._isatty,"ax",%progbits
 490              		.align	1
 491              		.global	_isatty
 492              		.syntax unified
 493              		.thumb
 494              		.thumb_func
 496              	_isatty:
 497              	.LFB34:
 134:Core/Src/syscalls.c **** 
 135:Core/Src/syscalls.c **** int _isatty(int file)
 136:Core/Src/syscalls.c **** {
 498              		.loc 1 136 1
 499              		.cfi_startproc
 500              		@ args = 0, pretend = 0, frame = 8
 501              		@ frame_needed = 1, uses_anonymous_args = 0
 502              		@ link register save eliminated.
 503 0000 80B4     		push	{r7}
 504              	.LCFI44:
 505              		.cfi_def_cfa_offset 4
 506              		.cfi_offset 7, -4
 507 0002 83B0     		sub	sp, sp, #12
 508              	.LCFI45:
 509              		.cfi_def_cfa_offset 16
 510 0004 00AF     		add	r7, sp, #0
ARM GAS  C:\Users\Lenovo\AppData\Local\Temp\ccy2Jckb.s 			page 12


 511              	.LCFI46:
 512              		.cfi_def_cfa_register 7
 513 0006 7860     		str	r0, [r7, #4]
 137:Core/Src/syscalls.c ****   (void)file;
 138:Core/Src/syscalls.c ****   return 1;
 514              		.loc 1 138 10
 515 0008 0123     		movs	r3, #1
 139:Core/Src/syscalls.c **** }
 516              		.loc 1 139 1
 517 000a 1846     		mov	r0, r3
 518 000c 0C37     		adds	r7, r7, #12
 519              	.LCFI47:
 520              		.cfi_def_cfa_offset 4
 521 000e BD46     		mov	sp, r7
 522              	.LCFI48:
 523              		.cfi_def_cfa_register 13
 524              		@ sp needed
 525 0010 80BC     		pop	{r7}
 526              	.LCFI49:
 527              		.cfi_restore 7
 528              		.cfi_def_cfa_offset 0
 529 0012 7047     		bx	lr
 530              		.cfi_endproc
 531              	.LFE34:
 533              		.section	.text._lseek,"ax",%progbits
 534              		.align	1
 535              		.global	_lseek
 536              		.syntax unified
 537              		.thumb
 538              		.thumb_func
 540              	_lseek:
 541              	.LFB35:
 140:Core/Src/syscalls.c **** 
 141:Core/Src/syscalls.c **** int _lseek(int file, int ptr, int dir)
 142:Core/Src/syscalls.c **** {
 542              		.loc 1 142 1
 543              		.cfi_startproc
 544              		@ args = 0, pretend = 0, frame = 16
 545              		@ frame_needed = 1, uses_anonymous_args = 0
 546              		@ link register save eliminated.
 547 0000 80B4     		push	{r7}
 548              	.LCFI50:
 549              		.cfi_def_cfa_offset 4
 550              		.cfi_offset 7, -4
 551 0002 85B0     		sub	sp, sp, #20
 552              	.LCFI51:
 553              		.cfi_def_cfa_offset 24
 554 0004 00AF     		add	r7, sp, #0
 555              	.LCFI52:
 556              		.cfi_def_cfa_register 7
 557 0006 F860     		str	r0, [r7, #12]
 558 0008 B960     		str	r1, [r7, #8]
 559 000a 7A60     		str	r2, [r7, #4]
 143:Core/Src/syscalls.c ****   (void)file;
 144:Core/Src/syscalls.c ****   (void)ptr;
 145:Core/Src/syscalls.c ****   (void)dir;
 146:Core/Src/syscalls.c ****   return 0;
ARM GAS  C:\Users\Lenovo\AppData\Local\Temp\ccy2Jckb.s 			page 13


 560              		.loc 1 146 10
 561 000c 0023     		movs	r3, #0
 147:Core/Src/syscalls.c **** }
 562              		.loc 1 147 1
 563 000e 1846     		mov	r0, r3
 564 0010 1437     		adds	r7, r7, #20
 565              	.LCFI53:
 566              		.cfi_def_cfa_offset 4
 567 0012 BD46     		mov	sp, r7
 568              	.LCFI54:
 569              		.cfi_def_cfa_register 13
 570              		@ sp needed
 571 0014 80BC     		pop	{r7}
 572              	.LCFI55:
 573              		.cfi_restore 7
 574              		.cfi_def_cfa_offset 0
 575 0016 7047     		bx	lr
 576              		.cfi_endproc
 577              	.LFE35:
 579              		.section	.text._open,"ax",%progbits
 580              		.align	1
 581              		.global	_open
 582              		.syntax unified
 583              		.thumb
 584              		.thumb_func
 586              	_open:
 587              	.LFB36:
 148:Core/Src/syscalls.c **** 
 149:Core/Src/syscalls.c **** int _open(char *path, int flags, ...)
 150:Core/Src/syscalls.c **** {
 588              		.loc 1 150 1
 589              		.cfi_startproc
 590              		@ args = 4, pretend = 12, frame = 8
 591              		@ frame_needed = 1, uses_anonymous_args = 1
 592              		@ link register save eliminated.
 593 0000 0EB4     		push	{r1, r2, r3}
 594              	.LCFI56:
 595              		.cfi_def_cfa_offset 12
 596              		.cfi_offset 1, -12
 597              		.cfi_offset 2, -8
 598              		.cfi_offset 3, -4
 599 0002 80B4     		push	{r7}
 600              	.LCFI57:
 601              		.cfi_def_cfa_offset 16
 602              		.cfi_offset 7, -16
 603 0004 82B0     		sub	sp, sp, #8
 604              	.LCFI58:
 605              		.cfi_def_cfa_offset 24
 606 0006 00AF     		add	r7, sp, #0
 607              	.LCFI59:
 608              		.cfi_def_cfa_register 7
 609 0008 7860     		str	r0, [r7, #4]
 151:Core/Src/syscalls.c ****   (void)path;
 152:Core/Src/syscalls.c ****   (void)flags;
 153:Core/Src/syscalls.c ****   /* Pretend like we always fail */
 154:Core/Src/syscalls.c ****   return -1;
 610              		.loc 1 154 10
ARM GAS  C:\Users\Lenovo\AppData\Local\Temp\ccy2Jckb.s 			page 14


 611 000a 4FF0FF33 		mov	r3, #-1
 155:Core/Src/syscalls.c **** }
 612              		.loc 1 155 1
 613 000e 1846     		mov	r0, r3
 614 0010 0837     		adds	r7, r7, #8
 615              	.LCFI60:
 616              		.cfi_def_cfa_offset 16
 617 0012 BD46     		mov	sp, r7
 618              	.LCFI61:
 619              		.cfi_def_cfa_register 13
 620              		@ sp needed
 621 0014 80BC     		pop	{r7}
 622              	.LCFI62:
 623              		.cfi_restore 7
 624              		.cfi_def_cfa_offset 12
 625 0016 03B0     		add	sp, sp, #12
 626              	.LCFI63:
 627              		.cfi_restore 3
 628              		.cfi_restore 2
 629              		.cfi_restore 1
 630              		.cfi_def_cfa_offset 0
 631 0018 7047     		bx	lr
 632              		.cfi_endproc
 633              	.LFE36:
 635              		.section	.text._wait,"ax",%progbits
 636              		.align	1
 637              		.global	_wait
 638              		.syntax unified
 639              		.thumb
 640              		.thumb_func
 642              	_wait:
 643              	.LFB37:
 156:Core/Src/syscalls.c **** 
 157:Core/Src/syscalls.c **** int _wait(int *status)
 158:Core/Src/syscalls.c **** {
 644              		.loc 1 158 1
 645              		.cfi_startproc
 646              		@ args = 0, pretend = 0, frame = 8
 647              		@ frame_needed = 1, uses_anonymous_args = 0
 648 0000 80B5     		push	{r7, lr}
 649              	.LCFI64:
 650              		.cfi_def_cfa_offset 8
 651              		.cfi_offset 7, -8
 652              		.cfi_offset 14, -4
 653 0002 82B0     		sub	sp, sp, #8
 654              	.LCFI65:
 655              		.cfi_def_cfa_offset 16
 656 0004 00AF     		add	r7, sp, #0
 657              	.LCFI66:
 658              		.cfi_def_cfa_register 7
 659 0006 7860     		str	r0, [r7, #4]
 159:Core/Src/syscalls.c ****   (void)status;
 160:Core/Src/syscalls.c ****   errno = ECHILD;
 660              		.loc 1 160 3
 661 0008 FFF7FEFF 		bl	__errno
 662 000c 0346     		mov	r3, r0
 663              		.loc 1 160 9
ARM GAS  C:\Users\Lenovo\AppData\Local\Temp\ccy2Jckb.s 			page 15


 664 000e 0A22     		movs	r2, #10
 665 0010 1A60     		str	r2, [r3]
 161:Core/Src/syscalls.c ****   return -1;
 666              		.loc 1 161 10
 667 0012 4FF0FF33 		mov	r3, #-1
 162:Core/Src/syscalls.c **** }
 668              		.loc 1 162 1
 669 0016 1846     		mov	r0, r3
 670 0018 0837     		adds	r7, r7, #8
 671              	.LCFI67:
 672              		.cfi_def_cfa_offset 8
 673 001a BD46     		mov	sp, r7
 674              	.LCFI68:
 675              		.cfi_def_cfa_register 13
 676              		@ sp needed
 677 001c 80BD     		pop	{r7, pc}
 678              		.cfi_endproc
 679              	.LFE37:
 681              		.section	.text._unlink,"ax",%progbits
 682              		.align	1
 683              		.global	_unlink
 684              		.syntax unified
 685              		.thumb
 686              		.thumb_func
 688              	_unlink:
 689              	.LFB38:
 163:Core/Src/syscalls.c **** 
 164:Core/Src/syscalls.c **** int _unlink(char *name)
 165:Core/Src/syscalls.c **** {
 690              		.loc 1 165 1
 691              		.cfi_startproc
 692              		@ args = 0, pretend = 0, frame = 8
 693              		@ frame_needed = 1, uses_anonymous_args = 0
 694 0000 80B5     		push	{r7, lr}
 695              	.LCFI69:
 696              		.cfi_def_cfa_offset 8
 697              		.cfi_offset 7, -8
 698              		.cfi_offset 14, -4
 699 0002 82B0     		sub	sp, sp, #8
 700              	.LCFI70:
 701              		.cfi_def_cfa_offset 16
 702 0004 00AF     		add	r7, sp, #0
 703              	.LCFI71:
 704              		.cfi_def_cfa_register 7
 705 0006 7860     		str	r0, [r7, #4]
 166:Core/Src/syscalls.c ****   (void)name;
 167:Core/Src/syscalls.c ****   errno = ENOENT;
 706              		.loc 1 167 3
 707 0008 FFF7FEFF 		bl	__errno
 708 000c 0346     		mov	r3, r0
 709              		.loc 1 167 9
 710 000e 0222     		movs	r2, #2
 711 0010 1A60     		str	r2, [r3]
 168:Core/Src/syscalls.c ****   return -1;
 712              		.loc 1 168 10
 713 0012 4FF0FF33 		mov	r3, #-1
 169:Core/Src/syscalls.c **** }
ARM GAS  C:\Users\Lenovo\AppData\Local\Temp\ccy2Jckb.s 			page 16


 714              		.loc 1 169 1
 715 0016 1846     		mov	r0, r3
 716 0018 0837     		adds	r7, r7, #8
 717              	.LCFI72:
 718              		.cfi_def_cfa_offset 8
 719 001a BD46     		mov	sp, r7
 720              	.LCFI73:
 721              		.cfi_def_cfa_register 13
 722              		@ sp needed
 723 001c 80BD     		pop	{r7, pc}
 724              		.cfi_endproc
 725              	.LFE38:
 727              		.section	.text._times,"ax",%progbits
 728              		.align	1
 729              		.global	_times
 730              		.syntax unified
 731              		.thumb
 732              		.thumb_func
 734              	_times:
 735              	.LFB39:
 170:Core/Src/syscalls.c **** 
 171:Core/Src/syscalls.c **** int _times(struct tms *buf)
 172:Core/Src/syscalls.c **** {
 736              		.loc 1 172 1
 737              		.cfi_startproc
 738              		@ args = 0, pretend = 0, frame = 8
 739              		@ frame_needed = 1, uses_anonymous_args = 0
 740              		@ link register save eliminated.
 741 0000 80B4     		push	{r7}
 742              	.LCFI74:
 743              		.cfi_def_cfa_offset 4
 744              		.cfi_offset 7, -4
 745 0002 83B0     		sub	sp, sp, #12
 746              	.LCFI75:
 747              		.cfi_def_cfa_offset 16
 748 0004 00AF     		add	r7, sp, #0
 749              	.LCFI76:
 750              		.cfi_def_cfa_register 7
 751 0006 7860     		str	r0, [r7, #4]
 173:Core/Src/syscalls.c ****   (void)buf;
 174:Core/Src/syscalls.c ****   return -1;
 752              		.loc 1 174 10
 753 0008 4FF0FF33 		mov	r3, #-1
 175:Core/Src/syscalls.c **** }
 754              		.loc 1 175 1
 755 000c 1846     		mov	r0, r3
 756 000e 0C37     		adds	r7, r7, #12
 757              	.LCFI77:
 758              		.cfi_def_cfa_offset 4
 759 0010 BD46     		mov	sp, r7
 760              	.LCFI78:
 761              		.cfi_def_cfa_register 13
 762              		@ sp needed
 763 0012 80BC     		pop	{r7}
 764              	.LCFI79:
 765              		.cfi_restore 7
 766              		.cfi_def_cfa_offset 0
ARM GAS  C:\Users\Lenovo\AppData\Local\Temp\ccy2Jckb.s 			page 17


 767 0014 7047     		bx	lr
 768              		.cfi_endproc
 769              	.LFE39:
 771              		.section	.text._stat,"ax",%progbits
 772              		.align	1
 773              		.global	_stat
 774              		.syntax unified
 775              		.thumb
 776              		.thumb_func
 778              	_stat:
 779              	.LFB40:
 176:Core/Src/syscalls.c **** 
 177:Core/Src/syscalls.c **** int _stat(char *file, struct stat *st)
 178:Core/Src/syscalls.c **** {
 780              		.loc 1 178 1
 781              		.cfi_startproc
 782              		@ args = 0, pretend = 0, frame = 8
 783              		@ frame_needed = 1, uses_anonymous_args = 0
 784              		@ link register save eliminated.
 785 0000 80B4     		push	{r7}
 786              	.LCFI80:
 787              		.cfi_def_cfa_offset 4
 788              		.cfi_offset 7, -4
 789 0002 83B0     		sub	sp, sp, #12
 790              	.LCFI81:
 791              		.cfi_def_cfa_offset 16
 792 0004 00AF     		add	r7, sp, #0
 793              	.LCFI82:
 794              		.cfi_def_cfa_register 7
 795 0006 7860     		str	r0, [r7, #4]
 796 0008 3960     		str	r1, [r7]
 179:Core/Src/syscalls.c ****   (void)file;
 180:Core/Src/syscalls.c ****   st->st_mode = S_IFCHR;
 797              		.loc 1 180 15
 798 000a 3B68     		ldr	r3, [r7]
 799 000c 4FF40052 		mov	r2, #8192
 800 0010 5A60     		str	r2, [r3, #4]
 181:Core/Src/syscalls.c ****   return 0;
 801              		.loc 1 181 10
 802 0012 0023     		movs	r3, #0
 182:Core/Src/syscalls.c **** }
 803              		.loc 1 182 1
 804 0014 1846     		mov	r0, r3
 805 0016 0C37     		adds	r7, r7, #12
 806              	.LCFI83:
 807              		.cfi_def_cfa_offset 4
 808 0018 BD46     		mov	sp, r7
 809              	.LCFI84:
 810              		.cfi_def_cfa_register 13
 811              		@ sp needed
 812 001a 80BC     		pop	{r7}
 813              	.LCFI85:
 814              		.cfi_restore 7
 815              		.cfi_def_cfa_offset 0
 816 001c 7047     		bx	lr
 817              		.cfi_endproc
 818              	.LFE40:
ARM GAS  C:\Users\Lenovo\AppData\Local\Temp\ccy2Jckb.s 			page 18


 820              		.section	.text._link,"ax",%progbits
 821              		.align	1
 822              		.global	_link
 823              		.syntax unified
 824              		.thumb
 825              		.thumb_func
 827              	_link:
 828              	.LFB41:
 183:Core/Src/syscalls.c **** 
 184:Core/Src/syscalls.c **** int _link(char *old, char *new)
 185:Core/Src/syscalls.c **** {
 829              		.loc 1 185 1
 830              		.cfi_startproc
 831              		@ args = 0, pretend = 0, frame = 8
 832              		@ frame_needed = 1, uses_anonymous_args = 0
 833 0000 80B5     		push	{r7, lr}
 834              	.LCFI86:
 835              		.cfi_def_cfa_offset 8
 836              		.cfi_offset 7, -8
 837              		.cfi_offset 14, -4
 838 0002 82B0     		sub	sp, sp, #8
 839              	.LCFI87:
 840              		.cfi_def_cfa_offset 16
 841 0004 00AF     		add	r7, sp, #0
 842              	.LCFI88:
 843              		.cfi_def_cfa_register 7
 844 0006 7860     		str	r0, [r7, #4]
 845 0008 3960     		str	r1, [r7]
 186:Core/Src/syscalls.c ****   (void)old;
 187:Core/Src/syscalls.c ****   (void)new;
 188:Core/Src/syscalls.c ****   errno = EMLINK;
 846              		.loc 1 188 3
 847 000a FFF7FEFF 		bl	__errno
 848 000e 0346     		mov	r3, r0
 849              		.loc 1 188 9
 850 0010 1F22     		movs	r2, #31
 851 0012 1A60     		str	r2, [r3]
 189:Core/Src/syscalls.c ****   return -1;
 852              		.loc 1 189 10
 853 0014 4FF0FF33 		mov	r3, #-1
 190:Core/Src/syscalls.c **** }
 854              		.loc 1 190 1
 855 0018 1846     		mov	r0, r3
 856 001a 0837     		adds	r7, r7, #8
 857              	.LCFI89:
 858              		.cfi_def_cfa_offset 8
 859 001c BD46     		mov	sp, r7
 860              	.LCFI90:
 861              		.cfi_def_cfa_register 13
 862              		@ sp needed
 863 001e 80BD     		pop	{r7, pc}
 864              		.cfi_endproc
 865              	.LFE41:
 867              		.section	.text._fork,"ax",%progbits
 868              		.align	1
 869              		.global	_fork
 870              		.syntax unified
ARM GAS  C:\Users\Lenovo\AppData\Local\Temp\ccy2Jckb.s 			page 19


 871              		.thumb
 872              		.thumb_func
 874              	_fork:
 875              	.LFB42:
 191:Core/Src/syscalls.c **** 
 192:Core/Src/syscalls.c **** int _fork(void)
 193:Core/Src/syscalls.c **** {
 876              		.loc 1 193 1
 877              		.cfi_startproc
 878              		@ args = 0, pretend = 0, frame = 0
 879              		@ frame_needed = 1, uses_anonymous_args = 0
 880 0000 80B5     		push	{r7, lr}
 881              	.LCFI91:
 882              		.cfi_def_cfa_offset 8
 883              		.cfi_offset 7, -8
 884              		.cfi_offset 14, -4
 885 0002 00AF     		add	r7, sp, #0
 886              	.LCFI92:
 887              		.cfi_def_cfa_register 7
 194:Core/Src/syscalls.c ****   errno = EAGAIN;
 888              		.loc 1 194 3
 889 0004 FFF7FEFF 		bl	__errno
 890 0008 0346     		mov	r3, r0
 891              		.loc 1 194 9
 892 000a 0B22     		movs	r2, #11
 893 000c 1A60     		str	r2, [r3]
 195:Core/Src/syscalls.c ****   return -1;
 894              		.loc 1 195 10
 895 000e 4FF0FF33 		mov	r3, #-1
 196:Core/Src/syscalls.c **** }
 896              		.loc 1 196 1
 897 0012 1846     		mov	r0, r3
 898 0014 80BD     		pop	{r7, pc}
 899              		.cfi_endproc
 900              	.LFE42:
 902              		.section	.text._execve,"ax",%progbits
 903              		.align	1
 904              		.global	_execve
 905              		.syntax unified
 906              		.thumb
 907              		.thumb_func
 909              	_execve:
 910              	.LFB43:
 197:Core/Src/syscalls.c **** 
 198:Core/Src/syscalls.c **** int _execve(char *name, char **argv, char **env)
 199:Core/Src/syscalls.c **** {
 911              		.loc 1 199 1
 912              		.cfi_startproc
 913              		@ args = 0, pretend = 0, frame = 16
 914              		@ frame_needed = 1, uses_anonymous_args = 0
 915 0000 80B5     		push	{r7, lr}
 916              	.LCFI93:
 917              		.cfi_def_cfa_offset 8
 918              		.cfi_offset 7, -8
 919              		.cfi_offset 14, -4
 920 0002 84B0     		sub	sp, sp, #16
 921              	.LCFI94:
ARM GAS  C:\Users\Lenovo\AppData\Local\Temp\ccy2Jckb.s 			page 20


 922              		.cfi_def_cfa_offset 24
 923 0004 00AF     		add	r7, sp, #0
 924              	.LCFI95:
 925              		.cfi_def_cfa_register 7
 926 0006 F860     		str	r0, [r7, #12]
 927 0008 B960     		str	r1, [r7, #8]
 928 000a 7A60     		str	r2, [r7, #4]
 200:Core/Src/syscalls.c ****   (void)name;
 201:Core/Src/syscalls.c ****   (void)argv;
 202:Core/Src/syscalls.c ****   (void)env;
 203:Core/Src/syscalls.c ****   errno = ENOMEM;
 929              		.loc 1 203 3
 930 000c FFF7FEFF 		bl	__errno
 931 0010 0346     		mov	r3, r0
 932              		.loc 1 203 9
 933 0012 0C22     		movs	r2, #12
 934 0014 1A60     		str	r2, [r3]
 204:Core/Src/syscalls.c ****   return -1;
 935              		.loc 1 204 10
 936 0016 4FF0FF33 		mov	r3, #-1
 205:Core/Src/syscalls.c **** }
 937              		.loc 1 205 1
 938 001a 1846     		mov	r0, r3
 939 001c 1037     		adds	r7, r7, #16
 940              	.LCFI96:
 941              		.cfi_def_cfa_offset 8
 942 001e BD46     		mov	sp, r7
 943              	.LCFI97:
 944              		.cfi_def_cfa_register 13
 945              		@ sp needed
 946 0020 80BD     		pop	{r7, pc}
 947              		.cfi_endproc
 948              	.LFE43:
 950              		.weak	__io_getchar
 951              		.text
 952              	.Letext0:
 953              		.file 2 "d:\\zodhya projects\\technical doccuments\\stm32_vscode_make\\tools\\gcc-arm-none-eabi-10
 954              		.file 3 "d:\\zodhya projects\\technical doccuments\\stm32_vscode_make\\tools\\gcc-arm-none-eabi-10
 955              		.file 4 "d:\\zodhya projects\\technical doccuments\\stm32_vscode_make\\tools\\gcc-arm-none-eabi-10
 956              		.file 5 "d:\\zodhya projects\\technical doccuments\\stm32_vscode_make\\tools\\gcc-arm-none-eabi-10
 957              		.file 6 "d:\\zodhya projects\\technical doccuments\\stm32_vscode_make\\tools\\gcc-arm-none-eabi-10
 958              		.file 7 "d:\\zodhya projects\\technical doccuments\\stm32_vscode_make\\tools\\gcc-arm-none-eabi-10
 959              		.file 8 "d:\\zodhya projects\\technical doccuments\\stm32_vscode_make\\tools\\gcc-arm-none-eabi-10
 960              		.file 9 "d:\\zodhya projects\\technical doccuments\\stm32_vscode_make\\tools\\gcc-arm-none-eabi-10
ARM GAS  C:\Users\Lenovo\AppData\Local\Temp\ccy2Jckb.s 			page 21

