ARM GAS  C:\Users\Lenovo\AppData\Local\Temp\ccuWeQNH.s 			page 1


   1              		.cpu cortex-m4
   2              		.arch armv7e-m
   3              		.fpu softvfp
   4              		.eabi_attribute 20, 1
   5              		.eabi_attribute 21, 1
   6              		.eabi_attribute 23, 3
   7              		.eabi_attribute 24, 1
   8              		.eabi_attribute 25, 1
   9              		.eabi_attribute 26, 1
  10              		.eabi_attribute 30, 1
  11              		.eabi_attribute 34, 1
  12              		.eabi_attribute 18, 4
  13              		.file	"main.c"
  14              		.text
  15              	.Ltext0:
  16              		.cfi_sections	.debug_frame
  17              		.section	.text.MX_GPIO_Init,"ax",%progbits
  18              		.align	1
  19              		.syntax unified
  20              		.thumb
  21              		.thumb_func
  23              	MX_GPIO_Init:
  24              	.LFB854:
  25              		.file 1 "Core/Src/main.c"
   1:Core/Src/main.c **** /* USER CODE BEGIN Header */
   2:Core/Src/main.c **** /**
   3:Core/Src/main.c ****  ******************************************************************************
   4:Core/Src/main.c ****  * @file           : main.c
   5:Core/Src/main.c ****  * @brief          : Main program body
   6:Core/Src/main.c ****  ******************************************************************************
   7:Core/Src/main.c ****  * @attention
   8:Core/Src/main.c ****  *
   9:Core/Src/main.c ****  * Copyright (c) 2024 STMicroelectronics.
  10:Core/Src/main.c ****  * All rights reserved.
  11:Core/Src/main.c ****  *
  12:Core/Src/main.c ****  * This software is licensed under terms that can be found in the LICENSE file
  13:Core/Src/main.c ****  * in the root directory of this software component.
  14:Core/Src/main.c ****  * If no LICENSE file comes with this software, it is provided AS-IS.
  15:Core/Src/main.c ****  *
  16:Core/Src/main.c ****  ******************************************************************************
  17:Core/Src/main.c ****  */
  18:Core/Src/main.c **** /* USER CODE END Header */
  19:Core/Src/main.c **** /* Includes ------------------------------------------------------------------*/
  20:Core/Src/main.c **** #include <stdio.h>
  21:Core/Src/main.c **** #include <stdint.h>
  22:Core/Src/main.c **** #include <stdarg.h>
  23:Core/Src/main.c **** #include "main.h"
  24:Core/Src/main.c **** #include "cmsis_os.h"
  25:Core/Src/main.c **** 
  26:Core/Src/main.c **** /* Private includes ----------------------------------------------------------*/
  27:Core/Src/main.c **** /* USER CODE BEGIN Includes */
  28:Core/Src/main.c **** 
  29:Core/Src/main.c **** /* USER CODE END Includes */
  30:Core/Src/main.c **** 
  31:Core/Src/main.c **** /* Private typedef -----------------------------------------------------------*/
  32:Core/Src/main.c **** /* USER CODE BEGIN PTD */
  33:Core/Src/main.c **** 
ARM GAS  C:\Users\Lenovo\AppData\Local\Temp\ccuWeQNH.s 			page 2


  34:Core/Src/main.c **** /* USER CODE END PTD */
  35:Core/Src/main.c **** 
  36:Core/Src/main.c **** /* Private define ------------------------------------------------------------*/
  37:Core/Src/main.c **** /* USER CODE BEGIN PD */
  38:Core/Src/main.c **** 
  39:Core/Src/main.c **** /* USER CODE END PD */
  40:Core/Src/main.c **** 
  41:Core/Src/main.c **** /* Private macro -------------------------------------------------------------*/
  42:Core/Src/main.c **** /* USER CODE BEGIN PM */
  43:Core/Src/main.c **** #define TASK_INSTANCE_SINGLE 1
  44:Core/Src/main.c **** #define SENDER_TASK_STACK_SIZE (128 * 2)
  45:Core/Src/main.c **** #define RECIEVER_TASK_STACK_SIZE (128 * 2)
  46:Core/Src/main.c **** /* USER CODE END PM */
  47:Core/Src/main.c **** 
  48:Core/Src/main.c **** /* Private variables ---------------------------------------------------------*/
  49:Core/Src/main.c **** // osThreadId defaultTaskHandle;
  50:Core/Src/main.c **** /* USER CODE BEGIN PV */
  51:Core/Src/main.c **** 
  52:Core/Src/main.c **** /* USER CODE END PV */
  53:Core/Src/main.c **** 
  54:Core/Src/main.c **** /* Private function prototypes -----------------------------------------------*/
  55:Core/Src/main.c **** void SystemClock_Config(void);
  56:Core/Src/main.c **** static void MX_GPIO_Init(void);
  57:Core/Src/main.c **** // void StartDefaultTask(void const * argument);
  58:Core/Src/main.c **** void fnRTOSMessageSendTask(void const *argument);
  59:Core/Src/main.c **** void fnRTOSMessageReceiverTask(void const *argument);
  60:Core/Src/main.c **** void fnCMSIS1_Thread_Config_Assert(osThreadId osThreadHandler);
  61:Core/Src/main.c **** 
  62:Core/Src/main.c **** // Configure CMSIS RTOS 1 Task: fnRTOSMessageSendTask
  63:Core/Src/main.c **** osThreadId SenderTaskID;
  64:Core/Src/main.c **** osThreadDef(CMSIS1_Sender_Task, fnRTOSMessageSendTask, osPriorityNormal, TASK_INSTANCE_SINGLE, SEND
  65:Core/Src/main.c **** 
  66:Core/Src/main.c **** // Config CMSIS RTOS 1 Task: fnRTOSMessageReceiverTask
  67:Core/Src/main.c **** osThreadId ReceiverTaskID;
  68:Core/Src/main.c **** osThreadDef(CMSIS1_Receiver_Task, fnRTOSMessageReceiverTask, osPriorityAboveNormal, TASK_INSTANCE_S
  69:Core/Src/main.c **** /* USER CODE BEGIN PFP */
  70:Core/Src/main.c **** 
  71:Core/Src/main.c **** /* USER CODE END PFP */
  72:Core/Src/main.c **** 
  73:Core/Src/main.c **** /* Private user code ---------------------------------------------------------*/
  74:Core/Src/main.c **** /* USER CODE BEGIN 0 */
  75:Core/Src/main.c **** 
  76:Core/Src/main.c **** /* USER CODE END 0 */
  77:Core/Src/main.c **** 
  78:Core/Src/main.c **** /**
  79:Core/Src/main.c ****  * @brief  The application entry point.
  80:Core/Src/main.c ****  * @retval int
  81:Core/Src/main.c ****  */
  82:Core/Src/main.c **** int main(void)
  83:Core/Src/main.c **** {
  84:Core/Src/main.c **** 
  85:Core/Src/main.c ****   /* USER CODE BEGIN 1 */
  86:Core/Src/main.c **** 
  87:Core/Src/main.c ****   /* USER CODE END 1 */
  88:Core/Src/main.c **** 
  89:Core/Src/main.c ****   /* MCU Configuration--------------------------------------------------------*/
  90:Core/Src/main.c **** 
ARM GAS  C:\Users\Lenovo\AppData\Local\Temp\ccuWeQNH.s 			page 3


  91:Core/Src/main.c ****   /* Reset of all peripherals, Initializes the Flash interface and the Systick. */
  92:Core/Src/main.c ****   HAL_Init();
  93:Core/Src/main.c **** 
  94:Core/Src/main.c ****   /* USER CODE BEGIN Init */
  95:Core/Src/main.c **** 
  96:Core/Src/main.c ****   /* USER CODE END Init */
  97:Core/Src/main.c **** 
  98:Core/Src/main.c ****   /* Configure the system clock */
  99:Core/Src/main.c ****   SystemClock_Config();
 100:Core/Src/main.c **** 
 101:Core/Src/main.c ****   /* USER CODE BEGIN SysInit */
 102:Core/Src/main.c **** 
 103:Core/Src/main.c ****   /* USER CODE END SysInit */
 104:Core/Src/main.c **** 
 105:Core/Src/main.c ****   /* Initialize all configured peripherals */
 106:Core/Src/main.c ****   MX_GPIO_Init();
 107:Core/Src/main.c ****   /* USER CODE BEGIN 2 */
 108:Core/Src/main.c **** 
 109:Core/Src/main.c ****   /* USER CODE END 2 */
 110:Core/Src/main.c **** 
 111:Core/Src/main.c ****   /* USER CODE BEGIN RTOS_MUTEX */
 112:Core/Src/main.c ****   /* add mutexes, ... */
 113:Core/Src/main.c ****   /* USER CODE END RTOS_MUTEX */
 114:Core/Src/main.c **** 
 115:Core/Src/main.c ****   /* USER CODE BEGIN RTOS_SEMAPHORES */
 116:Core/Src/main.c ****   /* add semaphores, ... */
 117:Core/Src/main.c ****   /* USER CODE END RTOS_SEMAPHORES */
 118:Core/Src/main.c **** 
 119:Core/Src/main.c ****   /* USER CODE BEGIN RTOS_TIMERS */
 120:Core/Src/main.c ****   /* start timers, add new ones, ... */
 121:Core/Src/main.c ****   /* USER CODE END RTOS_TIMERS */
 122:Core/Src/main.c **** 
 123:Core/Src/main.c ****   /* USER CODE BEGIN RTOS_QUEUES */
 124:Core/Src/main.c ****   /* add queues, ... */
 125:Core/Src/main.c ****   /* USER CODE END RTOS_QUEUES */
 126:Core/Src/main.c **** 
 127:Core/Src/main.c ****   /* Create the thread(s) */
 128:Core/Src/main.c ****   /* definition and creation of defaultTask */
 129:Core/Src/main.c ****   // osThreadDef(defaultTask, StartDefaultTask, osPriorityNormal, 0, 128);
 130:Core/Src/main.c **** 
 131:Core/Src/main.c ****   SenderTaskID = osThreadCreate(osThread(CMSIS1_Sender_Task), NULL);
 132:Core/Src/main.c ****   if (SenderTaskID == NULL)
 133:Core/Src/main.c ****   {
 134:Core/Src/main.c ****     printf("Task could not be creared sucessfully!!");
 135:Core/Src/main.c ****     Error_Handler();
 136:Core/Src/main.c ****   }
 137:Core/Src/main.c **** 
 138:Core/Src/main.c ****   ReceiverTaskID = osThreadCreate(osThread(CMSIS1_Receiver_Task), NULL);
 139:Core/Src/main.c ****   fnCMSIS1_Thread_Config_Assert(ReceiverTaskID);
 140:Core/Src/main.c ****   /* USER CODE BEGIN RTOS_THREADS */
 141:Core/Src/main.c ****   /* add threads, ... */
 142:Core/Src/main.c ****   /* USER CODE END RTOS_THREADS */
 143:Core/Src/main.c **** 
 144:Core/Src/main.c ****   /* Start scheduler */
 145:Core/Src/main.c ****   osKernelStart();
 146:Core/Src/main.c **** 
 147:Core/Src/main.c ****   /* We should never get here as control is now taken by the scheduler */
ARM GAS  C:\Users\Lenovo\AppData\Local\Temp\ccuWeQNH.s 			page 4


 148:Core/Src/main.c **** 
 149:Core/Src/main.c ****   /* Infinite loop */
 150:Core/Src/main.c ****   /* USER CODE BEGIN WHILE */
 151:Core/Src/main.c ****   while (1)
 152:Core/Src/main.c ****   {
 153:Core/Src/main.c ****     /* USER CODE END WHILE */
 154:Core/Src/main.c **** 
 155:Core/Src/main.c ****     /* USER CODE BEGIN 3 */
 156:Core/Src/main.c ****   }
 157:Core/Src/main.c ****   /* USER CODE END 3 */
 158:Core/Src/main.c **** }
 159:Core/Src/main.c **** 
 160:Core/Src/main.c **** /**
 161:Core/Src/main.c ****  * @brief System Clock Configuration
 162:Core/Src/main.c ****  * @retval None
 163:Core/Src/main.c ****  */
 164:Core/Src/main.c **** void SystemClock_Config(void)
 165:Core/Src/main.c **** {
 166:Core/Src/main.c ****   RCC_OscInitTypeDef RCC_OscInitStruct = {0};
 167:Core/Src/main.c ****   RCC_ClkInitTypeDef RCC_ClkInitStruct = {0};
 168:Core/Src/main.c **** 
 169:Core/Src/main.c ****   /** Configure the main internal regulator output voltage
 170:Core/Src/main.c ****    */
 171:Core/Src/main.c ****   __HAL_PWR_VOLTAGESCALING_CONFIG(PWR_REGULATOR_VOLTAGE_SCALE2);
 172:Core/Src/main.c **** 
 173:Core/Src/main.c ****   /** Initializes the CPU, AHB and APB buses clocks
 174:Core/Src/main.c ****    */
 175:Core/Src/main.c ****   RCC_OscInitStruct.OscillatorType = RCC_OSCILLATORTYPE_MSI;
 176:Core/Src/main.c ****   RCC_OscInitStruct.MSIState = RCC_MSI_ON;
 177:Core/Src/main.c ****   RCC_OscInitStruct.MSICalibrationValue = RCC_MSICALIBRATION_DEFAULT;
 178:Core/Src/main.c ****   RCC_OscInitStruct.MSIClockRange = RCC_MSIRANGE_6;
 179:Core/Src/main.c ****   RCC_OscInitStruct.PLL.PLLState = RCC_PLL_NONE;
 180:Core/Src/main.c ****   if (HAL_RCC_OscConfig(&RCC_OscInitStruct) != HAL_OK)
 181:Core/Src/main.c ****   {
 182:Core/Src/main.c ****     Error_Handler();
 183:Core/Src/main.c ****   }
 184:Core/Src/main.c **** 
 185:Core/Src/main.c ****   /** Configure the SYSCLKSource, HCLK, PCLK1 and PCLK2 clocks dividers
 186:Core/Src/main.c ****    */
 187:Core/Src/main.c ****   RCC_ClkInitStruct.ClockType = RCC_CLOCKTYPE_HCLK3 | RCC_CLOCKTYPE_HCLK | RCC_CLOCKTYPE_SYSCLK | R
 188:Core/Src/main.c ****   RCC_ClkInitStruct.SYSCLKSource = RCC_SYSCLKSOURCE_MSI;
 189:Core/Src/main.c ****   RCC_ClkInitStruct.AHBCLKDivider = RCC_SYSCLK_DIV1;
 190:Core/Src/main.c ****   RCC_ClkInitStruct.APB1CLKDivider = RCC_HCLK_DIV1;
 191:Core/Src/main.c ****   RCC_ClkInitStruct.APB2CLKDivider = RCC_HCLK_DIV1;
 192:Core/Src/main.c ****   RCC_ClkInitStruct.AHBCLK3Divider = RCC_SYSCLK_DIV1;
 193:Core/Src/main.c **** 
 194:Core/Src/main.c ****   if (HAL_RCC_ClockConfig(&RCC_ClkInitStruct, FLASH_LATENCY_0) != HAL_OK)
 195:Core/Src/main.c ****   {
 196:Core/Src/main.c ****     Error_Handler();
 197:Core/Src/main.c ****   }
 198:Core/Src/main.c **** }
 199:Core/Src/main.c **** 
 200:Core/Src/main.c **** /**
 201:Core/Src/main.c ****  * @brief GPIO Initialization Function
 202:Core/Src/main.c ****  * @param None
 203:Core/Src/main.c ****  * @retval None
 204:Core/Src/main.c ****  */
ARM GAS  C:\Users\Lenovo\AppData\Local\Temp\ccuWeQNH.s 			page 5


 205:Core/Src/main.c **** static void MX_GPIO_Init(void)
 206:Core/Src/main.c **** {
  26              		.loc 1 206 1 view -0
  27              		.cfi_startproc
  28              		@ args = 0, pretend = 0, frame = 32
  29              		@ frame_needed = 0, uses_anonymous_args = 0
  30 0000 10B5     		push	{r4, lr}
  31              	.LCFI0:
  32              		.cfi_def_cfa_offset 8
  33              		.cfi_offset 4, -8
  34              		.cfi_offset 14, -4
  35 0002 88B0     		sub	sp, sp, #32
  36              	.LCFI1:
  37              		.cfi_def_cfa_offset 40
 207:Core/Src/main.c ****   GPIO_InitTypeDef GPIO_InitStruct = {0};
  38              		.loc 1 207 3 view .LVU1
  39              		.loc 1 207 20 is_stmt 0 view .LVU2
  40 0004 0024     		movs	r4, #0
  41 0006 0394     		str	r4, [sp, #12]
  42 0008 0494     		str	r4, [sp, #16]
  43 000a 0594     		str	r4, [sp, #20]
  44 000c 0694     		str	r4, [sp, #24]
  45 000e 0794     		str	r4, [sp, #28]
 208:Core/Src/main.c ****   /* USER CODE BEGIN MX_GPIO_Init_1 */
 209:Core/Src/main.c ****   /* USER CODE END MX_GPIO_Init_1 */
 210:Core/Src/main.c **** 
 211:Core/Src/main.c ****   /* GPIO Ports Clock Enable */
 212:Core/Src/main.c ****   __HAL_RCC_GPIOC_CLK_ENABLE();
  46              		.loc 1 212 3 is_stmt 1 view .LVU3
  47              	.LVL0:
  48              	.LBB8:
  49              	.LBI8:
  50              		.file 2 "Drivers/STM32WLxx_HAL_Driver/Inc/stm32wlxx_ll_bus.h"
   1:Drivers/STM32WLxx_HAL_Driver/Inc/stm32wlxx_ll_bus.h **** /**
   2:Drivers/STM32WLxx_HAL_Driver/Inc/stm32wlxx_ll_bus.h ****   ******************************************************************************
   3:Drivers/STM32WLxx_HAL_Driver/Inc/stm32wlxx_ll_bus.h ****   * @file    stm32wlxx_ll_bus.h
   4:Drivers/STM32WLxx_HAL_Driver/Inc/stm32wlxx_ll_bus.h ****   * @author  MCD Application Team
   5:Drivers/STM32WLxx_HAL_Driver/Inc/stm32wlxx_ll_bus.h ****   * @brief   Header file of BUS LL module.
   6:Drivers/STM32WLxx_HAL_Driver/Inc/stm32wlxx_ll_bus.h ****   ******************************************************************************
   7:Drivers/STM32WLxx_HAL_Driver/Inc/stm32wlxx_ll_bus.h ****   * @attention
   8:Drivers/STM32WLxx_HAL_Driver/Inc/stm32wlxx_ll_bus.h ****   *
   9:Drivers/STM32WLxx_HAL_Driver/Inc/stm32wlxx_ll_bus.h ****   * Copyright (c) 2020 STMicroelectronics.
  10:Drivers/STM32WLxx_HAL_Driver/Inc/stm32wlxx_ll_bus.h ****   * All rights reserved.
  11:Drivers/STM32WLxx_HAL_Driver/Inc/stm32wlxx_ll_bus.h ****   *
  12:Drivers/STM32WLxx_HAL_Driver/Inc/stm32wlxx_ll_bus.h ****   * This software is licensed under terms that can be found in the LICENSE file
  13:Drivers/STM32WLxx_HAL_Driver/Inc/stm32wlxx_ll_bus.h ****   * in the root directory of this software component.
  14:Drivers/STM32WLxx_HAL_Driver/Inc/stm32wlxx_ll_bus.h ****   * If no LICENSE file comes with this software, it is provided AS-IS.
  15:Drivers/STM32WLxx_HAL_Driver/Inc/stm32wlxx_ll_bus.h ****   *
  16:Drivers/STM32WLxx_HAL_Driver/Inc/stm32wlxx_ll_bus.h ****   ******************************************************************************
  17:Drivers/STM32WLxx_HAL_Driver/Inc/stm32wlxx_ll_bus.h ****   @verbatim
  18:Drivers/STM32WLxx_HAL_Driver/Inc/stm32wlxx_ll_bus.h ****                       ##### RCC Limitations #####
  19:Drivers/STM32WLxx_HAL_Driver/Inc/stm32wlxx_ll_bus.h ****   ==============================================================================
  20:Drivers/STM32WLxx_HAL_Driver/Inc/stm32wlxx_ll_bus.h ****     [..]
  21:Drivers/STM32WLxx_HAL_Driver/Inc/stm32wlxx_ll_bus.h ****       A delay between an RCC peripheral clock enable and the effective peripheral
  22:Drivers/STM32WLxx_HAL_Driver/Inc/stm32wlxx_ll_bus.h ****       enabling should be taken into account in order to manage the peripheral read/write
  23:Drivers/STM32WLxx_HAL_Driver/Inc/stm32wlxx_ll_bus.h ****       from/to registers.w<
  24:Drivers/STM32WLxx_HAL_Driver/Inc/stm32wlxx_ll_bus.h ****       (+) This delay depends on the peripheral mapping.
ARM GAS  C:\Users\Lenovo\AppData\Local\Temp\ccuWeQNH.s 			page 6


  25:Drivers/STM32WLxx_HAL_Driver/Inc/stm32wlxx_ll_bus.h ****         (++) AHB & APB peripherals, 1 dummy read is necessary
  26:Drivers/STM32WLxx_HAL_Driver/Inc/stm32wlxx_ll_bus.h **** 
  27:Drivers/STM32WLxx_HAL_Driver/Inc/stm32wlxx_ll_bus.h ****     [..]
  28:Drivers/STM32WLxx_HAL_Driver/Inc/stm32wlxx_ll_bus.h ****       Workarounds:
  29:Drivers/STM32WLxx_HAL_Driver/Inc/stm32wlxx_ll_bus.h ****       (#) For AHB & APB peripherals, a dummy read to the peripheral register has been
  30:Drivers/STM32WLxx_HAL_Driver/Inc/stm32wlxx_ll_bus.h ****           inserted in each LL_{BUS}_GRP{x}_EnableClock() function.
  31:Drivers/STM32WLxx_HAL_Driver/Inc/stm32wlxx_ll_bus.h **** 
  32:Drivers/STM32WLxx_HAL_Driver/Inc/stm32wlxx_ll_bus.h ****   @endverbatim
  33:Drivers/STM32WLxx_HAL_Driver/Inc/stm32wlxx_ll_bus.h ****   ******************************************************************************
  34:Drivers/STM32WLxx_HAL_Driver/Inc/stm32wlxx_ll_bus.h ****   */
  35:Drivers/STM32WLxx_HAL_Driver/Inc/stm32wlxx_ll_bus.h **** 
  36:Drivers/STM32WLxx_HAL_Driver/Inc/stm32wlxx_ll_bus.h **** /* Define to prevent recursive inclusion -------------------------------------*/
  37:Drivers/STM32WLxx_HAL_Driver/Inc/stm32wlxx_ll_bus.h **** #ifndef __STM32WLxx_LL_BUS_H
  38:Drivers/STM32WLxx_HAL_Driver/Inc/stm32wlxx_ll_bus.h **** #define __STM32WLxx_LL_BUS_H
  39:Drivers/STM32WLxx_HAL_Driver/Inc/stm32wlxx_ll_bus.h **** 
  40:Drivers/STM32WLxx_HAL_Driver/Inc/stm32wlxx_ll_bus.h **** #ifdef __cplusplus
  41:Drivers/STM32WLxx_HAL_Driver/Inc/stm32wlxx_ll_bus.h **** extern "C" {
  42:Drivers/STM32WLxx_HAL_Driver/Inc/stm32wlxx_ll_bus.h **** #endif
  43:Drivers/STM32WLxx_HAL_Driver/Inc/stm32wlxx_ll_bus.h **** 
  44:Drivers/STM32WLxx_HAL_Driver/Inc/stm32wlxx_ll_bus.h **** /* Includes ------------------------------------------------------------------*/
  45:Drivers/STM32WLxx_HAL_Driver/Inc/stm32wlxx_ll_bus.h **** #include "stm32wlxx.h"
  46:Drivers/STM32WLxx_HAL_Driver/Inc/stm32wlxx_ll_bus.h **** 
  47:Drivers/STM32WLxx_HAL_Driver/Inc/stm32wlxx_ll_bus.h **** /** @addtogroup STM32WLxx_LL_Driver
  48:Drivers/STM32WLxx_HAL_Driver/Inc/stm32wlxx_ll_bus.h ****   * @{
  49:Drivers/STM32WLxx_HAL_Driver/Inc/stm32wlxx_ll_bus.h ****   */
  50:Drivers/STM32WLxx_HAL_Driver/Inc/stm32wlxx_ll_bus.h **** 
  51:Drivers/STM32WLxx_HAL_Driver/Inc/stm32wlxx_ll_bus.h **** #if defined(RCC)
  52:Drivers/STM32WLxx_HAL_Driver/Inc/stm32wlxx_ll_bus.h **** 
  53:Drivers/STM32WLxx_HAL_Driver/Inc/stm32wlxx_ll_bus.h **** /** @defgroup BUS_LL BUS
  54:Drivers/STM32WLxx_HAL_Driver/Inc/stm32wlxx_ll_bus.h ****   * @{
  55:Drivers/STM32WLxx_HAL_Driver/Inc/stm32wlxx_ll_bus.h ****   */
  56:Drivers/STM32WLxx_HAL_Driver/Inc/stm32wlxx_ll_bus.h **** 
  57:Drivers/STM32WLxx_HAL_Driver/Inc/stm32wlxx_ll_bus.h **** /* Private types -------------------------------------------------------------*/
  58:Drivers/STM32WLxx_HAL_Driver/Inc/stm32wlxx_ll_bus.h **** /* Private variables ---------------------------------------------------------*/
  59:Drivers/STM32WLxx_HAL_Driver/Inc/stm32wlxx_ll_bus.h **** 
  60:Drivers/STM32WLxx_HAL_Driver/Inc/stm32wlxx_ll_bus.h **** /* Private constants ---------------------------------------------------------*/
  61:Drivers/STM32WLxx_HAL_Driver/Inc/stm32wlxx_ll_bus.h **** 
  62:Drivers/STM32WLxx_HAL_Driver/Inc/stm32wlxx_ll_bus.h **** /* Private macros ------------------------------------------------------------*/
  63:Drivers/STM32WLxx_HAL_Driver/Inc/stm32wlxx_ll_bus.h **** 
  64:Drivers/STM32WLxx_HAL_Driver/Inc/stm32wlxx_ll_bus.h **** /* Exported types ------------------------------------------------------------*/
  65:Drivers/STM32WLxx_HAL_Driver/Inc/stm32wlxx_ll_bus.h **** 
  66:Drivers/STM32WLxx_HAL_Driver/Inc/stm32wlxx_ll_bus.h **** /* Exported constants --------------------------------------------------------*/
  67:Drivers/STM32WLxx_HAL_Driver/Inc/stm32wlxx_ll_bus.h **** /** @defgroup BUS_LL_Exported_Constants BUS Exported Constants
  68:Drivers/STM32WLxx_HAL_Driver/Inc/stm32wlxx_ll_bus.h ****   * @{
  69:Drivers/STM32WLxx_HAL_Driver/Inc/stm32wlxx_ll_bus.h ****   */
  70:Drivers/STM32WLxx_HAL_Driver/Inc/stm32wlxx_ll_bus.h **** 
  71:Drivers/STM32WLxx_HAL_Driver/Inc/stm32wlxx_ll_bus.h **** /** @defgroup BUS_LL_EC_AHB1_GRP1_PERIPH  AHB1 GRP1 PERIPH
  72:Drivers/STM32WLxx_HAL_Driver/Inc/stm32wlxx_ll_bus.h ****   * @{
  73:Drivers/STM32WLxx_HAL_Driver/Inc/stm32wlxx_ll_bus.h ****   */
  74:Drivers/STM32WLxx_HAL_Driver/Inc/stm32wlxx_ll_bus.h **** #define LL_AHB1_GRP1_PERIPH_ALL            (0xFFFFFFFFU)
  75:Drivers/STM32WLxx_HAL_Driver/Inc/stm32wlxx_ll_bus.h **** #define LL_AHB1_GRP1_PERIPH_DMA1           RCC_AHB1ENR_DMA1EN
  76:Drivers/STM32WLxx_HAL_Driver/Inc/stm32wlxx_ll_bus.h **** #define LL_AHB1_GRP1_PERIPH_DMA2           RCC_AHB1ENR_DMA2EN
  77:Drivers/STM32WLxx_HAL_Driver/Inc/stm32wlxx_ll_bus.h **** #define LL_AHB1_GRP1_PERIPH_DMAMUX1        RCC_AHB1ENR_DMAMUX1EN
  78:Drivers/STM32WLxx_HAL_Driver/Inc/stm32wlxx_ll_bus.h **** #define LL_AHB1_GRP1_PERIPH_CRC            RCC_AHB1ENR_CRCEN
  79:Drivers/STM32WLxx_HAL_Driver/Inc/stm32wlxx_ll_bus.h **** /**
  80:Drivers/STM32WLxx_HAL_Driver/Inc/stm32wlxx_ll_bus.h ****   * @}
  81:Drivers/STM32WLxx_HAL_Driver/Inc/stm32wlxx_ll_bus.h ****   */
ARM GAS  C:\Users\Lenovo\AppData\Local\Temp\ccuWeQNH.s 			page 7


  82:Drivers/STM32WLxx_HAL_Driver/Inc/stm32wlxx_ll_bus.h **** 
  83:Drivers/STM32WLxx_HAL_Driver/Inc/stm32wlxx_ll_bus.h **** /** @defgroup BUS_LL_EC_AHB2_GRP1_PERIPH  AHB2 GRP1 PERIPH
  84:Drivers/STM32WLxx_HAL_Driver/Inc/stm32wlxx_ll_bus.h ****   * @{
  85:Drivers/STM32WLxx_HAL_Driver/Inc/stm32wlxx_ll_bus.h ****   */
  86:Drivers/STM32WLxx_HAL_Driver/Inc/stm32wlxx_ll_bus.h **** #define LL_AHB2_GRP1_PERIPH_ALL            (0xFFFFFFFFU)
  87:Drivers/STM32WLxx_HAL_Driver/Inc/stm32wlxx_ll_bus.h **** #define LL_AHB2_GRP1_PERIPH_GPIOA          RCC_AHB2ENR_GPIOAEN
  88:Drivers/STM32WLxx_HAL_Driver/Inc/stm32wlxx_ll_bus.h **** #define LL_AHB2_GRP1_PERIPH_GPIOB          RCC_AHB2ENR_GPIOBEN
  89:Drivers/STM32WLxx_HAL_Driver/Inc/stm32wlxx_ll_bus.h **** #define LL_AHB2_GRP1_PERIPH_GPIOC          RCC_AHB2ENR_GPIOCEN
  90:Drivers/STM32WLxx_HAL_Driver/Inc/stm32wlxx_ll_bus.h **** #define LL_AHB2_GRP1_PERIPH_GPIOH          RCC_AHB2ENR_GPIOHEN
  91:Drivers/STM32WLxx_HAL_Driver/Inc/stm32wlxx_ll_bus.h **** /**
  92:Drivers/STM32WLxx_HAL_Driver/Inc/stm32wlxx_ll_bus.h ****   * @}
  93:Drivers/STM32WLxx_HAL_Driver/Inc/stm32wlxx_ll_bus.h ****   */
  94:Drivers/STM32WLxx_HAL_Driver/Inc/stm32wlxx_ll_bus.h **** 
  95:Drivers/STM32WLxx_HAL_Driver/Inc/stm32wlxx_ll_bus.h **** /** @defgroup BUS_LL_EC_AHB3_GRP1_PERIPH  AHB3 GRP1 PERIPH
  96:Drivers/STM32WLxx_HAL_Driver/Inc/stm32wlxx_ll_bus.h ****   * @{
  97:Drivers/STM32WLxx_HAL_Driver/Inc/stm32wlxx_ll_bus.h ****   */
  98:Drivers/STM32WLxx_HAL_Driver/Inc/stm32wlxx_ll_bus.h **** #define LL_AHB3_GRP1_PERIPH_ALL            (0xFFFFFFFFU)
  99:Drivers/STM32WLxx_HAL_Driver/Inc/stm32wlxx_ll_bus.h **** #define LL_AHB3_GRP1_PERIPH_PKA            RCC_AHB3ENR_PKAEN
 100:Drivers/STM32WLxx_HAL_Driver/Inc/stm32wlxx_ll_bus.h **** #define LL_AHB3_GRP1_PERIPH_AES            RCC_AHB3ENR_AESEN
 101:Drivers/STM32WLxx_HAL_Driver/Inc/stm32wlxx_ll_bus.h **** #define LL_AHB3_GRP1_PERIPH_RNG            RCC_AHB3ENR_RNGEN
 102:Drivers/STM32WLxx_HAL_Driver/Inc/stm32wlxx_ll_bus.h **** #define LL_AHB3_GRP1_PERIPH_HSEM           RCC_AHB3ENR_HSEMEN
 103:Drivers/STM32WLxx_HAL_Driver/Inc/stm32wlxx_ll_bus.h **** #if defined(DUAL_CORE)
 104:Drivers/STM32WLxx_HAL_Driver/Inc/stm32wlxx_ll_bus.h **** #define LL_AHB3_GRP1_PERIPH_IPCC           RCC_AHB3ENR_IPCCEN
 105:Drivers/STM32WLxx_HAL_Driver/Inc/stm32wlxx_ll_bus.h **** #endif /* DUAL_CORE */
 106:Drivers/STM32WLxx_HAL_Driver/Inc/stm32wlxx_ll_bus.h **** #define LL_AHB3_GRP1_PERIPH_SRAM1          RCC_AHB3SMENR_SRAM1SMEN
 107:Drivers/STM32WLxx_HAL_Driver/Inc/stm32wlxx_ll_bus.h **** #define LL_AHB3_GRP1_PERIPH_SRAM2          RCC_AHB3SMENR_SRAM2SMEN
 108:Drivers/STM32WLxx_HAL_Driver/Inc/stm32wlxx_ll_bus.h **** #define LL_AHB3_GRP1_PERIPH_FLASH          RCC_AHB3ENR_FLASHEN
 109:Drivers/STM32WLxx_HAL_Driver/Inc/stm32wlxx_ll_bus.h **** /**
 110:Drivers/STM32WLxx_HAL_Driver/Inc/stm32wlxx_ll_bus.h ****   * @}
 111:Drivers/STM32WLxx_HAL_Driver/Inc/stm32wlxx_ll_bus.h ****   */
 112:Drivers/STM32WLxx_HAL_Driver/Inc/stm32wlxx_ll_bus.h **** 
 113:Drivers/STM32WLxx_HAL_Driver/Inc/stm32wlxx_ll_bus.h **** /** @defgroup BUS_LL_EC_APB1_GRP1_PERIPH  APB1 GRP1 PERIPH
 114:Drivers/STM32WLxx_HAL_Driver/Inc/stm32wlxx_ll_bus.h ****   * @{
 115:Drivers/STM32WLxx_HAL_Driver/Inc/stm32wlxx_ll_bus.h ****   */
 116:Drivers/STM32WLxx_HAL_Driver/Inc/stm32wlxx_ll_bus.h **** #define LL_APB1_GRP1_PERIPH_ALL            (0xFFFFFFFFU)
 117:Drivers/STM32WLxx_HAL_Driver/Inc/stm32wlxx_ll_bus.h **** #define LL_APB1_GRP1_PERIPH_TIM2           RCC_APB1ENR1_TIM2EN
 118:Drivers/STM32WLxx_HAL_Driver/Inc/stm32wlxx_ll_bus.h **** #define LL_APB1_GRP1_PERIPH_RTCAPB         RCC_APB1ENR1_RTCAPBEN
 119:Drivers/STM32WLxx_HAL_Driver/Inc/stm32wlxx_ll_bus.h **** #define LL_APB1_GRP1_PERIPH_WWDG           RCC_APB1ENR1_WWDGEN
 120:Drivers/STM32WLxx_HAL_Driver/Inc/stm32wlxx_ll_bus.h **** #define LL_APB1_GRP1_PERIPH_SPI2           RCC_APB1ENR1_SPI2EN
 121:Drivers/STM32WLxx_HAL_Driver/Inc/stm32wlxx_ll_bus.h **** #define LL_APB1_GRP1_PERIPH_USART2         RCC_APB1ENR1_USART2EN
 122:Drivers/STM32WLxx_HAL_Driver/Inc/stm32wlxx_ll_bus.h **** #define LL_APB1_GRP1_PERIPH_I2C1           RCC_APB1ENR1_I2C1EN
 123:Drivers/STM32WLxx_HAL_Driver/Inc/stm32wlxx_ll_bus.h **** #define LL_APB1_GRP1_PERIPH_I2C2           RCC_APB1ENR1_I2C2EN
 124:Drivers/STM32WLxx_HAL_Driver/Inc/stm32wlxx_ll_bus.h **** #define LL_APB1_GRP1_PERIPH_I2C3           RCC_APB1ENR1_I2C3EN
 125:Drivers/STM32WLxx_HAL_Driver/Inc/stm32wlxx_ll_bus.h **** #define LL_APB1_GRP1_PERIPH_DAC            RCC_APB1ENR1_DACEN
 126:Drivers/STM32WLxx_HAL_Driver/Inc/stm32wlxx_ll_bus.h **** #define LL_APB1_GRP1_PERIPH_LPTIM1         RCC_APB1ENR1_LPTIM1EN
 127:Drivers/STM32WLxx_HAL_Driver/Inc/stm32wlxx_ll_bus.h **** /**
 128:Drivers/STM32WLxx_HAL_Driver/Inc/stm32wlxx_ll_bus.h ****   * @}
 129:Drivers/STM32WLxx_HAL_Driver/Inc/stm32wlxx_ll_bus.h ****   */
 130:Drivers/STM32WLxx_HAL_Driver/Inc/stm32wlxx_ll_bus.h **** 
 131:Drivers/STM32WLxx_HAL_Driver/Inc/stm32wlxx_ll_bus.h **** 
 132:Drivers/STM32WLxx_HAL_Driver/Inc/stm32wlxx_ll_bus.h **** /** @defgroup BUS_LL_EC_APB1_GRP2_PERIPH  APB1 GRP2 PERIPH
 133:Drivers/STM32WLxx_HAL_Driver/Inc/stm32wlxx_ll_bus.h ****   * @{
 134:Drivers/STM32WLxx_HAL_Driver/Inc/stm32wlxx_ll_bus.h ****   */
 135:Drivers/STM32WLxx_HAL_Driver/Inc/stm32wlxx_ll_bus.h **** #define LL_APB1_GRP2_PERIPH_ALL            (0xFFFFFFFFU)
 136:Drivers/STM32WLxx_HAL_Driver/Inc/stm32wlxx_ll_bus.h **** #define LL_APB1_GRP2_PERIPH_LPUART1        RCC_APB1ENR2_LPUART1EN
 137:Drivers/STM32WLxx_HAL_Driver/Inc/stm32wlxx_ll_bus.h **** #define LL_APB1_GRP2_PERIPH_LPTIM2         RCC_APB1ENR2_LPTIM2EN
 138:Drivers/STM32WLxx_HAL_Driver/Inc/stm32wlxx_ll_bus.h **** #define LL_APB1_GRP2_PERIPH_LPTIM3         RCC_APB1ENR2_LPTIM3EN
ARM GAS  C:\Users\Lenovo\AppData\Local\Temp\ccuWeQNH.s 			page 8


 139:Drivers/STM32WLxx_HAL_Driver/Inc/stm32wlxx_ll_bus.h **** /**
 140:Drivers/STM32WLxx_HAL_Driver/Inc/stm32wlxx_ll_bus.h ****   * @}
 141:Drivers/STM32WLxx_HAL_Driver/Inc/stm32wlxx_ll_bus.h ****   */
 142:Drivers/STM32WLxx_HAL_Driver/Inc/stm32wlxx_ll_bus.h **** 
 143:Drivers/STM32WLxx_HAL_Driver/Inc/stm32wlxx_ll_bus.h **** /** @defgroup BUS_LL_EC_APB2_GRP1_PERIPH  APB2 GRP1 PERIPH
 144:Drivers/STM32WLxx_HAL_Driver/Inc/stm32wlxx_ll_bus.h ****   * @{
 145:Drivers/STM32WLxx_HAL_Driver/Inc/stm32wlxx_ll_bus.h ****   */
 146:Drivers/STM32WLxx_HAL_Driver/Inc/stm32wlxx_ll_bus.h **** #define LL_APB2_GRP1_PERIPH_ALL            (0xFFFFFFFFU)
 147:Drivers/STM32WLxx_HAL_Driver/Inc/stm32wlxx_ll_bus.h **** #define LL_APB2_GRP1_PERIPH_ADC            RCC_APB2ENR_ADCEN
 148:Drivers/STM32WLxx_HAL_Driver/Inc/stm32wlxx_ll_bus.h **** #define LL_APB2_GRP1_PERIPH_TIM1           RCC_APB2ENR_TIM1EN
 149:Drivers/STM32WLxx_HAL_Driver/Inc/stm32wlxx_ll_bus.h **** #define LL_APB2_GRP1_PERIPH_SPI1           RCC_APB2ENR_SPI1EN
 150:Drivers/STM32WLxx_HAL_Driver/Inc/stm32wlxx_ll_bus.h **** #define LL_APB2_GRP1_PERIPH_USART1         RCC_APB2ENR_USART1EN
 151:Drivers/STM32WLxx_HAL_Driver/Inc/stm32wlxx_ll_bus.h **** #define LL_APB2_GRP1_PERIPH_TIM16          RCC_APB2ENR_TIM16EN
 152:Drivers/STM32WLxx_HAL_Driver/Inc/stm32wlxx_ll_bus.h **** #define LL_APB2_GRP1_PERIPH_TIM17          RCC_APB2ENR_TIM17EN
 153:Drivers/STM32WLxx_HAL_Driver/Inc/stm32wlxx_ll_bus.h **** /**
 154:Drivers/STM32WLxx_HAL_Driver/Inc/stm32wlxx_ll_bus.h ****   * @}
 155:Drivers/STM32WLxx_HAL_Driver/Inc/stm32wlxx_ll_bus.h ****   */
 156:Drivers/STM32WLxx_HAL_Driver/Inc/stm32wlxx_ll_bus.h **** 
 157:Drivers/STM32WLxx_HAL_Driver/Inc/stm32wlxx_ll_bus.h **** /** @defgroup BUS_LL_EC_APB3_GRP1_PERIPH  APB3 GRP1 PERIPH
 158:Drivers/STM32WLxx_HAL_Driver/Inc/stm32wlxx_ll_bus.h ****   * @{
 159:Drivers/STM32WLxx_HAL_Driver/Inc/stm32wlxx_ll_bus.h ****   */
 160:Drivers/STM32WLxx_HAL_Driver/Inc/stm32wlxx_ll_bus.h **** #define LL_APB3_GRP1_PERIPH_ALL            (0xFFFFFFFFU)
 161:Drivers/STM32WLxx_HAL_Driver/Inc/stm32wlxx_ll_bus.h **** #define LL_APB3_GRP1_PERIPH_SUBGHZSPI      RCC_APB3ENR_SUBGHZSPIEN
 162:Drivers/STM32WLxx_HAL_Driver/Inc/stm32wlxx_ll_bus.h **** /**
 163:Drivers/STM32WLxx_HAL_Driver/Inc/stm32wlxx_ll_bus.h ****   * @}
 164:Drivers/STM32WLxx_HAL_Driver/Inc/stm32wlxx_ll_bus.h ****   */
 165:Drivers/STM32WLxx_HAL_Driver/Inc/stm32wlxx_ll_bus.h **** 
 166:Drivers/STM32WLxx_HAL_Driver/Inc/stm32wlxx_ll_bus.h **** #if defined(DUAL_CORE)
 167:Drivers/STM32WLxx_HAL_Driver/Inc/stm32wlxx_ll_bus.h **** /** @defgroup BUS_LL_EC_C2_AHB1_GRP1_PERIPH  C2 AHB1 GRP1 PERIPH
 168:Drivers/STM32WLxx_HAL_Driver/Inc/stm32wlxx_ll_bus.h ****   * @{
 169:Drivers/STM32WLxx_HAL_Driver/Inc/stm32wlxx_ll_bus.h ****   */
 170:Drivers/STM32WLxx_HAL_Driver/Inc/stm32wlxx_ll_bus.h **** #define LL_C2_AHB1_GRP1_PERIPH_DMA1         RCC_C2AHB1ENR_DMA1EN
 171:Drivers/STM32WLxx_HAL_Driver/Inc/stm32wlxx_ll_bus.h **** #define LL_C2_AHB1_GRP1_PERIPH_DMA2         RCC_C2AHB1ENR_DMA2EN
 172:Drivers/STM32WLxx_HAL_Driver/Inc/stm32wlxx_ll_bus.h **** #define LL_C2_AHB1_GRP1_PERIPH_DMAMUX1      RCC_C2AHB1ENR_DMAMUX1EN
 173:Drivers/STM32WLxx_HAL_Driver/Inc/stm32wlxx_ll_bus.h **** #define LL_C2_AHB1_GRP1_PERIPH_CRC          RCC_C2AHB1ENR_CRCEN
 174:Drivers/STM32WLxx_HAL_Driver/Inc/stm32wlxx_ll_bus.h **** /**
 175:Drivers/STM32WLxx_HAL_Driver/Inc/stm32wlxx_ll_bus.h ****   * @}
 176:Drivers/STM32WLxx_HAL_Driver/Inc/stm32wlxx_ll_bus.h ****   */
 177:Drivers/STM32WLxx_HAL_Driver/Inc/stm32wlxx_ll_bus.h **** 
 178:Drivers/STM32WLxx_HAL_Driver/Inc/stm32wlxx_ll_bus.h **** 
 179:Drivers/STM32WLxx_HAL_Driver/Inc/stm32wlxx_ll_bus.h **** /** @defgroup BUS_LL_EC_C2_AHB2_GRP1_PERIPH  C2 AHB2 GRP1 PERIPH
 180:Drivers/STM32WLxx_HAL_Driver/Inc/stm32wlxx_ll_bus.h ****   * @{
 181:Drivers/STM32WLxx_HAL_Driver/Inc/stm32wlxx_ll_bus.h ****   */
 182:Drivers/STM32WLxx_HAL_Driver/Inc/stm32wlxx_ll_bus.h **** #define LL_C2_AHB2_GRP1_PERIPH_GPIOA        RCC_C2AHB2ENR_GPIOAEN
 183:Drivers/STM32WLxx_HAL_Driver/Inc/stm32wlxx_ll_bus.h **** #define LL_C2_AHB2_GRP1_PERIPH_GPIOB        RCC_C2AHB2ENR_GPIOBEN
 184:Drivers/STM32WLxx_HAL_Driver/Inc/stm32wlxx_ll_bus.h **** #define LL_C2_AHB2_GRP1_PERIPH_GPIOC        RCC_C2AHB2ENR_GPIOCEN
 185:Drivers/STM32WLxx_HAL_Driver/Inc/stm32wlxx_ll_bus.h **** #define LL_C2_AHB2_GRP1_PERIPH_GPIOH        RCC_C2AHB2ENR_GPIOHEN
 186:Drivers/STM32WLxx_HAL_Driver/Inc/stm32wlxx_ll_bus.h **** /**
 187:Drivers/STM32WLxx_HAL_Driver/Inc/stm32wlxx_ll_bus.h ****   * @}
 188:Drivers/STM32WLxx_HAL_Driver/Inc/stm32wlxx_ll_bus.h ****   */
 189:Drivers/STM32WLxx_HAL_Driver/Inc/stm32wlxx_ll_bus.h **** 
 190:Drivers/STM32WLxx_HAL_Driver/Inc/stm32wlxx_ll_bus.h **** 
 191:Drivers/STM32WLxx_HAL_Driver/Inc/stm32wlxx_ll_bus.h **** /** @defgroup BUS_LL_EC_C2_AHB3_GRP1_PERIPH  C2 AHB3 GRP1 PERIPH
 192:Drivers/STM32WLxx_HAL_Driver/Inc/stm32wlxx_ll_bus.h ****   * @{
 193:Drivers/STM32WLxx_HAL_Driver/Inc/stm32wlxx_ll_bus.h ****   */
 194:Drivers/STM32WLxx_HAL_Driver/Inc/stm32wlxx_ll_bus.h **** #define LL_C2_AHB3_GRP1_PERIPH_PKA          RCC_C2AHB3ENR_PKAEN
 195:Drivers/STM32WLxx_HAL_Driver/Inc/stm32wlxx_ll_bus.h **** #define LL_C2_AHB3_GRP1_PERIPH_AES          RCC_C2AHB3ENR_AESEN
ARM GAS  C:\Users\Lenovo\AppData\Local\Temp\ccuWeQNH.s 			page 9


 196:Drivers/STM32WLxx_HAL_Driver/Inc/stm32wlxx_ll_bus.h **** #define LL_C2_AHB3_GRP1_PERIPH_RNG          RCC_C2AHB3ENR_RNGEN
 197:Drivers/STM32WLxx_HAL_Driver/Inc/stm32wlxx_ll_bus.h **** #define LL_C2_AHB3_GRP1_PERIPH_HSEM         RCC_C2AHB3ENR_HSEMEN
 198:Drivers/STM32WLxx_HAL_Driver/Inc/stm32wlxx_ll_bus.h **** #define LL_C2_AHB3_GRP1_PERIPH_IPCC         RCC_C2AHB3ENR_IPCCEN
 199:Drivers/STM32WLxx_HAL_Driver/Inc/stm32wlxx_ll_bus.h **** #define LL_C2_AHB3_GRP1_PERIPH_FLASH        RCC_C2AHB3ENR_FLASHEN
 200:Drivers/STM32WLxx_HAL_Driver/Inc/stm32wlxx_ll_bus.h **** #define LL_C2_AHB3_GRP1_PERIPH_SRAM1        RCC_C2AHB3SMENR_SRAM1SMEN
 201:Drivers/STM32WLxx_HAL_Driver/Inc/stm32wlxx_ll_bus.h **** #define LL_C2_AHB3_GRP1_PERIPH_SRAM2        RCC_C2AHB3SMENR_SRAM2SMEN
 202:Drivers/STM32WLxx_HAL_Driver/Inc/stm32wlxx_ll_bus.h **** /**
 203:Drivers/STM32WLxx_HAL_Driver/Inc/stm32wlxx_ll_bus.h ****   * @}
 204:Drivers/STM32WLxx_HAL_Driver/Inc/stm32wlxx_ll_bus.h ****   */
 205:Drivers/STM32WLxx_HAL_Driver/Inc/stm32wlxx_ll_bus.h **** 
 206:Drivers/STM32WLxx_HAL_Driver/Inc/stm32wlxx_ll_bus.h **** 
 207:Drivers/STM32WLxx_HAL_Driver/Inc/stm32wlxx_ll_bus.h **** /** @defgroup BUS_LL_EC_C2_APB1_GRP1_PERIPH  C2 APB1 GRP1 PERIPH
 208:Drivers/STM32WLxx_HAL_Driver/Inc/stm32wlxx_ll_bus.h ****   * @{
 209:Drivers/STM32WLxx_HAL_Driver/Inc/stm32wlxx_ll_bus.h ****   */
 210:Drivers/STM32WLxx_HAL_Driver/Inc/stm32wlxx_ll_bus.h **** #define LL_C2_APB1_GRP1_PERIPH_TIM2         RCC_C2APB1ENR1_TIM2EN
 211:Drivers/STM32WLxx_HAL_Driver/Inc/stm32wlxx_ll_bus.h **** #define LL_C2_APB1_GRP1_PERIPH_RTCAPB       RCC_C2APB1ENR1_RTCAPBEN
 212:Drivers/STM32WLxx_HAL_Driver/Inc/stm32wlxx_ll_bus.h **** #define LL_C2_APB1_GRP1_PERIPH_SPI2         RCC_C2APB1ENR1_SPI2EN
 213:Drivers/STM32WLxx_HAL_Driver/Inc/stm32wlxx_ll_bus.h **** #define LL_C2_APB1_GRP1_PERIPH_USART2       RCC_C2APB1ENR1_USART2EN
 214:Drivers/STM32WLxx_HAL_Driver/Inc/stm32wlxx_ll_bus.h **** #define LL_C2_APB1_GRP1_PERIPH_I2C1         RCC_C2APB1ENR1_I2C1EN
 215:Drivers/STM32WLxx_HAL_Driver/Inc/stm32wlxx_ll_bus.h **** #define LL_C2_APB1_GRP1_PERIPH_I2C2         RCC_C2APB1ENR1_I2C2EN
 216:Drivers/STM32WLxx_HAL_Driver/Inc/stm32wlxx_ll_bus.h **** #define LL_C2_APB1_GRP1_PERIPH_I2C3         RCC_C2APB1ENR1_I2C3EN
 217:Drivers/STM32WLxx_HAL_Driver/Inc/stm32wlxx_ll_bus.h **** #define LL_C2_APB1_GRP1_PERIPH_DAC          RCC_C2APB1ENR1_DACEN
 218:Drivers/STM32WLxx_HAL_Driver/Inc/stm32wlxx_ll_bus.h **** #define LL_C2_APB1_GRP1_PERIPH_LPTIM1       RCC_C2APB1ENR1_LPTIM1EN
 219:Drivers/STM32WLxx_HAL_Driver/Inc/stm32wlxx_ll_bus.h **** /**
 220:Drivers/STM32WLxx_HAL_Driver/Inc/stm32wlxx_ll_bus.h ****   * @}
 221:Drivers/STM32WLxx_HAL_Driver/Inc/stm32wlxx_ll_bus.h ****   */
 222:Drivers/STM32WLxx_HAL_Driver/Inc/stm32wlxx_ll_bus.h **** 
 223:Drivers/STM32WLxx_HAL_Driver/Inc/stm32wlxx_ll_bus.h **** 
 224:Drivers/STM32WLxx_HAL_Driver/Inc/stm32wlxx_ll_bus.h **** /** @defgroup BUS_LL_EC_C2_APB1_GRP2_PERIPH  C2 APB1 GRP2 PERIPH
 225:Drivers/STM32WLxx_HAL_Driver/Inc/stm32wlxx_ll_bus.h ****   * @{
 226:Drivers/STM32WLxx_HAL_Driver/Inc/stm32wlxx_ll_bus.h ****   */
 227:Drivers/STM32WLxx_HAL_Driver/Inc/stm32wlxx_ll_bus.h **** #define LL_C2_APB1_GRP2_PERIPH_LPUART1      RCC_C2APB1ENR2_LPUART1EN
 228:Drivers/STM32WLxx_HAL_Driver/Inc/stm32wlxx_ll_bus.h **** #define LL_C2_APB1_GRP2_PERIPH_LPTIM2       RCC_C2APB1ENR2_LPTIM2EN
 229:Drivers/STM32WLxx_HAL_Driver/Inc/stm32wlxx_ll_bus.h **** #define LL_C2_APB1_GRP2_PERIPH_LPTIM3       RCC_C2APB1ENR2_LPTIM3EN
 230:Drivers/STM32WLxx_HAL_Driver/Inc/stm32wlxx_ll_bus.h **** /**
 231:Drivers/STM32WLxx_HAL_Driver/Inc/stm32wlxx_ll_bus.h ****   * @}
 232:Drivers/STM32WLxx_HAL_Driver/Inc/stm32wlxx_ll_bus.h ****   */
 233:Drivers/STM32WLxx_HAL_Driver/Inc/stm32wlxx_ll_bus.h **** 
 234:Drivers/STM32WLxx_HAL_Driver/Inc/stm32wlxx_ll_bus.h **** 
 235:Drivers/STM32WLxx_HAL_Driver/Inc/stm32wlxx_ll_bus.h **** /** @defgroup BUS_LL_EC_C2_APB2_GRP1_PERIPH  C2 APB2 GRP1 PERIPH
 236:Drivers/STM32WLxx_HAL_Driver/Inc/stm32wlxx_ll_bus.h ****   * @{
 237:Drivers/STM32WLxx_HAL_Driver/Inc/stm32wlxx_ll_bus.h ****   */
 238:Drivers/STM32WLxx_HAL_Driver/Inc/stm32wlxx_ll_bus.h **** #define LL_C2_APB2_GRP1_PERIPH_ADC          RCC_C2APB2ENR_ADCEN
 239:Drivers/STM32WLxx_HAL_Driver/Inc/stm32wlxx_ll_bus.h **** #define LL_C2_APB2_GRP1_PERIPH_TIM1         RCC_C2APB2ENR_TIM1EN
 240:Drivers/STM32WLxx_HAL_Driver/Inc/stm32wlxx_ll_bus.h **** #define LL_C2_APB2_GRP1_PERIPH_SPI1         RCC_C2APB2ENR_SPI1EN
 241:Drivers/STM32WLxx_HAL_Driver/Inc/stm32wlxx_ll_bus.h **** #define LL_C2_APB2_GRP1_PERIPH_USART1       RCC_C2APB2ENR_USART1EN
 242:Drivers/STM32WLxx_HAL_Driver/Inc/stm32wlxx_ll_bus.h **** #define LL_C2_APB2_GRP1_PERIPH_TIM16        RCC_C2APB2ENR_TIM16EN
 243:Drivers/STM32WLxx_HAL_Driver/Inc/stm32wlxx_ll_bus.h **** #define LL_C2_APB2_GRP1_PERIPH_TIM17        RCC_C2APB2ENR_TIM17EN
 244:Drivers/STM32WLxx_HAL_Driver/Inc/stm32wlxx_ll_bus.h **** /**
 245:Drivers/STM32WLxx_HAL_Driver/Inc/stm32wlxx_ll_bus.h ****   * @}
 246:Drivers/STM32WLxx_HAL_Driver/Inc/stm32wlxx_ll_bus.h ****   */
 247:Drivers/STM32WLxx_HAL_Driver/Inc/stm32wlxx_ll_bus.h **** 
 248:Drivers/STM32WLxx_HAL_Driver/Inc/stm32wlxx_ll_bus.h **** 
 249:Drivers/STM32WLxx_HAL_Driver/Inc/stm32wlxx_ll_bus.h **** /** @defgroup BUS_LL_EC_C2_APB3_GRP1_PERIPH  C2 APB3 GRP1 PERIPH
 250:Drivers/STM32WLxx_HAL_Driver/Inc/stm32wlxx_ll_bus.h ****   * @{
 251:Drivers/STM32WLxx_HAL_Driver/Inc/stm32wlxx_ll_bus.h ****   */
 252:Drivers/STM32WLxx_HAL_Driver/Inc/stm32wlxx_ll_bus.h **** #define LL_C2_APB3_GRP1_PERIPH_SUBGHZSPI    RCC_C2APB3ENR_SUBGHZSPIEN
ARM GAS  C:\Users\Lenovo\AppData\Local\Temp\ccuWeQNH.s 			page 10


 253:Drivers/STM32WLxx_HAL_Driver/Inc/stm32wlxx_ll_bus.h **** /**
 254:Drivers/STM32WLxx_HAL_Driver/Inc/stm32wlxx_ll_bus.h ****   * @}
 255:Drivers/STM32WLxx_HAL_Driver/Inc/stm32wlxx_ll_bus.h ****   */
 256:Drivers/STM32WLxx_HAL_Driver/Inc/stm32wlxx_ll_bus.h **** #endif /* DUAL_CORE */
 257:Drivers/STM32WLxx_HAL_Driver/Inc/stm32wlxx_ll_bus.h **** 
 258:Drivers/STM32WLxx_HAL_Driver/Inc/stm32wlxx_ll_bus.h **** /**
 259:Drivers/STM32WLxx_HAL_Driver/Inc/stm32wlxx_ll_bus.h ****   * @}
 260:Drivers/STM32WLxx_HAL_Driver/Inc/stm32wlxx_ll_bus.h ****   */
 261:Drivers/STM32WLxx_HAL_Driver/Inc/stm32wlxx_ll_bus.h **** 
 262:Drivers/STM32WLxx_HAL_Driver/Inc/stm32wlxx_ll_bus.h **** /* Exported macro ------------------------------------------------------------*/
 263:Drivers/STM32WLxx_HAL_Driver/Inc/stm32wlxx_ll_bus.h **** 
 264:Drivers/STM32WLxx_HAL_Driver/Inc/stm32wlxx_ll_bus.h **** /* Exported functions --------------------------------------------------------*/
 265:Drivers/STM32WLxx_HAL_Driver/Inc/stm32wlxx_ll_bus.h **** 
 266:Drivers/STM32WLxx_HAL_Driver/Inc/stm32wlxx_ll_bus.h **** /** @defgroup BUS_LL_Exported_Functions BUS Exported Functions
 267:Drivers/STM32WLxx_HAL_Driver/Inc/stm32wlxx_ll_bus.h ****   * @{
 268:Drivers/STM32WLxx_HAL_Driver/Inc/stm32wlxx_ll_bus.h ****   */
 269:Drivers/STM32WLxx_HAL_Driver/Inc/stm32wlxx_ll_bus.h **** 
 270:Drivers/STM32WLxx_HAL_Driver/Inc/stm32wlxx_ll_bus.h **** /** @defgroup BUS_LL_EF_AHB1 AHB1
 271:Drivers/STM32WLxx_HAL_Driver/Inc/stm32wlxx_ll_bus.h ****   * @{
 272:Drivers/STM32WLxx_HAL_Driver/Inc/stm32wlxx_ll_bus.h ****   */
 273:Drivers/STM32WLxx_HAL_Driver/Inc/stm32wlxx_ll_bus.h **** 
 274:Drivers/STM32WLxx_HAL_Driver/Inc/stm32wlxx_ll_bus.h **** /**
 275:Drivers/STM32WLxx_HAL_Driver/Inc/stm32wlxx_ll_bus.h ****   * @brief  Enable AHB1 peripherals clock.
 276:Drivers/STM32WLxx_HAL_Driver/Inc/stm32wlxx_ll_bus.h ****   * @rmtoll AHB1ENR      DMA1EN        LL_AHB1_GRP1_EnableClock\n
 277:Drivers/STM32WLxx_HAL_Driver/Inc/stm32wlxx_ll_bus.h ****   *         AHB1ENR      DMA2EN        LL_AHB1_GRP1_EnableClock\n
 278:Drivers/STM32WLxx_HAL_Driver/Inc/stm32wlxx_ll_bus.h ****   *         AHB1ENR      DMAMUX1EN     LL_AHB1_GRP1_EnableClock\n
 279:Drivers/STM32WLxx_HAL_Driver/Inc/stm32wlxx_ll_bus.h ****   *         AHB1ENR      CRCEN         LL_AHB1_GRP1_EnableClock\n
 280:Drivers/STM32WLxx_HAL_Driver/Inc/stm32wlxx_ll_bus.h ****   * @param  Periphs This parameter can be a combination of the following values:
 281:Drivers/STM32WLxx_HAL_Driver/Inc/stm32wlxx_ll_bus.h ****   *         @arg @ref LL_AHB1_GRP1_PERIPH_DMA1
 282:Drivers/STM32WLxx_HAL_Driver/Inc/stm32wlxx_ll_bus.h ****   *         @arg @ref LL_AHB1_GRP1_PERIPH_DMA2
 283:Drivers/STM32WLxx_HAL_Driver/Inc/stm32wlxx_ll_bus.h ****   *         @arg @ref LL_AHB1_GRP1_PERIPH_DMAMUX1
 284:Drivers/STM32WLxx_HAL_Driver/Inc/stm32wlxx_ll_bus.h ****   *         @arg @ref LL_AHB1_GRP1_PERIPH_CRC
 285:Drivers/STM32WLxx_HAL_Driver/Inc/stm32wlxx_ll_bus.h ****   * @retval None
 286:Drivers/STM32WLxx_HAL_Driver/Inc/stm32wlxx_ll_bus.h ****   */
 287:Drivers/STM32WLxx_HAL_Driver/Inc/stm32wlxx_ll_bus.h **** __STATIC_INLINE void LL_AHB1_GRP1_EnableClock(uint32_t Periphs)
 288:Drivers/STM32WLxx_HAL_Driver/Inc/stm32wlxx_ll_bus.h **** {
 289:Drivers/STM32WLxx_HAL_Driver/Inc/stm32wlxx_ll_bus.h ****   __IO uint32_t tmpreg;
 290:Drivers/STM32WLxx_HAL_Driver/Inc/stm32wlxx_ll_bus.h ****   SET_BIT(RCC->AHB1ENR, Periphs);
 291:Drivers/STM32WLxx_HAL_Driver/Inc/stm32wlxx_ll_bus.h ****   /* Delay after an RCC peripheral clock enabling */
 292:Drivers/STM32WLxx_HAL_Driver/Inc/stm32wlxx_ll_bus.h ****   tmpreg = READ_BIT(RCC->AHB1ENR, Periphs);
 293:Drivers/STM32WLxx_HAL_Driver/Inc/stm32wlxx_ll_bus.h ****   (void)tmpreg;
 294:Drivers/STM32WLxx_HAL_Driver/Inc/stm32wlxx_ll_bus.h **** }
 295:Drivers/STM32WLxx_HAL_Driver/Inc/stm32wlxx_ll_bus.h **** 
 296:Drivers/STM32WLxx_HAL_Driver/Inc/stm32wlxx_ll_bus.h **** /**
 297:Drivers/STM32WLxx_HAL_Driver/Inc/stm32wlxx_ll_bus.h ****   * @brief  Check if AHB1 peripheral clock is enabled or not
 298:Drivers/STM32WLxx_HAL_Driver/Inc/stm32wlxx_ll_bus.h ****   * @rmtoll AHB1ENR      DMA1EN        LL_AHB1_GRP1_IsEnabledClock\n
 299:Drivers/STM32WLxx_HAL_Driver/Inc/stm32wlxx_ll_bus.h ****   *         AHB1ENR      DMA2EN        LL_AHB1_GRP1_IsEnabledClock\n
 300:Drivers/STM32WLxx_HAL_Driver/Inc/stm32wlxx_ll_bus.h ****   *         AHB1ENR      DMAMUX1EN     LL_AHB1_GRP1_IsEnabledClock\n
 301:Drivers/STM32WLxx_HAL_Driver/Inc/stm32wlxx_ll_bus.h ****   *         AHB1ENR      CRCEN         LL_AHB1_GRP1_IsEnabledClock\n
 302:Drivers/STM32WLxx_HAL_Driver/Inc/stm32wlxx_ll_bus.h ****   * @param  Periphs This parameter can be a combination of the following values:
 303:Drivers/STM32WLxx_HAL_Driver/Inc/stm32wlxx_ll_bus.h ****   *         @arg @ref LL_AHB1_GRP1_PERIPH_DMA1
 304:Drivers/STM32WLxx_HAL_Driver/Inc/stm32wlxx_ll_bus.h ****   *         @arg @ref LL_AHB1_GRP1_PERIPH_DMA2
 305:Drivers/STM32WLxx_HAL_Driver/Inc/stm32wlxx_ll_bus.h ****   *         @arg @ref LL_AHB1_GRP1_PERIPH_DMAMUX1
 306:Drivers/STM32WLxx_HAL_Driver/Inc/stm32wlxx_ll_bus.h ****   *         @arg @ref LL_AHB1_GRP1_PERIPH_CRC
 307:Drivers/STM32WLxx_HAL_Driver/Inc/stm32wlxx_ll_bus.h ****   * @retval uint32_t
 308:Drivers/STM32WLxx_HAL_Driver/Inc/stm32wlxx_ll_bus.h ****   */
 309:Drivers/STM32WLxx_HAL_Driver/Inc/stm32wlxx_ll_bus.h **** __STATIC_INLINE uint32_t LL_AHB1_GRP1_IsEnabledClock(uint32_t Periphs)
ARM GAS  C:\Users\Lenovo\AppData\Local\Temp\ccuWeQNH.s 			page 11


 310:Drivers/STM32WLxx_HAL_Driver/Inc/stm32wlxx_ll_bus.h **** {
 311:Drivers/STM32WLxx_HAL_Driver/Inc/stm32wlxx_ll_bus.h ****   return ((READ_BIT(RCC->AHB1ENR, Periphs) == (Periphs)) ? 1UL : 0UL);
 312:Drivers/STM32WLxx_HAL_Driver/Inc/stm32wlxx_ll_bus.h **** }
 313:Drivers/STM32WLxx_HAL_Driver/Inc/stm32wlxx_ll_bus.h **** 
 314:Drivers/STM32WLxx_HAL_Driver/Inc/stm32wlxx_ll_bus.h **** /**
 315:Drivers/STM32WLxx_HAL_Driver/Inc/stm32wlxx_ll_bus.h ****   * @brief  Disable AHB1 peripherals clock.
 316:Drivers/STM32WLxx_HAL_Driver/Inc/stm32wlxx_ll_bus.h ****   * @rmtoll AHB1ENR      DMA1EN        LL_AHB1_GRP1_DisableClock\n
 317:Drivers/STM32WLxx_HAL_Driver/Inc/stm32wlxx_ll_bus.h ****   *         AHB1ENR      DMA2EN        LL_AHB1_GRP1_DisableClock\n
 318:Drivers/STM32WLxx_HAL_Driver/Inc/stm32wlxx_ll_bus.h ****   *         AHB1ENR      DMAMUX1EN     LL_AHB1_GRP1_DisableClock\n
 319:Drivers/STM32WLxx_HAL_Driver/Inc/stm32wlxx_ll_bus.h ****   *         AHB1ENR      CRCEN         LL_AHB1_GRP1_DisableClock\n
 320:Drivers/STM32WLxx_HAL_Driver/Inc/stm32wlxx_ll_bus.h ****   * @param  Periphs This parameter can be a combination of the following values:
 321:Drivers/STM32WLxx_HAL_Driver/Inc/stm32wlxx_ll_bus.h ****   *         @arg @ref LL_AHB1_GRP1_PERIPH_DMA1
 322:Drivers/STM32WLxx_HAL_Driver/Inc/stm32wlxx_ll_bus.h ****   *         @arg @ref LL_AHB1_GRP1_PERIPH_DMA2
 323:Drivers/STM32WLxx_HAL_Driver/Inc/stm32wlxx_ll_bus.h ****   *         @arg @ref LL_AHB1_GRP1_PERIPH_DMAMUX1
 324:Drivers/STM32WLxx_HAL_Driver/Inc/stm32wlxx_ll_bus.h ****   *         @arg @ref LL_AHB1_GRP1_PERIPH_CRC
 325:Drivers/STM32WLxx_HAL_Driver/Inc/stm32wlxx_ll_bus.h ****   * @retval None
 326:Drivers/STM32WLxx_HAL_Driver/Inc/stm32wlxx_ll_bus.h ****   */
 327:Drivers/STM32WLxx_HAL_Driver/Inc/stm32wlxx_ll_bus.h **** __STATIC_INLINE void LL_AHB1_GRP1_DisableClock(uint32_t Periphs)
 328:Drivers/STM32WLxx_HAL_Driver/Inc/stm32wlxx_ll_bus.h **** {
 329:Drivers/STM32WLxx_HAL_Driver/Inc/stm32wlxx_ll_bus.h ****   CLEAR_BIT(RCC->AHB1ENR, Periphs);
 330:Drivers/STM32WLxx_HAL_Driver/Inc/stm32wlxx_ll_bus.h **** }
 331:Drivers/STM32WLxx_HAL_Driver/Inc/stm32wlxx_ll_bus.h **** 
 332:Drivers/STM32WLxx_HAL_Driver/Inc/stm32wlxx_ll_bus.h **** /**
 333:Drivers/STM32WLxx_HAL_Driver/Inc/stm32wlxx_ll_bus.h ****   * @brief  Force AHB1 peripherals reset.
 334:Drivers/STM32WLxx_HAL_Driver/Inc/stm32wlxx_ll_bus.h ****   * @rmtoll AHB1RSTR     DMA1RST       LL_AHB1_GRP1_ForceReset\n
 335:Drivers/STM32WLxx_HAL_Driver/Inc/stm32wlxx_ll_bus.h ****   *         AHB1RSTR     DMA2RST       LL_AHB1_GRP1_ForceReset\n
 336:Drivers/STM32WLxx_HAL_Driver/Inc/stm32wlxx_ll_bus.h ****   *         AHB1RSTR     DMAMUX1RST    LL_AHB1_GRP1_ForceReset\n
 337:Drivers/STM32WLxx_HAL_Driver/Inc/stm32wlxx_ll_bus.h ****   *         AHB1RSTR     CRCRST        LL_AHB1_GRP1_ForceReset\n
 338:Drivers/STM32WLxx_HAL_Driver/Inc/stm32wlxx_ll_bus.h ****   * @param  Periphs This parameter can be a combination of the following values:
 339:Drivers/STM32WLxx_HAL_Driver/Inc/stm32wlxx_ll_bus.h ****   *         @arg @ref LL_AHB1_GRP1_PERIPH_ALL
 340:Drivers/STM32WLxx_HAL_Driver/Inc/stm32wlxx_ll_bus.h ****   *         @arg @ref LL_AHB1_GRP1_PERIPH_DMA1
 341:Drivers/STM32WLxx_HAL_Driver/Inc/stm32wlxx_ll_bus.h ****   *         @arg @ref LL_AHB1_GRP1_PERIPH_DMA2
 342:Drivers/STM32WLxx_HAL_Driver/Inc/stm32wlxx_ll_bus.h ****   *         @arg @ref LL_AHB1_GRP1_PERIPH_DMAMUX1
 343:Drivers/STM32WLxx_HAL_Driver/Inc/stm32wlxx_ll_bus.h ****   *         @arg @ref LL_AHB1_GRP1_PERIPH_CRC
 344:Drivers/STM32WLxx_HAL_Driver/Inc/stm32wlxx_ll_bus.h ****   * @retval None
 345:Drivers/STM32WLxx_HAL_Driver/Inc/stm32wlxx_ll_bus.h ****   */
 346:Drivers/STM32WLxx_HAL_Driver/Inc/stm32wlxx_ll_bus.h **** __STATIC_INLINE void LL_AHB1_GRP1_ForceReset(uint32_t Periphs)
 347:Drivers/STM32WLxx_HAL_Driver/Inc/stm32wlxx_ll_bus.h **** {
 348:Drivers/STM32WLxx_HAL_Driver/Inc/stm32wlxx_ll_bus.h ****   SET_BIT(RCC->AHB1RSTR, Periphs);
 349:Drivers/STM32WLxx_HAL_Driver/Inc/stm32wlxx_ll_bus.h **** }
 350:Drivers/STM32WLxx_HAL_Driver/Inc/stm32wlxx_ll_bus.h **** 
 351:Drivers/STM32WLxx_HAL_Driver/Inc/stm32wlxx_ll_bus.h **** /**
 352:Drivers/STM32WLxx_HAL_Driver/Inc/stm32wlxx_ll_bus.h ****   * @brief  Release AHB1 peripherals reset.
 353:Drivers/STM32WLxx_HAL_Driver/Inc/stm32wlxx_ll_bus.h ****   * @rmtoll AHB1RSTR     DMA1RST       LL_AHB1_GRP1_ReleaseReset\n
 354:Drivers/STM32WLxx_HAL_Driver/Inc/stm32wlxx_ll_bus.h ****   *         AHB1RSTR     DMA2RST       LL_AHB1_GRP1_ReleaseReset\n
 355:Drivers/STM32WLxx_HAL_Driver/Inc/stm32wlxx_ll_bus.h ****   *         AHB1RSTR     DMAMUX1RST     LL_AHB1_GRP1_ReleaseReset\n
 356:Drivers/STM32WLxx_HAL_Driver/Inc/stm32wlxx_ll_bus.h ****   *         AHB1RSTR     CRCRST        LL_AHB1_GRP1_ReleaseReset\n
 357:Drivers/STM32WLxx_HAL_Driver/Inc/stm32wlxx_ll_bus.h ****   * @param  Periphs This parameter can be a combination of the following values:
 358:Drivers/STM32WLxx_HAL_Driver/Inc/stm32wlxx_ll_bus.h ****   *         @arg @ref LL_AHB1_GRP1_PERIPH_ALL
 359:Drivers/STM32WLxx_HAL_Driver/Inc/stm32wlxx_ll_bus.h ****   *         @arg @ref LL_AHB1_GRP1_PERIPH_DMA1
 360:Drivers/STM32WLxx_HAL_Driver/Inc/stm32wlxx_ll_bus.h ****   *         @arg @ref LL_AHB1_GRP1_PERIPH_DMA2
 361:Drivers/STM32WLxx_HAL_Driver/Inc/stm32wlxx_ll_bus.h ****   *         @arg @ref LL_AHB1_GRP1_PERIPH_DMAMUX1
 362:Drivers/STM32WLxx_HAL_Driver/Inc/stm32wlxx_ll_bus.h ****   *         @arg @ref LL_AHB1_GRP1_PERIPH_CRC
 363:Drivers/STM32WLxx_HAL_Driver/Inc/stm32wlxx_ll_bus.h ****   * @retval None
 364:Drivers/STM32WLxx_HAL_Driver/Inc/stm32wlxx_ll_bus.h ****   */
 365:Drivers/STM32WLxx_HAL_Driver/Inc/stm32wlxx_ll_bus.h **** __STATIC_INLINE void LL_AHB1_GRP1_ReleaseReset(uint32_t Periphs)
 366:Drivers/STM32WLxx_HAL_Driver/Inc/stm32wlxx_ll_bus.h **** {
ARM GAS  C:\Users\Lenovo\AppData\Local\Temp\ccuWeQNH.s 			page 12


 367:Drivers/STM32WLxx_HAL_Driver/Inc/stm32wlxx_ll_bus.h ****   CLEAR_BIT(RCC->AHB1RSTR, Periphs);
 368:Drivers/STM32WLxx_HAL_Driver/Inc/stm32wlxx_ll_bus.h **** }
 369:Drivers/STM32WLxx_HAL_Driver/Inc/stm32wlxx_ll_bus.h **** 
 370:Drivers/STM32WLxx_HAL_Driver/Inc/stm32wlxx_ll_bus.h **** /**
 371:Drivers/STM32WLxx_HAL_Driver/Inc/stm32wlxx_ll_bus.h ****   * @brief  Enable AHB1 peripherals clock during Low Power (Sleep) mode.
 372:Drivers/STM32WLxx_HAL_Driver/Inc/stm32wlxx_ll_bus.h ****   * @rmtoll AHB1SMENR    DMA1SMEN      LL_AHB1_GRP1_EnableClockSleep\n
 373:Drivers/STM32WLxx_HAL_Driver/Inc/stm32wlxx_ll_bus.h ****   *         AHB1SMENR    DMA2SMEN      LL_AHB1_GRP1_EnableClockSleep\n
 374:Drivers/STM32WLxx_HAL_Driver/Inc/stm32wlxx_ll_bus.h ****   *         AHB1SMENR    DMAMUX1SMEN   LL_AHB1_GRP1_EnableClockSleep\n
 375:Drivers/STM32WLxx_HAL_Driver/Inc/stm32wlxx_ll_bus.h ****   *         AHB1SMENR    CRCSMEN       LL_AHB1_GRP1_EnableClockSleep\n
 376:Drivers/STM32WLxx_HAL_Driver/Inc/stm32wlxx_ll_bus.h ****   * @param  Periphs This parameter can be a combination of the following values:
 377:Drivers/STM32WLxx_HAL_Driver/Inc/stm32wlxx_ll_bus.h ****   *         @arg @ref LL_AHB1_GRP1_PERIPH_DMA1
 378:Drivers/STM32WLxx_HAL_Driver/Inc/stm32wlxx_ll_bus.h ****   *         @arg @ref LL_AHB1_GRP1_PERIPH_DMA2
 379:Drivers/STM32WLxx_HAL_Driver/Inc/stm32wlxx_ll_bus.h ****   *         @arg @ref LL_AHB1_GRP1_PERIPH_DMAMUX1
 380:Drivers/STM32WLxx_HAL_Driver/Inc/stm32wlxx_ll_bus.h ****   *         @arg @ref LL_AHB1_GRP1_PERIPH_CRC
 381:Drivers/STM32WLxx_HAL_Driver/Inc/stm32wlxx_ll_bus.h ****   * @retval None
 382:Drivers/STM32WLxx_HAL_Driver/Inc/stm32wlxx_ll_bus.h ****   */
 383:Drivers/STM32WLxx_HAL_Driver/Inc/stm32wlxx_ll_bus.h **** __STATIC_INLINE void LL_AHB1_GRP1_EnableClockSleep(uint32_t Periphs)
 384:Drivers/STM32WLxx_HAL_Driver/Inc/stm32wlxx_ll_bus.h **** {
 385:Drivers/STM32WLxx_HAL_Driver/Inc/stm32wlxx_ll_bus.h ****   __IO uint32_t tmpreg;
 386:Drivers/STM32WLxx_HAL_Driver/Inc/stm32wlxx_ll_bus.h ****   SET_BIT(RCC->AHB1SMENR, Periphs);
 387:Drivers/STM32WLxx_HAL_Driver/Inc/stm32wlxx_ll_bus.h ****   /* Delay after an RCC peripheral clock enabling */
 388:Drivers/STM32WLxx_HAL_Driver/Inc/stm32wlxx_ll_bus.h ****   tmpreg = READ_BIT(RCC->AHB1SMENR, Periphs);
 389:Drivers/STM32WLxx_HAL_Driver/Inc/stm32wlxx_ll_bus.h ****   (void)tmpreg;
 390:Drivers/STM32WLxx_HAL_Driver/Inc/stm32wlxx_ll_bus.h **** }
 391:Drivers/STM32WLxx_HAL_Driver/Inc/stm32wlxx_ll_bus.h **** 
 392:Drivers/STM32WLxx_HAL_Driver/Inc/stm32wlxx_ll_bus.h **** /**
 393:Drivers/STM32WLxx_HAL_Driver/Inc/stm32wlxx_ll_bus.h ****   * @brief  Check if AHB1 peripheral clock is enabled by the clock gating during CPU1 CSleep mode
 394:Drivers/STM32WLxx_HAL_Driver/Inc/stm32wlxx_ll_bus.h ****   * @rmtoll AHB1SMENR    DMA1SMEN      LL_AHB1_GRP1_IsEnabledClockSleep\n
 395:Drivers/STM32WLxx_HAL_Driver/Inc/stm32wlxx_ll_bus.h ****   *         AHB1SMENR    DMA2SMEN      LL_AHB1_GRP1_IsEnabledClockSleep\n
 396:Drivers/STM32WLxx_HAL_Driver/Inc/stm32wlxx_ll_bus.h ****   *         AHB1SMENR    DMAMUX1SMEN   LL_AHB1_GRP1_IsEnabledClockSleep\n
 397:Drivers/STM32WLxx_HAL_Driver/Inc/stm32wlxx_ll_bus.h ****   *         AHB1SMENR    CRCSMEN       LL_AHB1_GRP1_IsEnabledClockSleep
 398:Drivers/STM32WLxx_HAL_Driver/Inc/stm32wlxx_ll_bus.h ****   * @param  Periphs This parameter can be a combination of the following values:
 399:Drivers/STM32WLxx_HAL_Driver/Inc/stm32wlxx_ll_bus.h ****   *         @arg @ref LL_AHB1_GRP1_PERIPH_DMA1
 400:Drivers/STM32WLxx_HAL_Driver/Inc/stm32wlxx_ll_bus.h ****   *         @arg @ref LL_AHB1_GRP1_PERIPH_DMA2
 401:Drivers/STM32WLxx_HAL_Driver/Inc/stm32wlxx_ll_bus.h ****   *         @arg @ref LL_AHB1_GRP1_PERIPH_DMAMUX1
 402:Drivers/STM32WLxx_HAL_Driver/Inc/stm32wlxx_ll_bus.h ****   *         @arg @ref LL_AHB1_GRP1_PERIPH_CRC
 403:Drivers/STM32WLxx_HAL_Driver/Inc/stm32wlxx_ll_bus.h ****   * @retval uint32_t
 404:Drivers/STM32WLxx_HAL_Driver/Inc/stm32wlxx_ll_bus.h ****   */
 405:Drivers/STM32WLxx_HAL_Driver/Inc/stm32wlxx_ll_bus.h **** __STATIC_INLINE uint32_t LL_AHB1_GRP1_IsEnabledClockSleep(uint32_t Periphs)
 406:Drivers/STM32WLxx_HAL_Driver/Inc/stm32wlxx_ll_bus.h **** {
 407:Drivers/STM32WLxx_HAL_Driver/Inc/stm32wlxx_ll_bus.h ****   return ((READ_BIT(RCC->AHB1SMENR, Periphs) == (Periphs)) ? 1UL : 0UL);
 408:Drivers/STM32WLxx_HAL_Driver/Inc/stm32wlxx_ll_bus.h **** }
 409:Drivers/STM32WLxx_HAL_Driver/Inc/stm32wlxx_ll_bus.h **** 
 410:Drivers/STM32WLxx_HAL_Driver/Inc/stm32wlxx_ll_bus.h **** /**
 411:Drivers/STM32WLxx_HAL_Driver/Inc/stm32wlxx_ll_bus.h ****   * @brief  Disable AHB1 peripherals clock during Low Power (Sleep) mode.
 412:Drivers/STM32WLxx_HAL_Driver/Inc/stm32wlxx_ll_bus.h ****   * @rmtoll AHB1SMENR    DMA1SMEN      LL_AHB1_GRP1_DisableClockSleep\n
 413:Drivers/STM32WLxx_HAL_Driver/Inc/stm32wlxx_ll_bus.h ****   *         AHB1SMENR    DMA2SMEN      LL_AHB1_GRP1_DisableClockSleep\n
 414:Drivers/STM32WLxx_HAL_Driver/Inc/stm32wlxx_ll_bus.h ****   *         AHB1SMENR    DMAMUX1SMEN   LL_AHB1_GRP1_DisableClockSleep\n
 415:Drivers/STM32WLxx_HAL_Driver/Inc/stm32wlxx_ll_bus.h ****   *         AHB1SMENR    CRCSMEN       LL_AHB1_GRP1_DisableClockSleep\n
 416:Drivers/STM32WLxx_HAL_Driver/Inc/stm32wlxx_ll_bus.h ****   * @param  Periphs This parameter can be a combination of the following values:
 417:Drivers/STM32WLxx_HAL_Driver/Inc/stm32wlxx_ll_bus.h ****   *         @arg @ref LL_AHB1_GRP1_PERIPH_DMA1
 418:Drivers/STM32WLxx_HAL_Driver/Inc/stm32wlxx_ll_bus.h ****   *         @arg @ref LL_AHB1_GRP1_PERIPH_DMA2
 419:Drivers/STM32WLxx_HAL_Driver/Inc/stm32wlxx_ll_bus.h ****   *         @arg @ref LL_AHB1_GRP1_PERIPH_DMAMUX1
 420:Drivers/STM32WLxx_HAL_Driver/Inc/stm32wlxx_ll_bus.h ****   *         @arg @ref LL_AHB1_GRP1_PERIPH_CRC
 421:Drivers/STM32WLxx_HAL_Driver/Inc/stm32wlxx_ll_bus.h ****   * @retval None
 422:Drivers/STM32WLxx_HAL_Driver/Inc/stm32wlxx_ll_bus.h ****   */
 423:Drivers/STM32WLxx_HAL_Driver/Inc/stm32wlxx_ll_bus.h **** __STATIC_INLINE void LL_AHB1_GRP1_DisableClockSleep(uint32_t Periphs)
ARM GAS  C:\Users\Lenovo\AppData\Local\Temp\ccuWeQNH.s 			page 13


 424:Drivers/STM32WLxx_HAL_Driver/Inc/stm32wlxx_ll_bus.h **** {
 425:Drivers/STM32WLxx_HAL_Driver/Inc/stm32wlxx_ll_bus.h ****   CLEAR_BIT(RCC->AHB1SMENR, Periphs);
 426:Drivers/STM32WLxx_HAL_Driver/Inc/stm32wlxx_ll_bus.h **** }
 427:Drivers/STM32WLxx_HAL_Driver/Inc/stm32wlxx_ll_bus.h **** 
 428:Drivers/STM32WLxx_HAL_Driver/Inc/stm32wlxx_ll_bus.h **** /**
 429:Drivers/STM32WLxx_HAL_Driver/Inc/stm32wlxx_ll_bus.h ****   * @}
 430:Drivers/STM32WLxx_HAL_Driver/Inc/stm32wlxx_ll_bus.h ****   */
 431:Drivers/STM32WLxx_HAL_Driver/Inc/stm32wlxx_ll_bus.h **** 
 432:Drivers/STM32WLxx_HAL_Driver/Inc/stm32wlxx_ll_bus.h **** /** @defgroup BUS_LL_EF_AHB2 AHB2
 433:Drivers/STM32WLxx_HAL_Driver/Inc/stm32wlxx_ll_bus.h ****   * @{
 434:Drivers/STM32WLxx_HAL_Driver/Inc/stm32wlxx_ll_bus.h ****   */
 435:Drivers/STM32WLxx_HAL_Driver/Inc/stm32wlxx_ll_bus.h **** 
 436:Drivers/STM32WLxx_HAL_Driver/Inc/stm32wlxx_ll_bus.h **** /**
 437:Drivers/STM32WLxx_HAL_Driver/Inc/stm32wlxx_ll_bus.h ****   * @brief  Enable AHB2 peripherals clock.
 438:Drivers/STM32WLxx_HAL_Driver/Inc/stm32wlxx_ll_bus.h ****   * @rmtoll AHB2ENR      GPIOAEN       LL_AHB2_GRP1_EnableClock\n
 439:Drivers/STM32WLxx_HAL_Driver/Inc/stm32wlxx_ll_bus.h ****   *         AHB2ENR      GPIOBEN       LL_AHB2_GRP1_EnableClock\n
 440:Drivers/STM32WLxx_HAL_Driver/Inc/stm32wlxx_ll_bus.h ****   *         AHB2ENR      GPIOCEN       LL_AHB2_GRP1_EnableClock\n
 441:Drivers/STM32WLxx_HAL_Driver/Inc/stm32wlxx_ll_bus.h ****   *         AHB2ENR      GPIOHEN       LL_AHB2_GRP1_EnableClock\n
 442:Drivers/STM32WLxx_HAL_Driver/Inc/stm32wlxx_ll_bus.h ****   * @param  Periphs This parameter can be a combination of the following values:
 443:Drivers/STM32WLxx_HAL_Driver/Inc/stm32wlxx_ll_bus.h ****   *         @arg @ref LL_AHB2_GRP1_PERIPH_GPIOA
 444:Drivers/STM32WLxx_HAL_Driver/Inc/stm32wlxx_ll_bus.h ****   *         @arg @ref LL_AHB2_GRP1_PERIPH_GPIOB
 445:Drivers/STM32WLxx_HAL_Driver/Inc/stm32wlxx_ll_bus.h ****   *         @arg @ref LL_AHB2_GRP1_PERIPH_GPIOC
 446:Drivers/STM32WLxx_HAL_Driver/Inc/stm32wlxx_ll_bus.h ****   *         @arg @ref LL_AHB2_GRP1_PERIPH_GPIOH
 447:Drivers/STM32WLxx_HAL_Driver/Inc/stm32wlxx_ll_bus.h ****   * @retval None
 448:Drivers/STM32WLxx_HAL_Driver/Inc/stm32wlxx_ll_bus.h ****   */
 449:Drivers/STM32WLxx_HAL_Driver/Inc/stm32wlxx_ll_bus.h **** __STATIC_INLINE void LL_AHB2_GRP1_EnableClock(uint32_t Periphs)
  51              		.loc 2 449 22 view .LVU4
  52              	.LBB9:
 450:Drivers/STM32WLxx_HAL_Driver/Inc/stm32wlxx_ll_bus.h **** {
 451:Drivers/STM32WLxx_HAL_Driver/Inc/stm32wlxx_ll_bus.h ****   __IO uint32_t tmpreg;
  53              		.loc 2 451 3 view .LVU5
 452:Drivers/STM32WLxx_HAL_Driver/Inc/stm32wlxx_ll_bus.h ****   SET_BIT(RCC->AHB2ENR, Periphs);
  54              		.loc 2 452 3 view .LVU6
  55 0010 4FF0B043 		mov	r3, #1476395008
  56 0014 DA6C     		ldr	r2, [r3, #76]
  57 0016 42F00402 		orr	r2, r2, #4
  58 001a DA64     		str	r2, [r3, #76]
 453:Drivers/STM32WLxx_HAL_Driver/Inc/stm32wlxx_ll_bus.h ****   /* Delay after an RCC peripheral clock enabling */
 454:Drivers/STM32WLxx_HAL_Driver/Inc/stm32wlxx_ll_bus.h ****   tmpreg = READ_BIT(RCC->AHB2ENR, Periphs);
  59              		.loc 2 454 3 view .LVU7
  60              		.loc 2 454 12 is_stmt 0 view .LVU8
  61 001c DA6C     		ldr	r2, [r3, #76]
  62 001e 02F00402 		and	r2, r2, #4
  63              		.loc 2 454 10 view .LVU9
  64 0022 0292     		str	r2, [sp, #8]
 455:Drivers/STM32WLxx_HAL_Driver/Inc/stm32wlxx_ll_bus.h ****   (void)tmpreg;
  65              		.loc 2 455 3 is_stmt 1 view .LVU10
  66 0024 029A     		ldr	r2, [sp, #8]
  67              	.LVL1:
  68              		.loc 2 455 3 is_stmt 0 view .LVU11
  69              	.LBE9:
  70              	.LBE8:
 213:Core/Src/main.c ****   __HAL_RCC_GPIOA_CLK_ENABLE();
  71              		.loc 1 213 3 is_stmt 1 view .LVU12
  72              	.LBB10:
  73              	.LBI10:
 449:Drivers/STM32WLxx_HAL_Driver/Inc/stm32wlxx_ll_bus.h **** {
ARM GAS  C:\Users\Lenovo\AppData\Local\Temp\ccuWeQNH.s 			page 14


  74              		.loc 2 449 22 view .LVU13
  75              	.LBB11:
 451:Drivers/STM32WLxx_HAL_Driver/Inc/stm32wlxx_ll_bus.h ****   SET_BIT(RCC->AHB2ENR, Periphs);
  76              		.loc 2 451 3 view .LVU14
 452:Drivers/STM32WLxx_HAL_Driver/Inc/stm32wlxx_ll_bus.h ****   /* Delay after an RCC peripheral clock enabling */
  77              		.loc 2 452 3 view .LVU15
  78 0026 DA6C     		ldr	r2, [r3, #76]
  79 0028 42F00102 		orr	r2, r2, #1
  80 002c DA64     		str	r2, [r3, #76]
 454:Drivers/STM32WLxx_HAL_Driver/Inc/stm32wlxx_ll_bus.h ****   (void)tmpreg;
  81              		.loc 2 454 3 view .LVU16
 454:Drivers/STM32WLxx_HAL_Driver/Inc/stm32wlxx_ll_bus.h ****   (void)tmpreg;
  82              		.loc 2 454 12 is_stmt 0 view .LVU17
  83 002e DA6C     		ldr	r2, [r3, #76]
  84 0030 02F00102 		and	r2, r2, #1
 454:Drivers/STM32WLxx_HAL_Driver/Inc/stm32wlxx_ll_bus.h ****   (void)tmpreg;
  85              		.loc 2 454 10 view .LVU18
  86 0034 0192     		str	r2, [sp, #4]
  87              		.loc 2 455 3 is_stmt 1 view .LVU19
  88 0036 019A     		ldr	r2, [sp, #4]
  89              	.LVL2:
  90              		.loc 2 455 3 is_stmt 0 view .LVU20
  91              	.LBE11:
  92              	.LBE10:
 214:Core/Src/main.c ****   __HAL_RCC_GPIOB_CLK_ENABLE();
  93              		.loc 1 214 3 is_stmt 1 view .LVU21
  94              	.LBB12:
  95              	.LBI12:
 449:Drivers/STM32WLxx_HAL_Driver/Inc/stm32wlxx_ll_bus.h **** {
  96              		.loc 2 449 22 view .LVU22
  97              	.LBB13:
 451:Drivers/STM32WLxx_HAL_Driver/Inc/stm32wlxx_ll_bus.h ****   SET_BIT(RCC->AHB2ENR, Periphs);
  98              		.loc 2 451 3 view .LVU23
 452:Drivers/STM32WLxx_HAL_Driver/Inc/stm32wlxx_ll_bus.h ****   /* Delay after an RCC peripheral clock enabling */
  99              		.loc 2 452 3 view .LVU24
 100 0038 DA6C     		ldr	r2, [r3, #76]
 101 003a 42F00202 		orr	r2, r2, #2
 102 003e DA64     		str	r2, [r3, #76]
 454:Drivers/STM32WLxx_HAL_Driver/Inc/stm32wlxx_ll_bus.h ****   (void)tmpreg;
 103              		.loc 2 454 3 view .LVU25
 454:Drivers/STM32WLxx_HAL_Driver/Inc/stm32wlxx_ll_bus.h ****   (void)tmpreg;
 104              		.loc 2 454 12 is_stmt 0 view .LVU26
 105 0040 DB6C     		ldr	r3, [r3, #76]
 106 0042 03F00203 		and	r3, r3, #2
 454:Drivers/STM32WLxx_HAL_Driver/Inc/stm32wlxx_ll_bus.h ****   (void)tmpreg;
 107              		.loc 2 454 10 view .LVU27
 108 0046 0093     		str	r3, [sp]
 109              		.loc 2 455 3 is_stmt 1 view .LVU28
 110 0048 009B     		ldr	r3, [sp]
 111              	.LVL3:
 112              		.loc 2 455 3 is_stmt 0 view .LVU29
 113              	.LBE13:
 114              	.LBE12:
 215:Core/Src/main.c **** 
 216:Core/Src/main.c ****   /*Configure GPIO pins : T_VCP_RX_Pin T_VCP_RXA2_Pin */
 217:Core/Src/main.c ****   GPIO_InitStruct.Pin = T_VCP_RX_Pin | T_VCP_RXA2_Pin;
 115              		.loc 1 217 3 is_stmt 1 view .LVU30
ARM GAS  C:\Users\Lenovo\AppData\Local\Temp\ccuWeQNH.s 			page 15


 116              		.loc 1 217 23 is_stmt 0 view .LVU31
 117 004a 0C23     		movs	r3, #12
 118 004c 0393     		str	r3, [sp, #12]
 218:Core/Src/main.c ****   GPIO_InitStruct.Mode = GPIO_MODE_AF_PP;
 119              		.loc 1 218 3 is_stmt 1 view .LVU32
 120              		.loc 1 218 24 is_stmt 0 view .LVU33
 121 004e 0223     		movs	r3, #2
 122 0050 0493     		str	r3, [sp, #16]
 219:Core/Src/main.c ****   GPIO_InitStruct.Pull = GPIO_NOPULL;
 123              		.loc 1 219 3 is_stmt 1 view .LVU34
 220:Core/Src/main.c ****   GPIO_InitStruct.Speed = GPIO_SPEED_FREQ_LOW;
 124              		.loc 1 220 3 view .LVU35
 221:Core/Src/main.c ****   GPIO_InitStruct.Alternate = GPIO_AF7_USART2;
 125              		.loc 1 221 3 view .LVU36
 126              		.loc 1 221 29 is_stmt 0 view .LVU37
 127 0052 0723     		movs	r3, #7
 128 0054 0793     		str	r3, [sp, #28]
 222:Core/Src/main.c ****   HAL_GPIO_Init(GPIOA, &GPIO_InitStruct);
 129              		.loc 1 222 3 is_stmt 1 view .LVU38
 130 0056 03A9     		add	r1, sp, #12
 131 0058 4FF09040 		mov	r0, #1207959552
 132 005c FFF7FEFF 		bl	HAL_GPIO_Init
 133              	.LVL4:
 223:Core/Src/main.c **** 
 224:Core/Src/main.c ****   GPIO_InitStruct.Pin = GPIO_PIN_15 | GPIO_PIN_9;
 134              		.loc 1 224 3 view .LVU39
 135              		.loc 1 224 23 is_stmt 0 view .LVU40
 136 0060 4FF40243 		mov	r3, #33280
 137 0064 0393     		str	r3, [sp, #12]
 225:Core/Src/main.c ****   GPIO_InitStruct.Mode = GPIO_MODE_OUTPUT_PP;
 138              		.loc 1 225 3 is_stmt 1 view .LVU41
 139              		.loc 1 225 24 is_stmt 0 view .LVU42
 140 0066 0123     		movs	r3, #1
 141 0068 0493     		str	r3, [sp, #16]
 226:Core/Src/main.c ****   GPIO_InitStruct.Pull = GPIO_NOPULL;
 142              		.loc 1 226 3 is_stmt 1 view .LVU43
 143              		.loc 1 226 24 is_stmt 0 view .LVU44
 144 006a 0594     		str	r4, [sp, #20]
 227:Core/Src/main.c ****   GPIO_InitStruct.Speed = GPIO_SPEED_FREQ_LOW;
 145              		.loc 1 227 3 is_stmt 1 view .LVU45
 146              		.loc 1 227 25 is_stmt 0 view .LVU46
 147 006c 0694     		str	r4, [sp, #24]
 228:Core/Src/main.c ****   HAL_GPIO_Init(GPIOB, &GPIO_InitStruct);
 148              		.loc 1 228 3 is_stmt 1 view .LVU47
 149 006e 03A9     		add	r1, sp, #12
 150 0070 0248     		ldr	r0, .L3
 151 0072 FFF7FEFF 		bl	HAL_GPIO_Init
 152              	.LVL5:
 229:Core/Src/main.c **** 
 230:Core/Src/main.c ****   /* USER CODE BEGIN MX_GPIO_Init_2 */
 231:Core/Src/main.c ****   /* USER CODE END MX_GPIO_Init_2 */
 232:Core/Src/main.c **** }
 153              		.loc 1 232 1 is_stmt 0 view .LVU48
 154 0076 08B0     		add	sp, sp, #32
 155              	.LCFI2:
 156              		.cfi_def_cfa_offset 8
 157              		@ sp needed
ARM GAS  C:\Users\Lenovo\AppData\Local\Temp\ccuWeQNH.s 			page 16


 158 0078 10BD     		pop	{r4, pc}
 159              	.L4:
 160 007a 00BF     		.align	2
 161              	.L3:
 162 007c 00040048 		.word	1207960576
 163              		.cfi_endproc
 164              	.LFE854:
 166              		.section	.rodata.fnRTOSMessageSendTask.str1.4,"aMS",%progbits,1
 167              		.align	2
 168              	.LC0:
 169 0000 54657374 		.ascii	"Test CMSIS-RTOS 1: Sender Task\015\000"
 169      20434D53 
 169      49532D52 
 169      544F5320 
 169      313A2053 
 170              		.align	2
 171              	.LC1:
 172 0020 50726576 		.ascii	"Previous signal flag for the Receiver Thread: %ld\015"
 172      696F7573 
 172      20736967 
 172      6E616C20 
 172      666C6167 
 173 0052 0A00     		.ascii	"\012\000"
 174              		.section	.text.fnRTOSMessageSendTask,"ax",%progbits
 175              		.align	1
 176              		.global	fnRTOSMessageSendTask
 177              		.syntax unified
 178              		.thumb
 179              		.thumb_func
 181              	fnRTOSMessageSendTask:
 182              	.LFB855:
 233:Core/Src/main.c **** 
 234:Core/Src/main.c **** /* USER CODE BEGIN 4 */
 235:Core/Src/main.c **** 
 236:Core/Src/main.c **** /* USER CODE END 4 */
 237:Core/Src/main.c **** 
 238:Core/Src/main.c **** /* USER CODE BEGIN Header_StartDefaultTask */
 239:Core/Src/main.c **** /**
 240:Core/Src/main.c ****  * @brief  Function implementing the defaultTask thread.
 241:Core/Src/main.c ****  * @param  argument: Not used
 242:Core/Src/main.c ****  * @retval None
 243:Core/Src/main.c ****  */
 244:Core/Src/main.c **** /* USER CODE END Header_StartDefaultTask */
 245:Core/Src/main.c **** // void StartDefaultTask(void const *argument)
 246:Core/Src/main.c **** // {
 247:Core/Src/main.c **** //   /* USER CODE BEGIN 5 */
 248:Core/Src/main.c **** //   /* Infinite loop */
 249:Core/Src/main.c **** //   for (;;)
 250:Core/Src/main.c **** //   {
 251:Core/Src/main.c **** //     osDelay(1);
 252:Core/Src/main.c **** //   }
 253:Core/Src/main.c **** //   /* USER CODE END 5 */
 254:Core/Src/main.c **** // }
 255:Core/Src/main.c **** 
 256:Core/Src/main.c **** /**
 257:Core/Src/main.c ****  * @brief  Function implementing the SenderTask thread.
 258:Core/Src/main.c ****  * @param  argument: Not used
ARM GAS  C:\Users\Lenovo\AppData\Local\Temp\ccuWeQNH.s 			page 17


 259:Core/Src/main.c ****  * @retval None
 260:Core/Src/main.c ****  */
 261:Core/Src/main.c **** /* USER CODE END Header_StartDefaultTask */
 262:Core/Src/main.c **** void fnRTOSMessageSendTask(void const *argument)
 263:Core/Src/main.c **** {
 183              		.loc 1 263 1 is_stmt 1 view -0
 184              		.cfi_startproc
 185              		@ args = 0, pretend = 0, frame = 0
 186              		@ frame_needed = 0, uses_anonymous_args = 0
 187              	.LVL6:
 188              		.loc 1 263 1 is_stmt 0 view .LVU50
 189 0000 10B5     		push	{r4, lr}
 190              	.LCFI3:
 191              		.cfi_def_cfa_offset 8
 192              		.cfi_offset 4, -8
 193              		.cfi_offset 14, -4
 194              	.LVL7:
 195              	.L6:
 264:Core/Src/main.c ****   uint32_t u32SendThreadFlag;
 196              		.loc 1 264 3 is_stmt 1 discriminator 1 view .LVU51
 265:Core/Src/main.c ****   while (1)
 197              		.loc 1 265 3 discriminator 1 view .LVU52
 266:Core/Src/main.c ****   {
 267:Core/Src/main.c ****     HAL_GPIO_TogglePin(GPIOB, GPIO_PIN_15);
 198              		.loc 1 267 5 discriminator 1 view .LVU53
 199 0002 4FF40041 		mov	r1, #32768
 200 0006 0C48     		ldr	r0, .L8
 201 0008 FFF7FEFF 		bl	HAL_GPIO_TogglePin
 202              	.LVL8:
 268:Core/Src/main.c ****     printf("Test CMSIS-RTOS 1: Sender Task\r\n");
 203              		.loc 1 268 5 discriminator 1 view .LVU54
 204 000c 0B48     		ldr	r0, .L8+4
 205 000e FFF7FEFF 		bl	puts
 206              	.LVL9:
 269:Core/Src/main.c ****     u32SendThreadFlag = osSignalClear(ReceiverTaskID, 0x00000011);
 207              		.loc 1 269 5 discriminator 1 view .LVU55
 208              		.loc 1 269 25 is_stmt 0 discriminator 1 view .LVU56
 209 0012 0B4C     		ldr	r4, .L8+8
 210 0014 1121     		movs	r1, #17
 211 0016 2068     		ldr	r0, [r4]
 212 0018 FFF7FEFF 		bl	osSignalClear
 213              	.LVL10:
 270:Core/Src/main.c ****     u32SendThreadFlag = osSignalSet(ReceiverTaskID, 0x00000011);
 214              		.loc 1 270 5 is_stmt 1 discriminator 1 view .LVU57
 215              		.loc 1 270 25 is_stmt 0 discriminator 1 view .LVU58
 216 001c 1121     		movs	r1, #17
 217 001e 2068     		ldr	r0, [r4]
 218 0020 FFF7FEFF 		bl	osSignalSet
 219              	.LVL11:
 220 0024 0146     		mov	r1, r0
 221              	.LVL12:
 271:Core/Src/main.c ****     printf("Previous signal flag for the Receiver Thread: %ld\r\n", u32SendThreadFlag);
 222              		.loc 1 271 5 is_stmt 1 discriminator 1 view .LVU59
 223 0026 0748     		ldr	r0, .L8+12
 224              	.LVL13:
 225              		.loc 1 271 5 is_stmt 0 discriminator 1 view .LVU60
 226 0028 FFF7FEFF 		bl	printf
ARM GAS  C:\Users\Lenovo\AppData\Local\Temp\ccuWeQNH.s 			page 18


 227              	.LVL14:
 272:Core/Src/main.c ****     osDelay(2000);
 228              		.loc 1 272 5 is_stmt 1 discriminator 1 view .LVU61
 229 002c 4FF4FA60 		mov	r0, #2000
 230 0030 FFF7FEFF 		bl	osDelay
 231              	.LVL15:
 265:Core/Src/main.c ****   {
 232              		.loc 1 265 9 discriminator 1 view .LVU62
 233 0034 E5E7     		b	.L6
 234              	.L9:
 235 0036 00BF     		.align	2
 236              	.L8:
 237 0038 00040048 		.word	1207960576
 238 003c 00000000 		.word	.LC0
 239 0040 00000000 		.word	.LANCHOR0
 240 0044 20000000 		.word	.LC1
 241              		.cfi_endproc
 242              	.LFE855:
 244              		.section	.rodata.fnRTOSMessageReceiverTask.str1.4,"aMS",%progbits,1
 245              		.align	2
 246              	.LC2:
 247 0000 54657374 		.ascii	"Test CMSIS-RTOS 1: Receiver Task\015\000"
 247      20434D53 
 247      49532D52 
 247      544F5320 
 247      313A2052 
 248 0022 0000     		.align	2
 249              	.LC3:
 250 0024 5369676E 		.ascii	"Signal state after reception: %ld\015\012\000"
 250      616C2073 
 250      74617465 
 250      20616674 
 250      65722072 
 251              		.align	2
 252              	.LC4:
 253 0048 5369676E 		.ascii	"Signal flag not cleared upon receiced!!\015\000"
 253      616C2066 
 253      6C616720 
 253      6E6F7420 
 253      636C6561 
 254 0071 000000   		.align	2
 255              	.LC5:
 256 0074 5369676E 		.ascii	"Signal flag cleared upon reception\015\000"
 256      616C2066 
 256      6C616720 
 256      636C6561 
 256      72656420 
 257              		.align	2
 258              	.LC6:
 259 0098 54687265 		.ascii	"Thread signal not received\015\000"
 259      61642073 
 259      69676E61 
 259      6C206E6F 
 259      74207265 
 260              		.section	.text.fnRTOSMessageReceiverTask,"ax",%progbits
 261              		.align	1
 262              		.global	fnRTOSMessageReceiverTask
ARM GAS  C:\Users\Lenovo\AppData\Local\Temp\ccuWeQNH.s 			page 19


 263              		.syntax unified
 264              		.thumb
 265              		.thumb_func
 267              	fnRTOSMessageReceiverTask:
 268              	.LFB856:
 273:Core/Src/main.c ****   }
 274:Core/Src/main.c **** }
 275:Core/Src/main.c **** 
 276:Core/Src/main.c **** /* USER CODE END Header_StartDefaultTask */
 277:Core/Src/main.c **** void fnRTOSMessageReceiverTask(void const *argument)
 278:Core/Src/main.c **** {
 269              		.loc 1 278 1 view -0
 270              		.cfi_startproc
 271              		@ args = 0, pretend = 0, frame = 16
 272              		@ frame_needed = 0, uses_anonymous_args = 0
 273              	.LVL16:
 274              		.loc 1 278 1 is_stmt 0 view .LVU64
 275 0000 10B5     		push	{r4, lr}
 276              	.LCFI4:
 277              		.cfi_def_cfa_offset 8
 278              		.cfi_offset 4, -8
 279              		.cfi_offset 14, -4
 280 0002 84B0     		sub	sp, sp, #16
 281              	.LCFI5:
 282              		.cfi_def_cfa_offset 24
 283 0004 06E0     		b	.L11
 284              	.LVL17:
 285              	.L13:
 279:Core/Src/main.c ****   osEvent event;
 280:Core/Src/main.c ****   uint32_t u32WaitForSignalFlag = 500;
 281:Core/Src/main.c ****   uint32_t u32SendThreadFlag;
 282:Core/Src/main.c ****   ;
 283:Core/Src/main.c ****   while (1)
 284:Core/Src/main.c ****   {
 285:Core/Src/main.c ****     HAL_GPIO_TogglePin(GPIOB, GPIO_PIN_9);
 286:Core/Src/main.c ****     printf("Test CMSIS-RTOS 1: Receiver Task\r\n");
 287:Core/Src/main.c ****     event = osSignalWait(0x00000003, osWaitForever);
 288:Core/Src/main.c ****     if (event.status == osEventSignal)
 289:Core/Src/main.c ****     {
 290:Core/Src/main.c ****       printf("Signal state after reception: %ld\r\n", event.value.signals);
 291:Core/Src/main.c ****       if (event.value.signals != 0x00)
 292:Core/Src/main.c ****       {
 293:Core/Src/main.c ****         printf("Signal flag not cleared upon receiced!!\r\n");
 294:Core/Src/main.c ****         // u32SendThreadFlag = osSignalClear(ReceiverTaskID, 0x00000003);
 295:Core/Src/main.c ****         printf("Signal state after reception: %ld\r\n", event.value.signals);
 296:Core/Src/main.c ****         // Error_Handler();
 297:Core/Src/main.c ****       }
 298:Core/Src/main.c ****       else
 299:Core/Src/main.c ****       {
 300:Core/Src/main.c ****         printf("Signal flag cleared upon reception\r\n");
 286              		.loc 1 300 9 is_stmt 1 view .LVU65
 287 0006 1348     		ldr	r0, .L16
 288 0008 FFF7FEFF 		bl	puts
 289              	.LVL18:
 290 000c 02E0     		b	.L11
 291              	.L12:
 301:Core/Src/main.c ****       }
ARM GAS  C:\Users\Lenovo\AppData\Local\Temp\ccuWeQNH.s 			page 20


 302:Core/Src/main.c ****     }
 303:Core/Src/main.c ****     else
 304:Core/Src/main.c ****     {
 305:Core/Src/main.c ****       printf("Thread signal not received\r\n");
 292              		.loc 1 305 7 view .LVU66
 293 000e 1248     		ldr	r0, .L16+4
 294 0010 FFF7FEFF 		bl	puts
 295              	.LVL19:
 296              	.L11:
 281:Core/Src/main.c ****   ;
 297              		.loc 1 281 3 view .LVU67
 282:Core/Src/main.c ****   while (1)
 298              		.loc 1 282 3 view .LVU68
 283:Core/Src/main.c ****   {
 299              		.loc 1 283 3 view .LVU69
 285:Core/Src/main.c ****     printf("Test CMSIS-RTOS 1: Receiver Task\r\n");
 300              		.loc 1 285 5 view .LVU70
 301 0014 4FF40071 		mov	r1, #512
 302 0018 1048     		ldr	r0, .L16+8
 303 001a FFF7FEFF 		bl	HAL_GPIO_TogglePin
 304              	.LVL20:
 286:Core/Src/main.c ****     event = osSignalWait(0x00000003, osWaitForever);
 305              		.loc 1 286 5 view .LVU71
 306 001e 1048     		ldr	r0, .L16+12
 307 0020 FFF7FEFF 		bl	puts
 308              	.LVL21:
 287:Core/Src/main.c ****     if (event.status == osEventSignal)
 309              		.loc 1 287 5 view .LVU72
 287:Core/Src/main.c ****     if (event.status == osEventSignal)
 310              		.loc 1 287 13 is_stmt 0 view .LVU73
 311 0024 4FF0FF32 		mov	r2, #-1
 312 0028 0321     		movs	r1, #3
 313 002a 01A8     		add	r0, sp, #4
 314 002c FFF7FEFF 		bl	osSignalWait
 315              	.LVL22:
 288:Core/Src/main.c ****     {
 316              		.loc 1 288 5 is_stmt 1 view .LVU74
 288:Core/Src/main.c ****     {
 317              		.loc 1 288 14 is_stmt 0 view .LVU75
 318 0030 019B     		ldr	r3, [sp, #4]
 288:Core/Src/main.c ****     {
 319              		.loc 1 288 8 view .LVU76
 320 0032 082B     		cmp	r3, #8
 321 0034 EBD1     		bne	.L12
 290:Core/Src/main.c ****       if (event.value.signals != 0x00)
 322              		.loc 1 290 7 is_stmt 1 view .LVU77
 323 0036 029C     		ldr	r4, [sp, #8]
 324 0038 2146     		mov	r1, r4
 325 003a 0A48     		ldr	r0, .L16+16
 326 003c FFF7FEFF 		bl	printf
 327              	.LVL23:
 291:Core/Src/main.c ****       {
 328              		.loc 1 291 7 view .LVU78
 291:Core/Src/main.c ****       {
 329              		.loc 1 291 10 is_stmt 0 view .LVU79
 330 0040 002C     		cmp	r4, #0
 331 0042 E0D0     		beq	.L13
ARM GAS  C:\Users\Lenovo\AppData\Local\Temp\ccuWeQNH.s 			page 21


 293:Core/Src/main.c ****         // u32SendThreadFlag = osSignalClear(ReceiverTaskID, 0x00000003);
 332              		.loc 1 293 9 is_stmt 1 view .LVU80
 333 0044 0848     		ldr	r0, .L16+20
 334 0046 FFF7FEFF 		bl	puts
 335              	.LVL24:
 295:Core/Src/main.c ****         // Error_Handler();
 336              		.loc 1 295 9 view .LVU81
 337 004a 2146     		mov	r1, r4
 338 004c 0548     		ldr	r0, .L16+16
 339 004e FFF7FEFF 		bl	printf
 340              	.LVL25:
 341 0052 DFE7     		b	.L11
 342              	.L17:
 343              		.align	2
 344              	.L16:
 345 0054 74000000 		.word	.LC5
 346 0058 98000000 		.word	.LC6
 347 005c 00040048 		.word	1207960576
 348 0060 00000000 		.word	.LC2
 349 0064 24000000 		.word	.LC3
 350 0068 48000000 		.word	.LC4
 351              		.cfi_endproc
 352              	.LFE856:
 354              		.section	.text.SystemClock_Config,"ax",%progbits
 355              		.align	1
 356              		.global	SystemClock_Config
 357              		.syntax unified
 358              		.thumb
 359              		.thumb_func
 361              	SystemClock_Config:
 362              	.LFB853:
 165:Core/Src/main.c ****   RCC_OscInitTypeDef RCC_OscInitStruct = {0};
 363              		.loc 1 165 1 view -0
 364              		.cfi_startproc
 365              		@ args = 0, pretend = 0, frame = 104
 366              		@ frame_needed = 0, uses_anonymous_args = 0
 367 0000 00B5     		push	{lr}
 368              	.LCFI6:
 369              		.cfi_def_cfa_offset 4
 370              		.cfi_offset 14, -4
 371 0002 9BB0     		sub	sp, sp, #108
 372              	.LCFI7:
 373              		.cfi_def_cfa_offset 112
 166:Core/Src/main.c ****   RCC_ClkInitTypeDef RCC_ClkInitStruct = {0};
 374              		.loc 1 166 3 view .LVU83
 166:Core/Src/main.c ****   RCC_ClkInitTypeDef RCC_ClkInitStruct = {0};
 375              		.loc 1 166 22 is_stmt 0 view .LVU84
 376 0004 4822     		movs	r2, #72
 377 0006 0021     		movs	r1, #0
 378 0008 08A8     		add	r0, sp, #32
 379 000a FFF7FEFF 		bl	memset
 380              	.LVL26:
 167:Core/Src/main.c **** 
 381              		.loc 1 167 3 is_stmt 1 view .LVU85
 167:Core/Src/main.c **** 
 382              		.loc 1 167 22 is_stmt 0 view .LVU86
 383 000e 0023     		movs	r3, #0
ARM GAS  C:\Users\Lenovo\AppData\Local\Temp\ccuWeQNH.s 			page 22


 384 0010 0193     		str	r3, [sp, #4]
 385 0012 0293     		str	r3, [sp, #8]
 386 0014 0393     		str	r3, [sp, #12]
 387 0016 0493     		str	r3, [sp, #16]
 388 0018 0593     		str	r3, [sp, #20]
 389 001a 0693     		str	r3, [sp, #24]
 390 001c 0793     		str	r3, [sp, #28]
 171:Core/Src/main.c **** 
 391              		.loc 1 171 3 is_stmt 1 view .LVU87
 392              	.LBB14:
 171:Core/Src/main.c **** 
 393              		.loc 1 171 3 view .LVU88
 171:Core/Src/main.c **** 
 394              		.loc 1 171 3 view .LVU89
 395 001e 1649     		ldr	r1, .L24
 396 0020 0A68     		ldr	r2, [r1]
 397 0022 22F4C062 		bic	r2, r2, #1536
 398 0026 42F48062 		orr	r2, r2, #1024
 399 002a 0A60     		str	r2, [r1]
 171:Core/Src/main.c **** 
 400              		.loc 1 171 3 view .LVU90
 401 002c 0A68     		ldr	r2, [r1]
 402 002e 02F4C062 		and	r2, r2, #1536
 403 0032 0092     		str	r2, [sp]
 171:Core/Src/main.c **** 
 404              		.loc 1 171 3 view .LVU91
 405 0034 009A     		ldr	r2, [sp]
 406              	.LBE14:
 171:Core/Src/main.c **** 
 407              		.loc 1 171 3 view .LVU92
 175:Core/Src/main.c ****   RCC_OscInitStruct.MSIState = RCC_MSI_ON;
 408              		.loc 1 175 3 view .LVU93
 175:Core/Src/main.c ****   RCC_OscInitStruct.MSIState = RCC_MSI_ON;
 409              		.loc 1 175 36 is_stmt 0 view .LVU94
 410 0036 2022     		movs	r2, #32
 411 0038 0892     		str	r2, [sp, #32]
 176:Core/Src/main.c ****   RCC_OscInitStruct.MSICalibrationValue = RCC_MSICALIBRATION_DEFAULT;
 412              		.loc 1 176 3 is_stmt 1 view .LVU95
 176:Core/Src/main.c ****   RCC_OscInitStruct.MSICalibrationValue = RCC_MSICALIBRATION_DEFAULT;
 413              		.loc 1 176 30 is_stmt 0 view .LVU96
 414 003a 0122     		movs	r2, #1
 415 003c 1092     		str	r2, [sp, #64]
 177:Core/Src/main.c ****   RCC_OscInitStruct.MSIClockRange = RCC_MSIRANGE_6;
 416              		.loc 1 177 3 is_stmt 1 view .LVU97
 177:Core/Src/main.c ****   RCC_OscInitStruct.MSIClockRange = RCC_MSIRANGE_6;
 417              		.loc 1 177 41 is_stmt 0 view .LVU98
 418 003e 1193     		str	r3, [sp, #68]
 178:Core/Src/main.c ****   RCC_OscInitStruct.PLL.PLLState = RCC_PLL_NONE;
 419              		.loc 1 178 3 is_stmt 1 view .LVU99
 178:Core/Src/main.c ****   RCC_OscInitStruct.PLL.PLLState = RCC_PLL_NONE;
 420              		.loc 1 178 35 is_stmt 0 view .LVU100
 421 0040 6022     		movs	r2, #96
 422 0042 1292     		str	r2, [sp, #72]
 179:Core/Src/main.c ****   if (HAL_RCC_OscConfig(&RCC_OscInitStruct) != HAL_OK)
 423              		.loc 1 179 3 is_stmt 1 view .LVU101
 179:Core/Src/main.c ****   if (HAL_RCC_OscConfig(&RCC_OscInitStruct) != HAL_OK)
 424              		.loc 1 179 34 is_stmt 0 view .LVU102
ARM GAS  C:\Users\Lenovo\AppData\Local\Temp\ccuWeQNH.s 			page 23


 425 0044 1393     		str	r3, [sp, #76]
 180:Core/Src/main.c ****   {
 426              		.loc 1 180 3 is_stmt 1 view .LVU103
 180:Core/Src/main.c ****   {
 427              		.loc 1 180 7 is_stmt 0 view .LVU104
 428 0046 08A8     		add	r0, sp, #32
 429 0048 FFF7FEFF 		bl	HAL_RCC_OscConfig
 430              	.LVL27:
 180:Core/Src/main.c ****   {
 431              		.loc 1 180 6 view .LVU105
 432 004c 70B9     		cbnz	r0, .L22
 433              	.L19:
 187:Core/Src/main.c ****   RCC_ClkInitStruct.SYSCLKSource = RCC_SYSCLKSOURCE_MSI;
 434              		.loc 1 187 3 is_stmt 1 view .LVU106
 187:Core/Src/main.c ****   RCC_ClkInitStruct.SYSCLKSource = RCC_SYSCLKSOURCE_MSI;
 435              		.loc 1 187 31 is_stmt 0 view .LVU107
 436 004e 4F23     		movs	r3, #79
 437 0050 0193     		str	r3, [sp, #4]
 188:Core/Src/main.c ****   RCC_ClkInitStruct.AHBCLKDivider = RCC_SYSCLK_DIV1;
 438              		.loc 1 188 3 is_stmt 1 view .LVU108
 188:Core/Src/main.c ****   RCC_ClkInitStruct.AHBCLKDivider = RCC_SYSCLK_DIV1;
 439              		.loc 1 188 34 is_stmt 0 view .LVU109
 440 0052 0021     		movs	r1, #0
 441 0054 0291     		str	r1, [sp, #8]
 189:Core/Src/main.c ****   RCC_ClkInitStruct.APB1CLKDivider = RCC_HCLK_DIV1;
 442              		.loc 1 189 3 is_stmt 1 view .LVU110
 189:Core/Src/main.c ****   RCC_ClkInitStruct.APB1CLKDivider = RCC_HCLK_DIV1;
 443              		.loc 1 189 35 is_stmt 0 view .LVU111
 444 0056 0391     		str	r1, [sp, #12]
 190:Core/Src/main.c ****   RCC_ClkInitStruct.APB2CLKDivider = RCC_HCLK_DIV1;
 445              		.loc 1 190 3 is_stmt 1 view .LVU112
 190:Core/Src/main.c ****   RCC_ClkInitStruct.APB2CLKDivider = RCC_HCLK_DIV1;
 446              		.loc 1 190 36 is_stmt 0 view .LVU113
 447 0058 0491     		str	r1, [sp, #16]
 191:Core/Src/main.c ****   RCC_ClkInitStruct.AHBCLK3Divider = RCC_SYSCLK_DIV1;
 448              		.loc 1 191 3 is_stmt 1 view .LVU114
 191:Core/Src/main.c ****   RCC_ClkInitStruct.AHBCLK3Divider = RCC_SYSCLK_DIV1;
 449              		.loc 1 191 36 is_stmt 0 view .LVU115
 450 005a 0591     		str	r1, [sp, #20]
 192:Core/Src/main.c **** 
 451              		.loc 1 192 3 is_stmt 1 view .LVU116
 192:Core/Src/main.c **** 
 452              		.loc 1 192 36 is_stmt 0 view .LVU117
 453 005c 0791     		str	r1, [sp, #28]
 194:Core/Src/main.c ****   {
 454              		.loc 1 194 3 is_stmt 1 view .LVU118
 194:Core/Src/main.c ****   {
 455              		.loc 1 194 7 is_stmt 0 view .LVU119
 456 005e 01A8     		add	r0, sp, #4
 457 0060 FFF7FEFF 		bl	HAL_RCC_ClockConfig
 458              	.LVL28:
 194:Core/Src/main.c ****   {
 459              		.loc 1 194 6 view .LVU120
 460 0064 28B9     		cbnz	r0, .L23
 461              	.L18:
 198:Core/Src/main.c **** 
 462              		.loc 1 198 1 view .LVU121
ARM GAS  C:\Users\Lenovo\AppData\Local\Temp\ccuWeQNH.s 			page 24


 463 0066 1BB0     		add	sp, sp, #108
 464              	.LCFI8:
 465              		.cfi_remember_state
 466              		.cfi_def_cfa_offset 4
 467              		@ sp needed
 468 0068 5DF804FB 		ldr	pc, [sp], #4
 469              	.L22:
 470              	.LCFI9:
 471              		.cfi_restore_state
 182:Core/Src/main.c ****   }
 472              		.loc 1 182 5 is_stmt 1 view .LVU122
 473 006c FFF7FEFF 		bl	Error_Handler
 474              	.LVL29:
 475 0070 EDE7     		b	.L19
 476              	.L23:
 196:Core/Src/main.c ****   }
 477              		.loc 1 196 5 view .LVU123
 478 0072 FFF7FEFF 		bl	Error_Handler
 479              	.LVL30:
 198:Core/Src/main.c **** 
 480              		.loc 1 198 1 is_stmt 0 view .LVU124
 481 0076 F6E7     		b	.L18
 482              	.L25:
 483              		.align	2
 484              	.L24:
 485 0078 00040058 		.word	1476396032
 486              		.cfi_endproc
 487              	.LFE853:
 489              		.section	.text.HAL_TIM_PeriodElapsedCallback,"ax",%progbits
 490              		.align	1
 491              		.global	HAL_TIM_PeriodElapsedCallback
 492              		.syntax unified
 493              		.thumb
 494              		.thumb_func
 496              	HAL_TIM_PeriodElapsedCallback:
 497              	.LVL31:
 498              	.LFB857:
 306:Core/Src/main.c ****     }
 307:Core/Src/main.c ****   }
 308:Core/Src/main.c **** }
 309:Core/Src/main.c **** /**
 310:Core/Src/main.c ****  * @brief  Period elapsed callback in non blocking mode
 311:Core/Src/main.c ****  * @note   This function is called  when TIM17 interrupt took place, inside
 312:Core/Src/main.c ****  * HAL_TIM_IRQHandler(). It makes a direct call to HAL_IncTick() to increment
 313:Core/Src/main.c ****  * a global variable "uwTick" used as application time base.
 314:Core/Src/main.c ****  * @param  htim : TIM handle
 315:Core/Src/main.c ****  * @retval None
 316:Core/Src/main.c ****  */
 317:Core/Src/main.c **** void HAL_TIM_PeriodElapsedCallback(TIM_HandleTypeDef *htim)
 318:Core/Src/main.c **** {
 499              		.loc 1 318 1 is_stmt 1 view -0
 500              		.cfi_startproc
 501              		@ args = 0, pretend = 0, frame = 0
 502              		@ frame_needed = 0, uses_anonymous_args = 0
 503              		.loc 1 318 1 is_stmt 0 view .LVU126
 504 0000 08B5     		push	{r3, lr}
 505              	.LCFI10:
ARM GAS  C:\Users\Lenovo\AppData\Local\Temp\ccuWeQNH.s 			page 25


 506              		.cfi_def_cfa_offset 8
 507              		.cfi_offset 3, -8
 508              		.cfi_offset 14, -4
 319:Core/Src/main.c ****   /* USER CODE BEGIN Callback 0 */
 320:Core/Src/main.c **** 
 321:Core/Src/main.c ****   /* USER CODE END Callback 0 */
 322:Core/Src/main.c ****   if (htim->Instance == TIM17)
 509              		.loc 1 322 3 is_stmt 1 view .LVU127
 510              		.loc 1 322 11 is_stmt 0 view .LVU128
 511 0002 0268     		ldr	r2, [r0]
 512              		.loc 1 322 6 view .LVU129
 513 0004 034B     		ldr	r3, .L30
 514 0006 9A42     		cmp	r2, r3
 515 0008 00D0     		beq	.L29
 516              	.LVL32:
 517              	.L26:
 323:Core/Src/main.c ****   {
 324:Core/Src/main.c ****     HAL_IncTick();
 325:Core/Src/main.c ****   }
 326:Core/Src/main.c ****   /* USER CODE BEGIN Callback 1 */
 327:Core/Src/main.c **** 
 328:Core/Src/main.c ****   /* USER CODE END Callback 1 */
 329:Core/Src/main.c **** }
 518              		.loc 1 329 1 view .LVU130
 519 000a 08BD     		pop	{r3, pc}
 520              	.LVL33:
 521              	.L29:
 324:Core/Src/main.c ****   }
 522              		.loc 1 324 5 is_stmt 1 view .LVU131
 523 000c FFF7FEFF 		bl	HAL_IncTick
 524              	.LVL34:
 525              		.loc 1 329 1 is_stmt 0 view .LVU132
 526 0010 FBE7     		b	.L26
 527              	.L31:
 528 0012 00BF     		.align	2
 529              	.L30:
 530 0014 00480140 		.word	1073825792
 531              		.cfi_endproc
 532              	.LFE857:
 534              		.section	.rodata.fnCMSIS1_Thread_Config_Assert.str1.4,"aMS",%progbits,1
 535              		.align	2
 536              	.LC7:
 537 0000 54687265 		.ascii	"Thread could not be created due to insuffient heap "
 537      61642063 
 537      6F756C64 
 537      206E6F74 
 537      20626520 
 538 0033 73706163 		.ascii	"space during pvPortMalloc\015\000"
 538      65206475 
 538      72696E67 
 538      20707650 
 538      6F72744D 
 539              		.section	.text.fnCMSIS1_Thread_Config_Assert,"ax",%progbits
 540              		.align	1
 541              		.global	fnCMSIS1_Thread_Config_Assert
 542              		.syntax unified
 543              		.thumb
ARM GAS  C:\Users\Lenovo\AppData\Local\Temp\ccuWeQNH.s 			page 26


 544              		.thumb_func
 546              	fnCMSIS1_Thread_Config_Assert:
 547              	.LVL35:
 548              	.LFB858:
 330:Core/Src/main.c **** 
 331:Core/Src/main.c **** void fnCMSIS1_Thread_Config_Assert(osThreadId osThreadHandler)
 332:Core/Src/main.c **** {
 549              		.loc 1 332 1 is_stmt 1 view -0
 550              		.cfi_startproc
 551              		@ args = 0, pretend = 0, frame = 0
 552              		@ frame_needed = 0, uses_anonymous_args = 0
 333:Core/Src/main.c ****   if (osThreadHandler == NULL)
 553              		.loc 1 333 3 view .LVU134
 554              		.loc 1 333 6 is_stmt 0 view .LVU135
 555 0000 00B1     		cbz	r0, .L38
 556 0002 7047     		bx	lr
 557              	.L38:
 332:Core/Src/main.c ****   if (osThreadHandler == NULL)
 558              		.loc 1 332 1 view .LVU136
 559 0004 08B5     		push	{r3, lr}
 560              	.LCFI11:
 561              		.cfi_def_cfa_offset 8
 562              		.cfi_offset 3, -8
 563              		.cfi_offset 14, -4
 334:Core/Src/main.c ****   {
 335:Core/Src/main.c ****     printf("Thread could not be created due to insuffient heap space during pvPortMalloc\r\n");
 564              		.loc 1 335 5 is_stmt 1 view .LVU137
 565 0006 0348     		ldr	r0, .L39
 566              	.LVL36:
 567              		.loc 1 335 5 is_stmt 0 view .LVU138
 568 0008 FFF7FEFF 		bl	puts
 569              	.LVL37:
 336:Core/Src/main.c ****     Error_Handler();
 570              		.loc 1 336 5 is_stmt 1 view .LVU139
 571 000c FFF7FEFF 		bl	Error_Handler
 572              	.LVL38:
 337:Core/Src/main.c ****   }
 338:Core/Src/main.c **** }
 573              		.loc 1 338 1 is_stmt 0 view .LVU140
 574 0010 08BD     		pop	{r3, pc}
 575              	.L40:
 576 0012 00BF     		.align	2
 577              	.L39:
 578 0014 00000000 		.word	.LC7
 579              		.cfi_endproc
 580              	.LFE858:
 582              		.section	.rodata.main.str1.4,"aMS",%progbits,1
 583              		.align	2
 584              	.LC8:
 585 0000 5461736B 		.ascii	"Task could not be creared sucessfully!!\000"
 585      20636F75 
 585      6C64206E 
 585      6F742062 
 585      65206372 
 586              		.section	.text.main,"ax",%progbits
 587              		.align	1
 588              		.global	main
ARM GAS  C:\Users\Lenovo\AppData\Local\Temp\ccuWeQNH.s 			page 27


 589              		.syntax unified
 590              		.thumb
 591              		.thumb_func
 593              	main:
 594              	.LFB852:
  83:Core/Src/main.c **** 
 595              		.loc 1 83 1 is_stmt 1 view -0
 596              		.cfi_startproc
 597              		@ Volatile: function does not return.
 598              		@ args = 0, pretend = 0, frame = 0
 599              		@ frame_needed = 0, uses_anonymous_args = 0
 600 0000 08B5     		push	{r3, lr}
 601              	.LCFI12:
 602              		.cfi_def_cfa_offset 8
 603              		.cfi_offset 3, -8
 604              		.cfi_offset 14, -4
  92:Core/Src/main.c **** 
 605              		.loc 1 92 3 view .LVU142
 606 0002 FFF7FEFF 		bl	HAL_Init
 607              	.LVL39:
  99:Core/Src/main.c **** 
 608              		.loc 1 99 3 view .LVU143
 609 0006 FFF7FEFF 		bl	SystemClock_Config
 610              	.LVL40:
 106:Core/Src/main.c ****   /* USER CODE BEGIN 2 */
 611              		.loc 1 106 3 view .LVU144
 612 000a FFF7FEFF 		bl	MX_GPIO_Init
 613              	.LVL41:
 131:Core/Src/main.c ****   if (SenderTaskID == NULL)
 614              		.loc 1 131 3 view .LVU145
 131:Core/Src/main.c ****   if (SenderTaskID == NULL)
 615              		.loc 1 131 18 is_stmt 0 view .LVU146
 616 000e 0021     		movs	r1, #0
 617 0010 0B48     		ldr	r0, .L46
 618 0012 FFF7FEFF 		bl	osThreadCreate
 619              	.LVL42:
 131:Core/Src/main.c ****   if (SenderTaskID == NULL)
 620              		.loc 1 131 16 view .LVU147
 621 0016 0B4B     		ldr	r3, .L46+4
 622 0018 1860     		str	r0, [r3]
 132:Core/Src/main.c ****   {
 623              		.loc 1 132 3 is_stmt 1 view .LVU148
 132:Core/Src/main.c ****   {
 624              		.loc 1 132 6 is_stmt 0 view .LVU149
 625 001a 50B1     		cbz	r0, .L45
 626              	.L42:
 138:Core/Src/main.c ****   fnCMSIS1_Thread_Config_Assert(ReceiverTaskID);
 627              		.loc 1 138 3 is_stmt 1 view .LVU150
 138:Core/Src/main.c ****   fnCMSIS1_Thread_Config_Assert(ReceiverTaskID);
 628              		.loc 1 138 20 is_stmt 0 view .LVU151
 629 001c 0021     		movs	r1, #0
 630 001e 0A48     		ldr	r0, .L46+8
 631 0020 FFF7FEFF 		bl	osThreadCreate
 632              	.LVL43:
 138:Core/Src/main.c ****   fnCMSIS1_Thread_Config_Assert(ReceiverTaskID);
 633              		.loc 1 138 18 view .LVU152
 634 0024 094B     		ldr	r3, .L46+12
ARM GAS  C:\Users\Lenovo\AppData\Local\Temp\ccuWeQNH.s 			page 28


 635 0026 1860     		str	r0, [r3]
 139:Core/Src/main.c ****   /* USER CODE BEGIN RTOS_THREADS */
 636              		.loc 1 139 3 is_stmt 1 view .LVU153
 637 0028 FFF7FEFF 		bl	fnCMSIS1_Thread_Config_Assert
 638              	.LVL44:
 145:Core/Src/main.c **** 
 639              		.loc 1 145 3 view .LVU154
 640 002c FFF7FEFF 		bl	osKernelStart
 641              	.LVL45:
 642              	.L43:
 151:Core/Src/main.c ****   {
 643              		.loc 1 151 3 discriminator 1 view .LVU155
 156:Core/Src/main.c ****   /* USER CODE END 3 */
 644              		.loc 1 156 3 discriminator 1 view .LVU156
 151:Core/Src/main.c ****   {
 645              		.loc 1 151 9 discriminator 1 view .LVU157
 646 0030 FEE7     		b	.L43
 647              	.L45:
 134:Core/Src/main.c ****     Error_Handler();
 648              		.loc 1 134 5 view .LVU158
 649 0032 0748     		ldr	r0, .L46+16
 650 0034 FFF7FEFF 		bl	printf
 651              	.LVL46:
 135:Core/Src/main.c ****   }
 652              		.loc 1 135 5 view .LVU159
 653 0038 FFF7FEFF 		bl	Error_Handler
 654              	.LVL47:
 655 003c EEE7     		b	.L42
 656              	.L47:
 657 003e 00BF     		.align	2
 658              	.L46:
 659 0040 00000000 		.word	.LANCHOR1
 660 0044 00000000 		.word	.LANCHOR2
 661 0048 00000000 		.word	.LANCHOR3
 662 004c 00000000 		.word	.LANCHOR0
 663 0050 00000000 		.word	.LC8
 664              		.cfi_endproc
 665              	.LFE852:
 667              		.global	os_thread_def_CMSIS1_Receiver_Task
 668              		.section	.rodata.str1.4,"aMS",%progbits,1
 669              		.align	2
 670              	.LC9:
 671 0000 434D5349 		.ascii	"CMSIS1_Receiver_Task\000"
 671      53315F52 
 671      65636569 
 671      7665725F 
 671      5461736B 
 672              		.global	ReceiverTaskID
 673              		.global	os_thread_def_CMSIS1_Sender_Task
 674 0015 000000   		.align	2
 675              	.LC10:
 676 0018 434D5349 		.ascii	"CMSIS1_Sender_Task\000"
 676      53315F53 
 676      656E6465 
 676      725F5461 
 676      736B00
 677              		.global	SenderTaskID
ARM GAS  C:\Users\Lenovo\AppData\Local\Temp\ccuWeQNH.s 			page 29


 678              		.section	.bss.ReceiverTaskID,"aw",%nobits
 679              		.align	2
 680              		.set	.LANCHOR0,. + 0
 683              	ReceiverTaskID:
 684 0000 00000000 		.space	4
 685              		.section	.bss.SenderTaskID,"aw",%nobits
 686              		.align	2
 687              		.set	.LANCHOR2,. + 0
 690              	SenderTaskID:
 691 0000 00000000 		.space	4
 692              		.section	.rodata.os_thread_def_CMSIS1_Receiver_Task,"a"
 693              		.align	2
 694              		.set	.LANCHOR3,. + 0
 697              	os_thread_def_CMSIS1_Receiver_Task:
 698 0000 00000000 		.word	.LC9
 699 0004 00000000 		.word	fnRTOSMessageReceiverTask
 700 0008 0100     		.short	1
 701 000a 0000     		.space	2
 702 000c 01000000 		.word	1
 703 0010 00010000 		.word	256
 704 0014 00000000 		.word	0
 705 0018 00000000 		.word	0
 706              		.section	.rodata.os_thread_def_CMSIS1_Sender_Task,"a"
 707              		.align	2
 708              		.set	.LANCHOR1,. + 0
 711              	os_thread_def_CMSIS1_Sender_Task:
 712 0000 18000000 		.word	.LC10
 713 0004 00000000 		.word	fnRTOSMessageSendTask
 714 0008 0000     		.short	0
 715 000a 0000     		.space	2
 716 000c 01000000 		.word	1
 717 0010 00010000 		.word	256
 718 0014 00000000 		.word	0
 719 0018 00000000 		.word	0
 720              		.text
 721              	.Letext0:
 722              		.file 3 "d:\\zodhya projects\\technical doccuments\\stm32_vscode_make\\tools\\gcc-arm-none-eabi-10
 723              		.file 4 "d:\\zodhya projects\\technical doccuments\\stm32_vscode_make\\tools\\gcc-arm-none-eabi-10
 724              		.file 5 "Drivers/CMSIS/Device/ST/STM32WLxx/Include/stm32wl55xx.h"
 725              		.file 6 "Drivers/STM32WLxx_HAL_Driver/Inc/stm32wlxx_hal_def.h"
 726              		.file 7 "Drivers/STM32WLxx_HAL_Driver/Inc/stm32wlxx_hal_dma.h"
 727              		.file 8 "Drivers/STM32WLxx_HAL_Driver/Inc/stm32wlxx_hal_gpio.h"
 728              		.file 9 "Drivers/STM32WLxx_HAL_Driver/Inc/stm32wlxx_hal_rcc.h"
 729              		.file 10 "Drivers/STM32WLxx_HAL_Driver/Inc/stm32wlxx_hal_tim.h"
 730              		.file 11 "Middlewares/Third_Party/FreeRTOS/Source/portable/GCC/ARM_CM3/portmacro.h"
 731              		.file 12 "Middlewares/Third_Party/FreeRTOS/Source/include/FreeRTOS.h"
 732              		.file 13 "Middlewares/Third_Party/FreeRTOS/Source/include/task.h"
 733              		.file 14 "Middlewares/Third_Party/FreeRTOS/Source/include/queue.h"
 734              		.file 15 "Middlewares/Third_Party/FreeRTOS/Source/CMSIS_RTOS/cmsis_os.h"
 735              		.file 16 "Drivers/STM32WLxx_HAL_Driver/Inc/stm32wlxx_ll_dma.h"
 736              		.file 17 "Core/Inc/main.h"
 737              		.file 18 "Drivers/STM32WLxx_HAL_Driver/Inc/stm32wlxx_hal.h"
 738              		.file 19 "d:\\zodhya projects\\technical doccuments\\stm32_vscode_make\\tools\\gcc-arm-none-eabi-1
 739              		.file 20 "<built-in>"
ARM GAS  C:\Users\Lenovo\AppData\Local\Temp\ccuWeQNH.s 			page 30

