ARM GAS  C:\Users\Lenovo\AppData\Local\Temp\cc5reChb.s 			page 1


   1              		.cpu cortex-m4
   2              		.arch armv7e-m
   3              		.fpu softvfp
   4              		.eabi_attribute 20, 1
   5              		.eabi_attribute 21, 1
   6              		.eabi_attribute 23, 3
   7              		.eabi_attribute 24, 1
   8              		.eabi_attribute 25, 1
   9              		.eabi_attribute 26, 1
  10              		.eabi_attribute 30, 1
  11              		.eabi_attribute 34, 1
  12              		.eabi_attribute 18, 4
  13              		.file	"syscalls.c"
  14              		.text
  15              	.Ltext0:
  16              		.cfi_sections	.debug_frame
  17              		.section	.text.ITM_SendChar,"ax",%progbits
  18              		.align	1
  19              		.global	ITM_SendChar
  20              		.syntax unified
  21              		.thumb
  22              		.thumb_func
  24              	ITM_SendChar:
  25              	.LVL0:
  26              	.LFB25:
  27              		.file 1 "Core/Src/syscalls.c"
   1:Core/Src/syscalls.c **** /**
   2:Core/Src/syscalls.c ****  ******************************************************************************
   3:Core/Src/syscalls.c ****  * @file      syscalls.c
   4:Core/Src/syscalls.c ****  * @author    Auto-generated by STM32CubeMX
   5:Core/Src/syscalls.c ****  * @brief     Minimal System calls file
   6:Core/Src/syscalls.c ****  *
   7:Core/Src/syscalls.c ****  *            For more information about which c-functions
   8:Core/Src/syscalls.c ****  *            need which of these lowlevel functions
   9:Core/Src/syscalls.c ****  *            please consult the Newlib libc-manual
  10:Core/Src/syscalls.c ****  ******************************************************************************
  11:Core/Src/syscalls.c ****  * @attention
  12:Core/Src/syscalls.c ****  *
  13:Core/Src/syscalls.c ****  * Copyright (c) 2020-2024 STMicroelectronics.
  14:Core/Src/syscalls.c ****  * All rights reserved.
  15:Core/Src/syscalls.c ****  *
  16:Core/Src/syscalls.c ****  * This software is licensed under terms that can be found in the LICENSE file
  17:Core/Src/syscalls.c ****  * in the root directory of this software component.
  18:Core/Src/syscalls.c ****  * If no LICENSE file comes with this software, it is provided AS-IS.
  19:Core/Src/syscalls.c ****  *
  20:Core/Src/syscalls.c ****  ******************************************************************************
  21:Core/Src/syscalls.c ****  */
  22:Core/Src/syscalls.c **** 
  23:Core/Src/syscalls.c **** /* Includes */
  24:Core/Src/syscalls.c **** #include <sys/stat.h>
  25:Core/Src/syscalls.c **** #include <stdlib.h>
  26:Core/Src/syscalls.c **** #include <errno.h>
  27:Core/Src/syscalls.c **** #include <stdio.h>
  28:Core/Src/syscalls.c **** #include <signal.h>
  29:Core/Src/syscalls.c **** #include <time.h>
  30:Core/Src/syscalls.c **** #include <sys/time.h>
  31:Core/Src/syscalls.c **** #include <sys/times.h>
ARM GAS  C:\Users\Lenovo\AppData\Local\Temp\cc5reChb.s 			page 2


  32:Core/Src/syscalls.c **** 
  33:Core/Src/syscalls.c **** ///////////////////////////////////////////////////////////////////////////////////////////////////
  34:Core/Src/syscalls.c **** //					Implementation of printf like feature using ARM Cortex M3/M4/ ITM functionality
  35:Core/Src/syscalls.c **** //					This function will not work for ARM Cortex M0/M0+
  36:Core/Src/syscalls.c **** //					If you are using Cortex M0, then you can use semihosting feature of openOCD
  37:Core/Src/syscalls.c **** ///////////////////////////////////////////////////////////////////////////////////////////////////
  38:Core/Src/syscalls.c **** 
  39:Core/Src/syscalls.c **** // Debug Exception and Monitor Control Register base address
  40:Core/Src/syscalls.c **** #define DEMCR *((volatile uint32_t *)0xE000EDFCU)
  41:Core/Src/syscalls.c **** 
  42:Core/Src/syscalls.c **** /* ITM register addresses */
  43:Core/Src/syscalls.c **** #define ITM_STIMULUS_PORT0 *((volatile uint32_t *)0xE0000000)
  44:Core/Src/syscalls.c **** #define ITM_TRACE_EN *((volatile uint32_t *)0xE0000E00)
  45:Core/Src/syscalls.c **** 
  46:Core/Src/syscalls.c **** void ITM_SendChar(uint8_t ch)
  47:Core/Src/syscalls.c **** {
  28              		.loc 1 47 1 view -0
  29              		.cfi_startproc
  30              		@ args = 0, pretend = 0, frame = 0
  31              		@ frame_needed = 0, uses_anonymous_args = 0
  32              		@ link register save eliminated.
  48:Core/Src/syscalls.c **** 
  49:Core/Src/syscalls.c ****   // Enable TRCENA
  50:Core/Src/syscalls.c ****   DEMCR |= (1 << 24);
  33              		.loc 1 50 3 view .LVU1
  34              		.loc 1 50 9 is_stmt 0 view .LVU2
  35 0000 4FF0E022 		mov	r2, #-536813568
  36 0004 D2F8FC3D 		ldr	r3, [r2, #3580]
  37 0008 43F08073 		orr	r3, r3, #16777216
  38 000c C2F8FC3D 		str	r3, [r2, #3580]
  51:Core/Src/syscalls.c **** 
  52:Core/Src/syscalls.c ****   // enable stimulus port 0
  53:Core/Src/syscalls.c ****   ITM_TRACE_EN |= (1 << 0);
  39              		.loc 1 53 3 is_stmt 1 view .LVU3
  40              		.loc 1 53 16 is_stmt 0 view .LVU4
  41 0010 4FF06042 		mov	r2, #-536870912
  42 0014 D2F8003E 		ldr	r3, [r2, #3584]
  43 0018 43F00103 		orr	r3, r3, #1
  44 001c C2F8003E 		str	r3, [r2, #3584]
  54:Core/Src/syscalls.c **** 
  55:Core/Src/syscalls.c ****   // read FIFO status in bit [0]:
  56:Core/Src/syscalls.c ****   while (!(ITM_STIMULUS_PORT0 & 1))
  45              		.loc 1 56 3 is_stmt 1 view .LVU5
  46              	.L2:
  57:Core/Src/syscalls.c ****     ;
  47              		.loc 1 57 5 discriminator 1 view .LVU6
  56:Core/Src/syscalls.c ****     ;
  48              		.loc 1 56 9 discriminator 1 view .LVU7
  56:Core/Src/syscalls.c ****     ;
  49              		.loc 1 56 12 is_stmt 0 discriminator 1 view .LVU8
  50 0020 4FF06043 		mov	r3, #-536870912
  51 0024 1B68     		ldr	r3, [r3]
  56:Core/Src/syscalls.c ****     ;
  52              		.loc 1 56 9 discriminator 1 view .LVU9
  53 0026 13F0010F 		tst	r3, #1
  54 002a F9D0     		beq	.L2
  58:Core/Src/syscalls.c **** 
ARM GAS  C:\Users\Lenovo\AppData\Local\Temp\cc5reChb.s 			page 3


  59:Core/Src/syscalls.c ****   // Write to ITM stimulus port0
  60:Core/Src/syscalls.c ****   ITM_STIMULUS_PORT0 = ch;
  55              		.loc 1 60 3 is_stmt 1 view .LVU10
  56              		.loc 1 60 22 is_stmt 0 view .LVU11
  57 002c 4FF06043 		mov	r3, #-536870912
  58 0030 1860     		str	r0, [r3]
  61:Core/Src/syscalls.c **** }
  59              		.loc 1 61 1 view .LVU12
  60 0032 7047     		bx	lr
  61              		.cfi_endproc
  62              	.LFE25:
  64              		.section	.text.initialise_monitor_handles,"ax",%progbits
  65              		.align	1
  66              		.global	initialise_monitor_handles
  67              		.syntax unified
  68              		.thumb
  69              		.thumb_func
  71              	initialise_monitor_handles:
  72              	.LFB26:
  62:Core/Src/syscalls.c **** 
  63:Core/Src/syscalls.c **** /* Variables */
  64:Core/Src/syscalls.c **** extern int __io_putchar(int ch) __attribute__((weak));
  65:Core/Src/syscalls.c **** extern int __io_getchar(void) __attribute__((weak));
  66:Core/Src/syscalls.c **** 
  67:Core/Src/syscalls.c **** 
  68:Core/Src/syscalls.c **** char *__env[1] = { 0 };
  69:Core/Src/syscalls.c **** char **environ = __env;
  70:Core/Src/syscalls.c **** 
  71:Core/Src/syscalls.c **** 
  72:Core/Src/syscalls.c **** /* Functions */
  73:Core/Src/syscalls.c **** void initialise_monitor_handles()
  74:Core/Src/syscalls.c **** {
  73              		.loc 1 74 1 is_stmt 1 view -0
  74              		.cfi_startproc
  75              		@ args = 0, pretend = 0, frame = 0
  76              		@ frame_needed = 0, uses_anonymous_args = 0
  77              		@ link register save eliminated.
  75:Core/Src/syscalls.c **** }
  78              		.loc 1 75 1 view .LVU14
  79 0000 7047     		bx	lr
  80              		.cfi_endproc
  81              	.LFE26:
  83              		.section	.text._getpid,"ax",%progbits
  84              		.align	1
  85              		.global	_getpid
  86              		.syntax unified
  87              		.thumb
  88              		.thumb_func
  90              	_getpid:
  91              	.LFB27:
  76:Core/Src/syscalls.c **** 
  77:Core/Src/syscalls.c **** int _getpid(void)
  78:Core/Src/syscalls.c **** {
  92              		.loc 1 78 1 view -0
  93              		.cfi_startproc
  94              		@ args = 0, pretend = 0, frame = 0
  95              		@ frame_needed = 0, uses_anonymous_args = 0
ARM GAS  C:\Users\Lenovo\AppData\Local\Temp\cc5reChb.s 			page 4


  96              		@ link register save eliminated.
  79:Core/Src/syscalls.c ****   return 1;
  97              		.loc 1 79 3 view .LVU16
  80:Core/Src/syscalls.c **** }
  98              		.loc 1 80 1 is_stmt 0 view .LVU17
  99 0000 0120     		movs	r0, #1
 100 0002 7047     		bx	lr
 101              		.cfi_endproc
 102              	.LFE27:
 104              		.section	.text._kill,"ax",%progbits
 105              		.align	1
 106              		.global	_kill
 107              		.syntax unified
 108              		.thumb
 109              		.thumb_func
 111              	_kill:
 112              	.LVL1:
 113              	.LFB28:
  81:Core/Src/syscalls.c **** 
  82:Core/Src/syscalls.c **** int _kill(int pid, int sig)
  83:Core/Src/syscalls.c **** {
 114              		.loc 1 83 1 is_stmt 1 view -0
 115              		.cfi_startproc
 116              		@ args = 0, pretend = 0, frame = 0
 117              		@ frame_needed = 0, uses_anonymous_args = 0
 118              		.loc 1 83 1 is_stmt 0 view .LVU19
 119 0000 08B5     		push	{r3, lr}
 120              	.LCFI0:
 121              		.cfi_def_cfa_offset 8
 122              		.cfi_offset 3, -8
 123              		.cfi_offset 14, -4
  84:Core/Src/syscalls.c ****   (void)pid;
 124              		.loc 1 84 3 is_stmt 1 view .LVU20
  85:Core/Src/syscalls.c ****   (void)sig;
 125              		.loc 1 85 3 view .LVU21
  86:Core/Src/syscalls.c ****   errno = EINVAL;
 126              		.loc 1 86 3 view .LVU22
 127 0002 FFF7FEFF 		bl	__errno
 128              	.LVL2:
 129              		.loc 1 86 9 is_stmt 0 view .LVU23
 130 0006 1623     		movs	r3, #22
 131 0008 0360     		str	r3, [r0]
  87:Core/Src/syscalls.c ****   return -1;
 132              		.loc 1 87 3 is_stmt 1 view .LVU24
  88:Core/Src/syscalls.c **** }
 133              		.loc 1 88 1 is_stmt 0 view .LVU25
 134 000a 4FF0FF30 		mov	r0, #-1
 135 000e 08BD     		pop	{r3, pc}
 136              		.cfi_endproc
 137              	.LFE28:
 139              		.section	.text._exit,"ax",%progbits
 140              		.align	1
 141              		.global	_exit
 142              		.syntax unified
 143              		.thumb
 144              		.thumb_func
 146              	_exit:
ARM GAS  C:\Users\Lenovo\AppData\Local\Temp\cc5reChb.s 			page 5


 147              	.LVL3:
 148              	.LFB29:
  89:Core/Src/syscalls.c **** 
  90:Core/Src/syscalls.c **** void _exit (int status)
  91:Core/Src/syscalls.c **** {
 149              		.loc 1 91 1 is_stmt 1 view -0
 150              		.cfi_startproc
 151              		@ Volatile: function does not return.
 152              		@ args = 0, pretend = 0, frame = 0
 153              		@ frame_needed = 0, uses_anonymous_args = 0
 154              		.loc 1 91 1 is_stmt 0 view .LVU27
 155 0000 08B5     		push	{r3, lr}
 156              	.LCFI1:
 157              		.cfi_def_cfa_offset 8
 158              		.cfi_offset 3, -8
 159              		.cfi_offset 14, -4
  92:Core/Src/syscalls.c ****   _kill(status, -1);
 160              		.loc 1 92 3 is_stmt 1 view .LVU28
 161 0002 4FF0FF31 		mov	r1, #-1
 162 0006 FFF7FEFF 		bl	_kill
 163              	.LVL4:
 164              	.L8:
  93:Core/Src/syscalls.c ****   while (1) {}    /* Make sure we hang here */
 165              		.loc 1 93 3 discriminator 1 view .LVU29
 166              		.loc 1 93 14 discriminator 1 view .LVU30
 167              		.loc 1 93 9 discriminator 1 view .LVU31
 168 000a FEE7     		b	.L8
 169              		.cfi_endproc
 170              	.LFE29:
 172              		.section	.text._read,"ax",%progbits
 173              		.align	1
 174              		.weak	_read
 175              		.syntax unified
 176              		.thumb
 177              		.thumb_func
 179              	_read:
 180              	.LVL5:
 181              	.LFB30:
  94:Core/Src/syscalls.c **** }
  95:Core/Src/syscalls.c **** 
  96:Core/Src/syscalls.c **** __attribute__((weak)) int _read(int file, char *ptr, int len)
  97:Core/Src/syscalls.c **** {
 182              		.loc 1 97 1 view -0
 183              		.cfi_startproc
 184              		@ args = 0, pretend = 0, frame = 0
 185              		@ frame_needed = 0, uses_anonymous_args = 0
 186              		.loc 1 97 1 is_stmt 0 view .LVU33
 187 0000 70B5     		push	{r4, r5, r6, lr}
 188              	.LCFI2:
 189              		.cfi_def_cfa_offset 16
 190              		.cfi_offset 4, -16
 191              		.cfi_offset 5, -12
 192              		.cfi_offset 6, -8
 193              		.cfi_offset 14, -4
 194 0002 0C46     		mov	r4, r1
 195 0004 1646     		mov	r6, r2
  98:Core/Src/syscalls.c ****   (void)file;
ARM GAS  C:\Users\Lenovo\AppData\Local\Temp\cc5reChb.s 			page 6


 196              		.loc 1 98 3 is_stmt 1 view .LVU34
  99:Core/Src/syscalls.c ****   int DataIdx;
 197              		.loc 1 99 3 view .LVU35
 100:Core/Src/syscalls.c **** 
 101:Core/Src/syscalls.c ****   for (DataIdx = 0; DataIdx < len; DataIdx++)
 198              		.loc 1 101 3 view .LVU36
 199              	.LVL6:
 200              		.loc 1 101 16 is_stmt 0 view .LVU37
 201 0006 0025     		movs	r5, #0
 202              		.loc 1 101 3 view .LVU38
 203 0008 06E0     		b	.L11
 204              	.LVL7:
 205              	.L12:
 102:Core/Src/syscalls.c ****   {
 103:Core/Src/syscalls.c ****     *ptr++ = __io_getchar();
 206              		.loc 1 103 5 is_stmt 1 discriminator 3 view .LVU39
 207              		.loc 1 103 14 is_stmt 0 discriminator 3 view .LVU40
 208 000a FFF7FEFF 		bl	__io_getchar
 209              	.LVL8:
 210              		.loc 1 103 9 discriminator 3 view .LVU41
 211 000e 2146     		mov	r1, r4
 212              	.LVL9:
 213              		.loc 1 103 12 discriminator 3 view .LVU42
 214 0010 01F8010B 		strb	r0, [r1], #1
 215              	.LVL10:
 101:Core/Src/syscalls.c ****   {
 216              		.loc 1 101 36 is_stmt 1 discriminator 3 view .LVU43
 101:Core/Src/syscalls.c ****   {
 217              		.loc 1 101 43 is_stmt 0 discriminator 3 view .LVU44
 218 0014 0135     		adds	r5, r5, #1
 219              	.LVL11:
 220              		.loc 1 103 9 discriminator 3 view .LVU45
 221 0016 0C46     		mov	r4, r1
 222              	.LVL12:
 223              	.L11:
 101:Core/Src/syscalls.c ****   {
 224              		.loc 1 101 21 is_stmt 1 discriminator 1 view .LVU46
 101:Core/Src/syscalls.c ****   {
 225              		.loc 1 101 3 is_stmt 0 discriminator 1 view .LVU47
 226 0018 B542     		cmp	r5, r6
 227 001a F6DB     		blt	.L12
 104:Core/Src/syscalls.c ****   }
 105:Core/Src/syscalls.c **** 
 106:Core/Src/syscalls.c ****   return len;
 228              		.loc 1 106 3 is_stmt 1 view .LVU48
 107:Core/Src/syscalls.c **** }
 229              		.loc 1 107 1 is_stmt 0 view .LVU49
 230 001c 3046     		mov	r0, r6
 231 001e 70BD     		pop	{r4, r5, r6, pc}
 232              		.loc 1 107 1 view .LVU50
 233              		.cfi_endproc
 234              	.LFE30:
 236              		.section	.text._write,"ax",%progbits
 237              		.align	1
 238              		.weak	_write
 239              		.syntax unified
 240              		.thumb
ARM GAS  C:\Users\Lenovo\AppData\Local\Temp\cc5reChb.s 			page 7


 241              		.thumb_func
 243              	_write:
 244              	.LVL13:
 245              	.LFB31:
 108:Core/Src/syscalls.c **** 
 109:Core/Src/syscalls.c **** __attribute__((weak)) int _write(int file, char *ptr, int len)
 110:Core/Src/syscalls.c **** {
 246              		.loc 1 110 1 is_stmt 1 view -0
 247              		.cfi_startproc
 248              		@ args = 0, pretend = 0, frame = 0
 249              		@ frame_needed = 0, uses_anonymous_args = 0
 250              		.loc 1 110 1 is_stmt 0 view .LVU52
 251 0000 70B5     		push	{r4, r5, r6, lr}
 252              	.LCFI3:
 253              		.cfi_def_cfa_offset 16
 254              		.cfi_offset 4, -16
 255              		.cfi_offset 5, -12
 256              		.cfi_offset 6, -8
 257              		.cfi_offset 14, -4
 258 0002 0C46     		mov	r4, r1
 259 0004 1646     		mov	r6, r2
 111:Core/Src/syscalls.c ****   (void)file;
 260              		.loc 1 111 3 is_stmt 1 view .LVU53
 112:Core/Src/syscalls.c ****   int DataIdx;
 261              		.loc 1 112 3 view .LVU54
 113:Core/Src/syscalls.c **** 
 114:Core/Src/syscalls.c ****   for (DataIdx = 0; DataIdx < len; DataIdx++)
 262              		.loc 1 114 3 view .LVU55
 263              	.LVL14:
 264              		.loc 1 114 16 is_stmt 0 view .LVU56
 265 0006 0025     		movs	r5, #0
 266              		.loc 1 114 3 view .LVU57
 267 0008 04E0     		b	.L15
 268              	.LVL15:
 269              	.L16:
 115:Core/Src/syscalls.c ****   {
 116:Core/Src/syscalls.c ****     //__io_putchar(*ptr++);
 117:Core/Src/syscalls.c ****     ITM_SendChar(*ptr++);
 270              		.loc 1 117 5 is_stmt 1 discriminator 3 view .LVU58
 271              		.loc 1 117 5 is_stmt 0 discriminator 3 view .LVU59
 272 000a 14F8010B 		ldrb	r0, [r4], #1	@ zero_extendqisi2
 273              	.LVL16:
 274              		.loc 1 117 5 discriminator 3 view .LVU60
 275 000e FFF7FEFF 		bl	ITM_SendChar
 276              	.LVL17:
 114:Core/Src/syscalls.c ****   {
 277              		.loc 1 114 36 is_stmt 1 discriminator 3 view .LVU61
 114:Core/Src/syscalls.c ****   {
 278              		.loc 1 114 43 is_stmt 0 discriminator 3 view .LVU62
 279 0012 0135     		adds	r5, r5, #1
 280              	.LVL18:
 281              	.L15:
 114:Core/Src/syscalls.c ****   {
 282              		.loc 1 114 21 is_stmt 1 discriminator 1 view .LVU63
 114:Core/Src/syscalls.c ****   {
 283              		.loc 1 114 3 is_stmt 0 discriminator 1 view .LVU64
 284 0014 B542     		cmp	r5, r6
ARM GAS  C:\Users\Lenovo\AppData\Local\Temp\cc5reChb.s 			page 8


 285 0016 F8DB     		blt	.L16
 118:Core/Src/syscalls.c ****   }
 119:Core/Src/syscalls.c ****   return len;
 286              		.loc 1 119 3 is_stmt 1 view .LVU65
 120:Core/Src/syscalls.c **** }
 287              		.loc 1 120 1 is_stmt 0 view .LVU66
 288 0018 3046     		mov	r0, r6
 289 001a 70BD     		pop	{r4, r5, r6, pc}
 290              		.loc 1 120 1 view .LVU67
 291              		.cfi_endproc
 292              	.LFE31:
 294              		.section	.text._close,"ax",%progbits
 295              		.align	1
 296              		.global	_close
 297              		.syntax unified
 298              		.thumb
 299              		.thumb_func
 301              	_close:
 302              	.LVL19:
 303              	.LFB32:
 121:Core/Src/syscalls.c **** 
 122:Core/Src/syscalls.c **** int _close(int file)
 123:Core/Src/syscalls.c **** {
 304              		.loc 1 123 1 is_stmt 1 view -0
 305              		.cfi_startproc
 306              		@ args = 0, pretend = 0, frame = 0
 307              		@ frame_needed = 0, uses_anonymous_args = 0
 308              		@ link register save eliminated.
 124:Core/Src/syscalls.c ****   (void)file;
 309              		.loc 1 124 3 view .LVU69
 125:Core/Src/syscalls.c ****   return -1;
 310              		.loc 1 125 3 view .LVU70
 126:Core/Src/syscalls.c **** }
 311              		.loc 1 126 1 is_stmt 0 view .LVU71
 312 0000 4FF0FF30 		mov	r0, #-1
 313              	.LVL20:
 314              		.loc 1 126 1 view .LVU72
 315 0004 7047     		bx	lr
 316              		.cfi_endproc
 317              	.LFE32:
 319              		.section	.text._fstat,"ax",%progbits
 320              		.align	1
 321              		.global	_fstat
 322              		.syntax unified
 323              		.thumb
 324              		.thumb_func
 326              	_fstat:
 327              	.LVL21:
 328              	.LFB33:
 127:Core/Src/syscalls.c **** 
 128:Core/Src/syscalls.c **** 
 129:Core/Src/syscalls.c **** int _fstat(int file, struct stat *st)
 130:Core/Src/syscalls.c **** {
 329              		.loc 1 130 1 is_stmt 1 view -0
 330              		.cfi_startproc
 331              		@ args = 0, pretend = 0, frame = 0
 332              		@ frame_needed = 0, uses_anonymous_args = 0
ARM GAS  C:\Users\Lenovo\AppData\Local\Temp\cc5reChb.s 			page 9


 333              		@ link register save eliminated.
 131:Core/Src/syscalls.c ****   (void)file;
 334              		.loc 1 131 3 view .LVU74
 132:Core/Src/syscalls.c ****   st->st_mode = S_IFCHR;
 335              		.loc 1 132 3 view .LVU75
 336              		.loc 1 132 15 is_stmt 0 view .LVU76
 337 0000 4FF40053 		mov	r3, #8192
 338 0004 4B60     		str	r3, [r1, #4]
 133:Core/Src/syscalls.c ****   return 0;
 339              		.loc 1 133 3 is_stmt 1 view .LVU77
 134:Core/Src/syscalls.c **** }
 340              		.loc 1 134 1 is_stmt 0 view .LVU78
 341 0006 0020     		movs	r0, #0
 342              	.LVL22:
 343              		.loc 1 134 1 view .LVU79
 344 0008 7047     		bx	lr
 345              		.cfi_endproc
 346              	.LFE33:
 348              		.section	.text._isatty,"ax",%progbits
 349              		.align	1
 350              		.global	_isatty
 351              		.syntax unified
 352              		.thumb
 353              		.thumb_func
 355              	_isatty:
 356              	.LVL23:
 357              	.LFB34:
 135:Core/Src/syscalls.c **** 
 136:Core/Src/syscalls.c **** int _isatty(int file)
 137:Core/Src/syscalls.c **** {
 358              		.loc 1 137 1 is_stmt 1 view -0
 359              		.cfi_startproc
 360              		@ args = 0, pretend = 0, frame = 0
 361              		@ frame_needed = 0, uses_anonymous_args = 0
 362              		@ link register save eliminated.
 138:Core/Src/syscalls.c ****   (void)file;
 363              		.loc 1 138 3 view .LVU81
 139:Core/Src/syscalls.c ****   return 1;
 364              		.loc 1 139 3 view .LVU82
 140:Core/Src/syscalls.c **** }
 365              		.loc 1 140 1 is_stmt 0 view .LVU83
 366 0000 0120     		movs	r0, #1
 367              	.LVL24:
 368              		.loc 1 140 1 view .LVU84
 369 0002 7047     		bx	lr
 370              		.cfi_endproc
 371              	.LFE34:
 373              		.section	.text._lseek,"ax",%progbits
 374              		.align	1
 375              		.global	_lseek
 376              		.syntax unified
 377              		.thumb
 378              		.thumb_func
 380              	_lseek:
 381              	.LVL25:
 382              	.LFB35:
 141:Core/Src/syscalls.c **** 
ARM GAS  C:\Users\Lenovo\AppData\Local\Temp\cc5reChb.s 			page 10


 142:Core/Src/syscalls.c **** int _lseek(int file, int ptr, int dir)
 143:Core/Src/syscalls.c **** {
 383              		.loc 1 143 1 is_stmt 1 view -0
 384              		.cfi_startproc
 385              		@ args = 0, pretend = 0, frame = 0
 386              		@ frame_needed = 0, uses_anonymous_args = 0
 387              		@ link register save eliminated.
 144:Core/Src/syscalls.c ****   (void)file;
 388              		.loc 1 144 3 view .LVU86
 145:Core/Src/syscalls.c ****   (void)ptr;
 389              		.loc 1 145 3 view .LVU87
 146:Core/Src/syscalls.c ****   (void)dir;
 390              		.loc 1 146 3 view .LVU88
 147:Core/Src/syscalls.c ****   return 0;
 391              		.loc 1 147 3 view .LVU89
 148:Core/Src/syscalls.c **** }
 392              		.loc 1 148 1 is_stmt 0 view .LVU90
 393 0000 0020     		movs	r0, #0
 394              	.LVL26:
 395              		.loc 1 148 1 view .LVU91
 396 0002 7047     		bx	lr
 397              		.cfi_endproc
 398              	.LFE35:
 400              		.section	.text._open,"ax",%progbits
 401              		.align	1
 402              		.global	_open
 403              		.syntax unified
 404              		.thumb
 405              		.thumb_func
 407              	_open:
 408              	.LVL27:
 409              	.LFB36:
 149:Core/Src/syscalls.c **** 
 150:Core/Src/syscalls.c **** int _open(char *path, int flags, ...)
 151:Core/Src/syscalls.c **** {
 410              		.loc 1 151 1 is_stmt 1 view -0
 411              		.cfi_startproc
 412              		@ args = 4, pretend = 12, frame = 0
 413              		@ frame_needed = 0, uses_anonymous_args = 1
 414              		@ link register save eliminated.
 415              		.loc 1 151 1 is_stmt 0 view .LVU93
 416 0000 0EB4     		push	{r1, r2, r3}
 417              	.LCFI4:
 418              		.cfi_def_cfa_offset 12
 419              		.cfi_offset 1, -12
 420              		.cfi_offset 2, -8
 421              		.cfi_offset 3, -4
 152:Core/Src/syscalls.c ****   (void)path;
 422              		.loc 1 152 3 is_stmt 1 view .LVU94
 153:Core/Src/syscalls.c ****   (void)flags;
 423              		.loc 1 153 3 view .LVU95
 154:Core/Src/syscalls.c ****   /* Pretend like we always fail */
 155:Core/Src/syscalls.c ****   return -1;
 424              		.loc 1 155 3 view .LVU96
 156:Core/Src/syscalls.c **** }
 425              		.loc 1 156 1 is_stmt 0 view .LVU97
 426 0002 4FF0FF30 		mov	r0, #-1
ARM GAS  C:\Users\Lenovo\AppData\Local\Temp\cc5reChb.s 			page 11


 427              	.LVL28:
 428              		.loc 1 156 1 view .LVU98
 429 0006 03B0     		add	sp, sp, #12
 430              	.LCFI5:
 431              		.cfi_restore 3
 432              		.cfi_restore 2
 433              		.cfi_restore 1
 434              		.cfi_def_cfa_offset 0
 435 0008 7047     		bx	lr
 436              		.cfi_endproc
 437              	.LFE36:
 439              		.section	.text._wait,"ax",%progbits
 440              		.align	1
 441              		.global	_wait
 442              		.syntax unified
 443              		.thumb
 444              		.thumb_func
 446              	_wait:
 447              	.LVL29:
 448              	.LFB37:
 157:Core/Src/syscalls.c **** 
 158:Core/Src/syscalls.c **** int _wait(int *status)
 159:Core/Src/syscalls.c **** {
 449              		.loc 1 159 1 is_stmt 1 view -0
 450              		.cfi_startproc
 451              		@ args = 0, pretend = 0, frame = 0
 452              		@ frame_needed = 0, uses_anonymous_args = 0
 453              		.loc 1 159 1 is_stmt 0 view .LVU100
 454 0000 08B5     		push	{r3, lr}
 455              	.LCFI6:
 456              		.cfi_def_cfa_offset 8
 457              		.cfi_offset 3, -8
 458              		.cfi_offset 14, -4
 160:Core/Src/syscalls.c ****   (void)status;
 459              		.loc 1 160 3 is_stmt 1 view .LVU101
 161:Core/Src/syscalls.c ****   errno = ECHILD;
 460              		.loc 1 161 3 view .LVU102
 461 0002 FFF7FEFF 		bl	__errno
 462              	.LVL30:
 463              		.loc 1 161 9 is_stmt 0 view .LVU103
 464 0006 0A23     		movs	r3, #10
 465 0008 0360     		str	r3, [r0]
 162:Core/Src/syscalls.c ****   return -1;
 466              		.loc 1 162 3 is_stmt 1 view .LVU104
 163:Core/Src/syscalls.c **** }
 467              		.loc 1 163 1 is_stmt 0 view .LVU105
 468 000a 4FF0FF30 		mov	r0, #-1
 469 000e 08BD     		pop	{r3, pc}
 470              		.cfi_endproc
 471              	.LFE37:
 473              		.section	.text._unlink,"ax",%progbits
 474              		.align	1
 475              		.global	_unlink
 476              		.syntax unified
 477              		.thumb
 478              		.thumb_func
 480              	_unlink:
ARM GAS  C:\Users\Lenovo\AppData\Local\Temp\cc5reChb.s 			page 12


 481              	.LVL31:
 482              	.LFB38:
 164:Core/Src/syscalls.c **** 
 165:Core/Src/syscalls.c **** int _unlink(char *name)
 166:Core/Src/syscalls.c **** {
 483              		.loc 1 166 1 is_stmt 1 view -0
 484              		.cfi_startproc
 485              		@ args = 0, pretend = 0, frame = 0
 486              		@ frame_needed = 0, uses_anonymous_args = 0
 487              		.loc 1 166 1 is_stmt 0 view .LVU107
 488 0000 08B5     		push	{r3, lr}
 489              	.LCFI7:
 490              		.cfi_def_cfa_offset 8
 491              		.cfi_offset 3, -8
 492              		.cfi_offset 14, -4
 167:Core/Src/syscalls.c ****   (void)name;
 493              		.loc 1 167 3 is_stmt 1 view .LVU108
 168:Core/Src/syscalls.c ****   errno = ENOENT;
 494              		.loc 1 168 3 view .LVU109
 495 0002 FFF7FEFF 		bl	__errno
 496              	.LVL32:
 497              		.loc 1 168 9 is_stmt 0 view .LVU110
 498 0006 0223     		movs	r3, #2
 499 0008 0360     		str	r3, [r0]
 169:Core/Src/syscalls.c ****   return -1;
 500              		.loc 1 169 3 is_stmt 1 view .LVU111
 170:Core/Src/syscalls.c **** }
 501              		.loc 1 170 1 is_stmt 0 view .LVU112
 502 000a 4FF0FF30 		mov	r0, #-1
 503 000e 08BD     		pop	{r3, pc}
 504              		.cfi_endproc
 505              	.LFE38:
 507              		.section	.text._times,"ax",%progbits
 508              		.align	1
 509              		.global	_times
 510              		.syntax unified
 511              		.thumb
 512              		.thumb_func
 514              	_times:
 515              	.LVL33:
 516              	.LFB39:
 171:Core/Src/syscalls.c **** 
 172:Core/Src/syscalls.c **** int _times(struct tms *buf)
 173:Core/Src/syscalls.c **** {
 517              		.loc 1 173 1 is_stmt 1 view -0
 518              		.cfi_startproc
 519              		@ args = 0, pretend = 0, frame = 0
 520              		@ frame_needed = 0, uses_anonymous_args = 0
 521              		@ link register save eliminated.
 174:Core/Src/syscalls.c ****   (void)buf;
 522              		.loc 1 174 3 view .LVU114
 175:Core/Src/syscalls.c ****   return -1;
 523              		.loc 1 175 3 view .LVU115
 176:Core/Src/syscalls.c **** }
 524              		.loc 1 176 1 is_stmt 0 view .LVU116
 525 0000 4FF0FF30 		mov	r0, #-1
 526              	.LVL34:
ARM GAS  C:\Users\Lenovo\AppData\Local\Temp\cc5reChb.s 			page 13


 527              		.loc 1 176 1 view .LVU117
 528 0004 7047     		bx	lr
 529              		.cfi_endproc
 530              	.LFE39:
 532              		.section	.text._stat,"ax",%progbits
 533              		.align	1
 534              		.global	_stat
 535              		.syntax unified
 536              		.thumb
 537              		.thumb_func
 539              	_stat:
 540              	.LVL35:
 541              	.LFB40:
 177:Core/Src/syscalls.c **** 
 178:Core/Src/syscalls.c **** int _stat(char *file, struct stat *st)
 179:Core/Src/syscalls.c **** {
 542              		.loc 1 179 1 is_stmt 1 view -0
 543              		.cfi_startproc
 544              		@ args = 0, pretend = 0, frame = 0
 545              		@ frame_needed = 0, uses_anonymous_args = 0
 546              		@ link register save eliminated.
 180:Core/Src/syscalls.c ****   (void)file;
 547              		.loc 1 180 3 view .LVU119
 181:Core/Src/syscalls.c ****   st->st_mode = S_IFCHR;
 548              		.loc 1 181 3 view .LVU120
 549              		.loc 1 181 15 is_stmt 0 view .LVU121
 550 0000 4FF40053 		mov	r3, #8192
 551 0004 4B60     		str	r3, [r1, #4]
 182:Core/Src/syscalls.c ****   return 0;
 552              		.loc 1 182 3 is_stmt 1 view .LVU122
 183:Core/Src/syscalls.c **** }
 553              		.loc 1 183 1 is_stmt 0 view .LVU123
 554 0006 0020     		movs	r0, #0
 555              	.LVL36:
 556              		.loc 1 183 1 view .LVU124
 557 0008 7047     		bx	lr
 558              		.cfi_endproc
 559              	.LFE40:
 561              		.section	.text._link,"ax",%progbits
 562              		.align	1
 563              		.global	_link
 564              		.syntax unified
 565              		.thumb
 566              		.thumb_func
 568              	_link:
 569              	.LVL37:
 570              	.LFB41:
 184:Core/Src/syscalls.c **** 
 185:Core/Src/syscalls.c **** int _link(char *old, char *new)
 186:Core/Src/syscalls.c **** {
 571              		.loc 1 186 1 is_stmt 1 view -0
 572              		.cfi_startproc
 573              		@ args = 0, pretend = 0, frame = 0
 574              		@ frame_needed = 0, uses_anonymous_args = 0
 575              		.loc 1 186 1 is_stmt 0 view .LVU126
 576 0000 08B5     		push	{r3, lr}
 577              	.LCFI8:
ARM GAS  C:\Users\Lenovo\AppData\Local\Temp\cc5reChb.s 			page 14


 578              		.cfi_def_cfa_offset 8
 579              		.cfi_offset 3, -8
 580              		.cfi_offset 14, -4
 187:Core/Src/syscalls.c ****   (void)old;
 581              		.loc 1 187 3 is_stmt 1 view .LVU127
 188:Core/Src/syscalls.c ****   (void)new;
 582              		.loc 1 188 3 view .LVU128
 189:Core/Src/syscalls.c ****   errno = EMLINK;
 583              		.loc 1 189 3 view .LVU129
 584 0002 FFF7FEFF 		bl	__errno
 585              	.LVL38:
 586              		.loc 1 189 9 is_stmt 0 view .LVU130
 587 0006 1F23     		movs	r3, #31
 588 0008 0360     		str	r3, [r0]
 190:Core/Src/syscalls.c ****   return -1;
 589              		.loc 1 190 3 is_stmt 1 view .LVU131
 191:Core/Src/syscalls.c **** }
 590              		.loc 1 191 1 is_stmt 0 view .LVU132
 591 000a 4FF0FF30 		mov	r0, #-1
 592 000e 08BD     		pop	{r3, pc}
 593              		.cfi_endproc
 594              	.LFE41:
 596              		.section	.text._fork,"ax",%progbits
 597              		.align	1
 598              		.global	_fork
 599              		.syntax unified
 600              		.thumb
 601              		.thumb_func
 603              	_fork:
 604              	.LFB42:
 192:Core/Src/syscalls.c **** 
 193:Core/Src/syscalls.c **** int _fork(void)
 194:Core/Src/syscalls.c **** {
 605              		.loc 1 194 1 is_stmt 1 view -0
 606              		.cfi_startproc
 607              		@ args = 0, pretend = 0, frame = 0
 608              		@ frame_needed = 0, uses_anonymous_args = 0
 609 0000 08B5     		push	{r3, lr}
 610              	.LCFI9:
 611              		.cfi_def_cfa_offset 8
 612              		.cfi_offset 3, -8
 613              		.cfi_offset 14, -4
 195:Core/Src/syscalls.c ****   errno = EAGAIN;
 614              		.loc 1 195 3 view .LVU134
 615 0002 FFF7FEFF 		bl	__errno
 616              	.LVL39:
 617              		.loc 1 195 9 is_stmt 0 view .LVU135
 618 0006 0B23     		movs	r3, #11
 619 0008 0360     		str	r3, [r0]
 196:Core/Src/syscalls.c ****   return -1;
 620              		.loc 1 196 3 is_stmt 1 view .LVU136
 197:Core/Src/syscalls.c **** }
 621              		.loc 1 197 1 is_stmt 0 view .LVU137
 622 000a 4FF0FF30 		mov	r0, #-1
 623 000e 08BD     		pop	{r3, pc}
 624              		.cfi_endproc
 625              	.LFE42:
ARM GAS  C:\Users\Lenovo\AppData\Local\Temp\cc5reChb.s 			page 15


 627              		.section	.text._execve,"ax",%progbits
 628              		.align	1
 629              		.global	_execve
 630              		.syntax unified
 631              		.thumb
 632              		.thumb_func
 634              	_execve:
 635              	.LVL40:
 636              	.LFB43:
 198:Core/Src/syscalls.c **** 
 199:Core/Src/syscalls.c **** int _execve(char *name, char **argv, char **env)
 200:Core/Src/syscalls.c **** {
 637              		.loc 1 200 1 is_stmt 1 view -0
 638              		.cfi_startproc
 639              		@ args = 0, pretend = 0, frame = 0
 640              		@ frame_needed = 0, uses_anonymous_args = 0
 641              		.loc 1 200 1 is_stmt 0 view .LVU139
 642 0000 08B5     		push	{r3, lr}
 643              	.LCFI10:
 644              		.cfi_def_cfa_offset 8
 645              		.cfi_offset 3, -8
 646              		.cfi_offset 14, -4
 201:Core/Src/syscalls.c ****   (void)name;
 647              		.loc 1 201 3 is_stmt 1 view .LVU140
 202:Core/Src/syscalls.c ****   (void)argv;
 648              		.loc 1 202 3 view .LVU141
 203:Core/Src/syscalls.c ****   (void)env;
 649              		.loc 1 203 3 view .LVU142
 204:Core/Src/syscalls.c ****   errno = ENOMEM;
 650              		.loc 1 204 3 view .LVU143
 651 0002 FFF7FEFF 		bl	__errno
 652              	.LVL41:
 653              		.loc 1 204 9 is_stmt 0 view .LVU144
 654 0006 0C23     		movs	r3, #12
 655 0008 0360     		str	r3, [r0]
 205:Core/Src/syscalls.c ****   return -1;
 656              		.loc 1 205 3 is_stmt 1 view .LVU145
 206:Core/Src/syscalls.c **** }
 657              		.loc 1 206 1 is_stmt 0 view .LVU146
 658 000a 4FF0FF30 		mov	r0, #-1
 659 000e 08BD     		pop	{r3, pc}
 660              		.cfi_endproc
 661              	.LFE43:
 663              		.global	environ
 664              		.global	__env
 665              		.section	.bss.__env,"aw",%nobits
 666              		.align	2
 669              	__env:
 670 0000 00000000 		.space	4
 671              		.section	.data.environ,"aw"
 672              		.align	2
 675              	environ:
 676 0000 00000000 		.word	__env
 677              		.weak	__io_getchar
 678              		.text
 679              	.Letext0:
 680              		.file 2 "d:\\zodhya projects\\technical doccuments\\stm32_vscode_make\\tools\\gcc-arm-none-eabi-10
ARM GAS  C:\Users\Lenovo\AppData\Local\Temp\cc5reChb.s 			page 16


 681              		.file 3 "d:\\zodhya projects\\technical doccuments\\stm32_vscode_make\\tools\\gcc-arm-none-eabi-10
 682              		.file 4 "d:\\zodhya projects\\technical doccuments\\stm32_vscode_make\\tools\\gcc-arm-none-eabi-10
 683              		.file 5 "d:\\zodhya projects\\technical doccuments\\stm32_vscode_make\\tools\\gcc-arm-none-eabi-10
 684              		.file 6 "d:\\zodhya projects\\technical doccuments\\stm32_vscode_make\\tools\\gcc-arm-none-eabi-10
 685              		.file 7 "d:\\zodhya projects\\technical doccuments\\stm32_vscode_make\\tools\\gcc-arm-none-eabi-10
 686              		.file 8 "d:\\zodhya projects\\technical doccuments\\stm32_vscode_make\\tools\\gcc-arm-none-eabi-10
 687              		.file 9 "d:\\zodhya projects\\technical doccuments\\stm32_vscode_make\\tools\\gcc-arm-none-eabi-10
 688              		.file 10 "d:\\zodhya projects\\technical doccuments\\stm32_vscode_make\\tools\\gcc-arm-none-eabi-1
ARM GAS  C:\Users\Lenovo\AppData\Local\Temp\cc5reChb.s 			page 17

