ARM GAS  C:\Users\Lenovo\AppData\Local\Temp\ccB7pXta.s 			page 1


   1              		.cpu cortex-m4
   2              		.arch armv7e-m
   3              		.fpu softvfp
   4              		.eabi_attribute 20, 1
   5              		.eabi_attribute 21, 1
   6              		.eabi_attribute 23, 3
   7              		.eabi_attribute 24, 1
   8              		.eabi_attribute 25, 1
   9              		.eabi_attribute 26, 1
  10              		.eabi_attribute 30, 1
  11              		.eabi_attribute 34, 1
  12              		.eabi_attribute 18, 4
  13              		.file	"cmsis_os2_sw_tim.c"
  14              		.text
  15              	.Ltext0:
  16              		.cfi_sections	.debug_frame
  17              		.section	.rodata.SwTimCommonCallback.str1.4,"aMS",%progbits,1
  18              		.align	2
  19              	.LC0:
  20 0000 54696D65 		.ascii	"Timer Callback arg: %u\015\012\000"
  20      72204361 
  20      6C6C6261 
  20      636B2061 
  20      72673A20 
  21 0019 000000   		.align	2
  22              	.LC1:
  23 001c 4F6E6573 		.ascii	"Oneshot timer invoked\015\000"
  23      686F7420 
  23      74696D65 
  23      7220696E 
  23      766F6B65 
  24 0033 00       		.align	2
  25              	.LC2:
  26 0034 5369676E 		.ascii	"Signal flag set from Oneshot timer callback\015\000"
  26      616C2066 
  26      6C616720 
  26      73657420 
  26      66726F6D 
  27 0061 000000   		.align	2
  28              	.LC3:
  29 0064 53746F70 		.ascii	"Stoping Oneshot timer\015\000"
  29      696E6720 
  29      4F6E6573 
  29      686F7420 
  29      74696D65 
  30 007b 00       		.align	2
  31              	.LC4:
  32 007c 44656C65 		.ascii	"Deleting Oneshot timer\015\000"
  32      74696E67 
  32      204F6E65 
  32      73686F74 
  32      2074696D 
  33              		.align	2
  34              	.LC5:
  35 0094 50657269 		.ascii	"Periodic timer invoked\015\000"
  35      6F646963 
  35      2074696D 
ARM GAS  C:\Users\Lenovo\AppData\Local\Temp\ccB7pXta.s 			page 2


  35      65722069 
  35      6E766F6B 
  36              		.align	2
  37              	.LC6:
  38 00ac 5369676E 		.ascii	"Signal flag set from Periodic timer callback\015\000"
  38      616C2066 
  38      6C616720 
  38      73657420 
  38      66726F6D 
  39              		.section	.text.SwTimCommonCallback,"ax",%progbits
  40              		.align	1
  41              		.global	SwTimCommonCallback
  42              		.syntax unified
  43              		.thumb
  44              		.thumb_func
  46              	SwTimCommonCallback:
  47              	.LVL0:
  48              	.LFB853:
  49              		.file 1 "Core/Src/cmsis_os2_sw_tim.c"
   1:Core/Src/cmsis_os2_sw_tim.c **** #include <stdio.h>
   2:Core/Src/cmsis_os2_sw_tim.c **** #include <string.h>
   3:Core/Src/cmsis_os2_sw_tim.c **** #include <stdarg.h>
   4:Core/Src/cmsis_os2_sw_tim.c **** #include <stdint.h>
   5:Core/Src/cmsis_os2_sw_tim.c **** 
   6:Core/Src/cmsis_os2_sw_tim.c **** #include "main.h"
   7:Core/Src/cmsis_os2_sw_tim.c **** #include "cmsis_os.h"
   8:Core/Src/cmsis_os2_sw_tim.c **** #include "cmsis_os2.h"
   9:Core/Src/cmsis_os2_sw_tim.c **** #include "cmsis_os2_attr.h"
  10:Core/Src/cmsis_os2_sw_tim.c **** 
  11:Core/Src/cmsis_os2_sw_tim.c **** //***User PV***************//
  12:Core/Src/cmsis_os2_sw_tim.c **** //2 SW Timers are created: Oneshot and Periodic
  13:Core/Src/cmsis_os2_sw_tim.c **** osTimerId_t osOneshotTimId, osPeriodicTimId;
  14:Core/Src/cmsis_os2_sw_tim.c **** uint8_t u8TimerCBArg;
  15:Core/Src/cmsis_os2_sw_tim.c **** 
  16:Core/Src/cmsis_os2_sw_tim.c **** 
  17:Core/Src/cmsis_os2_sw_tim.c **** uint32_t u32SignalFlagSetFromOneshotCB = 0x00000100;
  18:Core/Src/cmsis_os2_sw_tim.c **** uint32_t u32SignalFlagSetFromPeriodicCB = 0x00000200;
  19:Core/Src/cmsis_os2_sw_tim.c **** 
  20:Core/Src/cmsis_os2_sw_tim.c **** //extern the reciever thread's handler id
  21:Core/Src/cmsis_os2_sw_tim.c **** extern osThreadId_t OS2SynchReceiverID;
  22:Core/Src/cmsis_os2_sw_tim.c **** /**
  23:Core/Src/cmsis_os2_sw_tim.c ****  * @brief : config 2 timers by config the struct: osTimerAttr_t like Time name etc
  24:Core/Src/cmsis_os2_sw_tim.c ****  * 
  25:Core/Src/cmsis_os2_sw_tim.c ****  */
  26:Core/Src/cmsis_os2_sw_tim.c **** osTimerAttr_t osOneshotTimAttr = {
  27:Core/Src/cmsis_os2_sw_tim.c ****     .name = "OneShotTimer"
  28:Core/Src/cmsis_os2_sw_tim.c **** };
  29:Core/Src/cmsis_os2_sw_tim.c **** osTimerAttr_t osPeriodicTimAttr = {
  30:Core/Src/cmsis_os2_sw_tim.c ****     .name = "PeriodicTimer"
  31:Core/Src/cmsis_os2_sw_tim.c **** };
  32:Core/Src/cmsis_os2_sw_tim.c **** 
  33:Core/Src/cmsis_os2_sw_tim.c **** /**
  34:Core/Src/cmsis_os2_sw_tim.c ****  * @brief : create 2 timers by calling osTimerNew()
  35:Core/Src/cmsis_os2_sw_tim.c ****  * 
  36:Core/Src/cmsis_os2_sw_tim.c ****  */
  37:Core/Src/cmsis_os2_sw_tim.c **** 
  38:Core/Src/cmsis_os2_sw_tim.c **** bool fnCreateTimer(void)
ARM GAS  C:\Users\Lenovo\AppData\Local\Temp\ccB7pXta.s 			page 3


  39:Core/Src/cmsis_os2_sw_tim.c **** {
  40:Core/Src/cmsis_os2_sw_tim.c ****     osTimerFunc_t fnPtrTimCallback = SwTimCommonCallback;
  41:Core/Src/cmsis_os2_sw_tim.c ****     u8TimerCBArg = (uint8_t)ONESHOT_TIM_NAME_FLAG;
  42:Core/Src/cmsis_os2_sw_tim.c ****     osOneshotTimId = osTimerNew(fnPtrTimCallback, osTimerOnce, (void *)u8TimerCBArg, &osOneshotTimA
  43:Core/Src/cmsis_os2_sw_tim.c **** 
  44:Core/Src/cmsis_os2_sw_tim.c ****     fnPtrTimCallback = SwTimCommonCallback;
  45:Core/Src/cmsis_os2_sw_tim.c ****     u8TimerCBArg = (uint8_t)PERIODIC_TIM_NAME_FLAG;
  46:Core/Src/cmsis_os2_sw_tim.c ****     osPeriodicTimId = osTimerNew(fnPtrTimCallback, osTimerPeriodic, (void *)u8TimerCBArg, &osPeriod
  47:Core/Src/cmsis_os2_sw_tim.c **** 
  48:Core/Src/cmsis_os2_sw_tim.c ****     if(osOneshotTimId == NULL || osPeriodicTimId == NULL)
  49:Core/Src/cmsis_os2_sw_tim.c ****     {
  50:Core/Src/cmsis_os2_sw_tim.c ****         printf("Timers could not be created\r\n");
  51:Core/Src/cmsis_os2_sw_tim.c ****         return false;
  52:Core/Src/cmsis_os2_sw_tim.c ****     }
  53:Core/Src/cmsis_os2_sw_tim.c ****     else
  54:Core/Src/cmsis_os2_sw_tim.c ****     {
  55:Core/Src/cmsis_os2_sw_tim.c ****         return true;
  56:Core/Src/cmsis_os2_sw_tim.c ****     }
  57:Core/Src/cmsis_os2_sw_tim.c **** }
  58:Core/Src/cmsis_os2_sw_tim.c **** void fnTimerStart(void)
  59:Core/Src/cmsis_os2_sw_tim.c **** {
  60:Core/Src/cmsis_os2_sw_tim.c ****     OS2ConfigAssert(osTimerStart(osOneshotTimId, (uint32_t)ONE_SHOT_TIMER_PERIOD));
  61:Core/Src/cmsis_os2_sw_tim.c ****     OS2ConfigAssert(osTimerStart(osPeriodicTimId, (uint32_t)PERIODIC_TIMER_PERIOD));
  62:Core/Src/cmsis_os2_sw_tim.c **** }
  63:Core/Src/cmsis_os2_sw_tim.c **** void SwTimCommonCallback(void const *argument)
  64:Core/Src/cmsis_os2_sw_tim.c **** {
  50              		.loc 1 64 1 view -0
  51              		.cfi_startproc
  52              		@ args = 0, pretend = 0, frame = 0
  53              		@ frame_needed = 0, uses_anonymous_args = 0
  54              		.loc 1 64 1 is_stmt 0 view .LVU1
  55 0000 10B5     		push	{r4, lr}
  56              	.LCFI0:
  57              		.cfi_def_cfa_offset 8
  58              		.cfi_offset 4, -8
  59              		.cfi_offset 14, -4
  65:Core/Src/cmsis_os2_sw_tim.c ****     uint32_t u32SignalApiReturnFlag = 0;
  60              		.loc 1 65 5 is_stmt 1 view .LVU2
  61              	.LVL1:
  66:Core/Src/cmsis_os2_sw_tim.c ****     u8TimerCBArg = (uint8_t)argument;
  62              		.loc 1 66 5 view .LVU3
  63              		.loc 1 66 20 is_stmt 0 view .LVU4
  64 0002 C1B2     		uxtb	r1, r0
  65              		.loc 1 66 18 view .LVU5
  66 0004 1A4C     		ldr	r4, .L7
  67 0006 2170     		strb	r1, [r4]
  67:Core/Src/cmsis_os2_sw_tim.c ****     printf("Timer Callback arg: %u\r\n",u8TimerCBArg);
  68              		.loc 1 67 5 is_stmt 1 view .LVU6
  69 0008 1A48     		ldr	r0, .L7+4
  70              	.LVL2:
  71              		.loc 1 67 5 is_stmt 0 view .LVU7
  72 000a FFF7FEFF 		bl	printf
  73              	.LVL3:
  68:Core/Src/cmsis_os2_sw_tim.c ****     if(u8TimerCBArg == ONESHOT_TIM_NAME_FLAG)
  74              		.loc 1 68 5 is_stmt 1 view .LVU8
  75              		.loc 1 68 21 is_stmt 0 view .LVU9
  76 000e 2378     		ldrb	r3, [r4]	@ zero_extendqisi2
ARM GAS  C:\Users\Lenovo\AppData\Local\Temp\ccB7pXta.s 			page 4


  77              		.loc 1 68 7 view .LVU10
  78 0010 012B     		cmp	r3, #1
  79 0012 02D0     		beq	.L5
  69:Core/Src/cmsis_os2_sw_tim.c ****     {
  70:Core/Src/cmsis_os2_sw_tim.c ****         printf("Oneshot timer invoked\r\n");
  71:Core/Src/cmsis_os2_sw_tim.c ****         printf("Signal flag set from Oneshot timer callback\r\n");
  72:Core/Src/cmsis_os2_sw_tim.c ****         u32SignalApiReturnFlag = osThreadFlagsSet(OS2SynchReceiverID, u32SignalFlagSetFromOneshotCB
  73:Core/Src/cmsis_os2_sw_tim.c ****         printf("Stoping Oneshot timer\r\n");
  74:Core/Src/cmsis_os2_sw_tim.c ****         OS2ConfigAssert(osTimerStop(osOneshotTimId));
  75:Core/Src/cmsis_os2_sw_tim.c ****         printf("Deleting Oneshot timer\r\n");
  76:Core/Src/cmsis_os2_sw_tim.c ****         OS2ConfigAssert(osTimerDelete(osOneshotTimId));
  77:Core/Src/cmsis_os2_sw_tim.c ****     }
  78:Core/Src/cmsis_os2_sw_tim.c ****     else if(u8TimerCBArg == PERIODIC_TIM_NAME_FLAG)
  80              		.loc 1 78 10 is_stmt 1 view .LVU11
  81              		.loc 1 78 12 is_stmt 0 view .LVU12
  82 0014 022B     		cmp	r3, #2
  83 0016 1ED0     		beq	.L6
  84              	.LVL4:
  85              	.L1:
  79:Core/Src/cmsis_os2_sw_tim.c ****     {
  80:Core/Src/cmsis_os2_sw_tim.c ****         printf("Periodic timer invoked\r\n");
  81:Core/Src/cmsis_os2_sw_tim.c ****         printf("Signal flag set from Periodic timer callback\r\n");
  82:Core/Src/cmsis_os2_sw_tim.c ****         u32SignalApiReturnFlag = osThreadFlagsSet(OS2SynchReceiverID, u32SignalFlagSetFromPeriodicC
  83:Core/Src/cmsis_os2_sw_tim.c ****     }
  84:Core/Src/cmsis_os2_sw_tim.c **** }...
  86              		.loc 1 84 1 view .LVU13
  87 0018 10BD     		pop	{r4, pc}
  88              	.LVL5:
  89              	.L5:
  70:Core/Src/cmsis_os2_sw_tim.c ****         printf("Oneshot timer invoked\r\n");
  90              		.loc 1 70 9 is_stmt 1 view .LVU14
  91 001a 1748     		ldr	r0, .L7+8
  92 001c FFF7FEFF 		bl	puts
  93              	.LVL6:
  71:Core/Src/cmsis_os2_sw_tim.c ****         printf("Signal flag set from Oneshot timer callback\r\n");
  94              		.loc 1 71 9 view .LVU15
  95 0020 1648     		ldr	r0, .L7+12
  96 0022 FFF7FEFF 		bl	puts
  97              	.LVL7:
  72:Core/Src/cmsis_os2_sw_tim.c ****         u32SignalApiReturnFlag = osThreadFlagsSet(OS2SynchReceiverID, u32SignalFlagSetFromOneshotCB
  98              		.loc 1 72 9 view .LVU16
  72:Core/Src/cmsis_os2_sw_tim.c ****         u32SignalApiReturnFlag = osThreadFlagsSet(OS2SynchReceiverID, u32SignalFlagSetFromOneshotCB
  99              		.loc 1 72 34 is_stmt 0 view .LVU17
 100 0026 164B     		ldr	r3, .L7+16
 101 0028 1968     		ldr	r1, [r3]
 102 002a 164B     		ldr	r3, .L7+20
 103 002c 1868     		ldr	r0, [r3]
 104 002e FFF7FEFF 		bl	osThreadFlagsSet
 105              	.LVL8:
  73:Core/Src/cmsis_os2_sw_tim.c ****         printf("Stoping Oneshot timer\r\n");
 106              		.loc 1 73 9 is_stmt 1 view .LVU18
 107 0032 1548     		ldr	r0, .L7+24
 108 0034 FFF7FEFF 		bl	puts
 109              	.LVL9:
  74:Core/Src/cmsis_os2_sw_tim.c ****         OS2ConfigAssert(osTimerStop(osOneshotTimId));
 110              		.loc 1 74 9 view .LVU19
 111 0038 144C     		ldr	r4, .L7+28
ARM GAS  C:\Users\Lenovo\AppData\Local\Temp\ccB7pXta.s 			page 5


 112 003a 2068     		ldr	r0, [r4]
 113 003c FFF7FEFF 		bl	osTimerStop
 114              	.LVL10:
 115 0040 FFF7FEFF 		bl	OS2ConfigAssert
 116              	.LVL11:
  75:Core/Src/cmsis_os2_sw_tim.c ****         printf("Deleting Oneshot timer\r\n");
 117              		.loc 1 75 9 view .LVU20
 118 0044 1248     		ldr	r0, .L7+32
 119 0046 FFF7FEFF 		bl	puts
 120              	.LVL12:
  76:Core/Src/cmsis_os2_sw_tim.c ****         OS2ConfigAssert(osTimerDelete(osOneshotTimId));
 121              		.loc 1 76 9 view .LVU21
 122 004a 2068     		ldr	r0, [r4]
 123 004c FFF7FEFF 		bl	osTimerDelete
 124              	.LVL13:
 125 0050 FFF7FEFF 		bl	OS2ConfigAssert
 126              	.LVL14:
 127 0054 E0E7     		b	.L1
 128              	.LVL15:
 129              	.L6:
  80:Core/Src/cmsis_os2_sw_tim.c ****         printf("Periodic timer invoked\r\n");
 130              		.loc 1 80 9 view .LVU22
 131 0056 0F48     		ldr	r0, .L7+36
 132 0058 FFF7FEFF 		bl	puts
 133              	.LVL16:
  81:Core/Src/cmsis_os2_sw_tim.c ****         printf("Signal flag set from Periodic timer callback\r\n");
 134              		.loc 1 81 9 view .LVU23
 135 005c 0E48     		ldr	r0, .L7+40
 136 005e FFF7FEFF 		bl	puts
 137              	.LVL17:
  82:Core/Src/cmsis_os2_sw_tim.c ****         u32SignalApiReturnFlag = osThreadFlagsSet(OS2SynchReceiverID, u32SignalFlagSetFromPeriodicC
 138              		.loc 1 82 9 view .LVU24
  82:Core/Src/cmsis_os2_sw_tim.c ****         u32SignalApiReturnFlag = osThreadFlagsSet(OS2SynchReceiverID, u32SignalFlagSetFromPeriodicC
 139              		.loc 1 82 34 is_stmt 0 view .LVU25
 140 0062 0E4B     		ldr	r3, .L7+44
 141 0064 1968     		ldr	r1, [r3]
 142 0066 074B     		ldr	r3, .L7+20
 143 0068 1868     		ldr	r0, [r3]
 144 006a FFF7FEFF 		bl	osThreadFlagsSet
 145              	.LVL18:
 146              		.loc 1 84 1 view .LVU26
 147 006e D3E7     		b	.L1
 148              	.L8:
 149              		.align	2
 150              	.L7:
 151 0070 00000000 		.word	.LANCHOR0
 152 0074 00000000 		.word	.LC0
 153 0078 1C000000 		.word	.LC1
 154 007c 34000000 		.word	.LC2
 155 0080 00000000 		.word	.LANCHOR1
 156 0084 00000000 		.word	OS2SynchReceiverID
 157 0088 64000000 		.word	.LC3
 158 008c 00000000 		.word	.LANCHOR2
 159 0090 7C000000 		.word	.LC4
 160 0094 94000000 		.word	.LC5
 161 0098 AC000000 		.word	.LC6
 162 009c 00000000 		.word	.LANCHOR3
ARM GAS  C:\Users\Lenovo\AppData\Local\Temp\ccB7pXta.s 			page 6


 163              		.cfi_endproc
 164              	.LFE853:
 166              		.section	.rodata.fnCreateTimer.str1.4,"aMS",%progbits,1
 167              		.align	2
 168              	.LC7:
 169 0000 54696D65 		.ascii	"Timers could not be created\015\000"
 169      72732063 
 169      6F756C64 
 169      206E6F74 
 169      20626520 
 170              		.section	.text.fnCreateTimer,"ax",%progbits
 171              		.align	1
 172              		.global	fnCreateTimer
 173              		.syntax unified
 174              		.thumb
 175              		.thumb_func
 177              	fnCreateTimer:
 178              	.LFB851:
  39:Core/Src/cmsis_os2_sw_tim.c **** {
 179              		.loc 1 39 1 is_stmt 1 view -0
 180              		.cfi_startproc
 181              		@ args = 0, pretend = 0, frame = 0
 182              		@ frame_needed = 0, uses_anonymous_args = 0
 183 0000 F8B5     		push	{r3, r4, r5, r6, r7, lr}
 184              	.LCFI1:
 185              		.cfi_def_cfa_offset 24
 186              		.cfi_offset 3, -24
 187              		.cfi_offset 4, -20
 188              		.cfi_offset 5, -16
 189              		.cfi_offset 6, -12
 190              		.cfi_offset 7, -8
 191              		.cfi_offset 14, -4
  40:Core/Src/cmsis_os2_sw_tim.c ****     osTimerFunc_t fnPtrTimCallback = SwTimCommonCallback;
 192              		.loc 1 40 5 view .LVU28
  41:Core/Src/cmsis_os2_sw_tim.c ****     u8TimerCBArg = (uint8_t)ONESHOT_TIM_NAME_FLAG;
 193              		.loc 1 41 5 view .LVU29
  41:Core/Src/cmsis_os2_sw_tim.c ****     u8TimerCBArg = (uint8_t)ONESHOT_TIM_NAME_FLAG;
 194              		.loc 1 41 18 is_stmt 0 view .LVU30
 195 0002 0F4F     		ldr	r7, .L14
 196 0004 0124     		movs	r4, #1
 197 0006 3C70     		strb	r4, [r7]
  42:Core/Src/cmsis_os2_sw_tim.c ****     osOneshotTimId = osTimerNew(fnPtrTimCallback, osTimerOnce, (void *)u8TimerCBArg, &osOneshotTimA
 198              		.loc 1 42 5 is_stmt 1 view .LVU31
  42:Core/Src/cmsis_os2_sw_tim.c ****     osOneshotTimId = osTimerNew(fnPtrTimCallback, osTimerOnce, (void *)u8TimerCBArg, &osOneshotTimA
 199              		.loc 1 42 22 is_stmt 0 view .LVU32
 200 0008 0E4E     		ldr	r6, .L14+4
 201 000a 0F4B     		ldr	r3, .L14+8
 202 000c 2246     		mov	r2, r4
 203 000e 0021     		movs	r1, #0
 204 0010 3046     		mov	r0, r6
 205 0012 FFF7FEFF 		bl	osTimerNew
 206              	.LVL19:
  42:Core/Src/cmsis_os2_sw_tim.c ****     osOneshotTimId = osTimerNew(fnPtrTimCallback, osTimerOnce, (void *)u8TimerCBArg, &osOneshotTimA
 207              		.loc 1 42 20 view .LVU33
 208 0016 0D4D     		ldr	r5, .L14+12
 209 0018 2860     		str	r0, [r5]
  44:Core/Src/cmsis_os2_sw_tim.c ****     fnPtrTimCallback = SwTimCommonCallback;
ARM GAS  C:\Users\Lenovo\AppData\Local\Temp\ccB7pXta.s 			page 7


 210              		.loc 1 44 5 is_stmt 1 view .LVU34
  45:Core/Src/cmsis_os2_sw_tim.c ****     u8TimerCBArg = (uint8_t)PERIODIC_TIM_NAME_FLAG;
 211              		.loc 1 45 5 view .LVU35
  45:Core/Src/cmsis_os2_sw_tim.c ****     u8TimerCBArg = (uint8_t)PERIODIC_TIM_NAME_FLAG;
 212              		.loc 1 45 18 is_stmt 0 view .LVU36
 213 001a 0222     		movs	r2, #2
 214 001c 3A70     		strb	r2, [r7]
  46:Core/Src/cmsis_os2_sw_tim.c ****     osPeriodicTimId = osTimerNew(fnPtrTimCallback, osTimerPeriodic, (void *)u8TimerCBArg, &osPeriod
 215              		.loc 1 46 5 is_stmt 1 view .LVU37
  46:Core/Src/cmsis_os2_sw_tim.c ****     osPeriodicTimId = osTimerNew(fnPtrTimCallback, osTimerPeriodic, (void *)u8TimerCBArg, &osPeriod
 216              		.loc 1 46 23 is_stmt 0 view .LVU38
 217 001e 0C4B     		ldr	r3, .L14+16
 218 0020 2146     		mov	r1, r4
 219 0022 3046     		mov	r0, r6
 220 0024 FFF7FEFF 		bl	osTimerNew
 221              	.LVL20:
  46:Core/Src/cmsis_os2_sw_tim.c ****     osPeriodicTimId = osTimerNew(fnPtrTimCallback, osTimerPeriodic, (void *)u8TimerCBArg, &osPeriod
 222              		.loc 1 46 21 view .LVU39
 223 0028 0A4B     		ldr	r3, .L14+20
 224 002a 1860     		str	r0, [r3]
  48:Core/Src/cmsis_os2_sw_tim.c ****     if(osOneshotTimId == NULL || osPeriodicTimId == NULL)
 225              		.loc 1 48 5 is_stmt 1 view .LVU40
  48:Core/Src/cmsis_os2_sw_tim.c ****     if(osOneshotTimId == NULL || osPeriodicTimId == NULL)
 226              		.loc 1 48 23 is_stmt 0 view .LVU41
 227 002c 2B68     		ldr	r3, [r5]
  48:Core/Src/cmsis_os2_sw_tim.c ****     if(osOneshotTimId == NULL || osPeriodicTimId == NULL)
 228              		.loc 1 48 7 view .LVU42
 229 002e 13B1     		cbz	r3, .L10
  48:Core/Src/cmsis_os2_sw_tim.c ****     if(osOneshotTimId == NULL || osPeriodicTimId == NULL)
 230              		.loc 1 48 31 discriminator 1 view .LVU43
 231 0030 08B1     		cbz	r0, .L10
  55:Core/Src/cmsis_os2_sw_tim.c ****         return true;
 232              		.loc 1 55 16 view .LVU44
 233 0032 0120     		movs	r0, #1
 234              	.L11:
  57:Core/Src/cmsis_os2_sw_tim.c **** }
 235              		.loc 1 57 1 view .LVU45
 236 0034 F8BD     		pop	{r3, r4, r5, r6, r7, pc}
 237              	.L10:
  50:Core/Src/cmsis_os2_sw_tim.c ****         printf("Timers could not be created\r\n");
 238              		.loc 1 50 9 is_stmt 1 view .LVU46
 239 0036 0848     		ldr	r0, .L14+24
 240 0038 FFF7FEFF 		bl	puts
 241              	.LVL21:
  51:Core/Src/cmsis_os2_sw_tim.c ****         return false;
 242              		.loc 1 51 9 view .LVU47
  51:Core/Src/cmsis_os2_sw_tim.c ****         return false;
 243              		.loc 1 51 16 is_stmt 0 view .LVU48
 244 003c 0020     		movs	r0, #0
 245 003e F9E7     		b	.L11
 246              	.L15:
 247              		.align	2
 248              	.L14:
 249 0040 00000000 		.word	.LANCHOR0
 250 0044 00000000 		.word	SwTimCommonCallback
 251 0048 00000000 		.word	.LANCHOR4
 252 004c 00000000 		.word	.LANCHOR2
ARM GAS  C:\Users\Lenovo\AppData\Local\Temp\ccB7pXta.s 			page 8


 253 0050 00000000 		.word	.LANCHOR5
 254 0054 00000000 		.word	.LANCHOR6
 255 0058 00000000 		.word	.LC7
 256              		.cfi_endproc
 257              	.LFE851:
 259              		.section	.text.fnTimerStart,"ax",%progbits
 260              		.align	1
 261              		.global	fnTimerStart
 262              		.syntax unified
 263              		.thumb
 264              		.thumb_func
 266              	fnTimerStart:
 267              	.LFB852:
  59:Core/Src/cmsis_os2_sw_tim.c **** {
 268              		.loc 1 59 1 is_stmt 1 view -0
 269              		.cfi_startproc
 270              		@ args = 0, pretend = 0, frame = 0
 271              		@ frame_needed = 0, uses_anonymous_args = 0
 272 0000 08B5     		push	{r3, lr}
 273              	.LCFI2:
 274              		.cfi_def_cfa_offset 8
 275              		.cfi_offset 3, -8
 276              		.cfi_offset 14, -4
  60:Core/Src/cmsis_os2_sw_tim.c ****     OS2ConfigAssert(osTimerStart(osOneshotTimId, (uint32_t)ONE_SHOT_TIMER_PERIOD));
 277              		.loc 1 60 5 view .LVU50
 278 0002 4FF47A61 		mov	r1, #4000
 279 0006 074B     		ldr	r3, .L18
 280 0008 1868     		ldr	r0, [r3]
 281 000a FFF7FEFF 		bl	osTimerStart
 282              	.LVL22:
 283 000e FFF7FEFF 		bl	OS2ConfigAssert
 284              	.LVL23:
  61:Core/Src/cmsis_os2_sw_tim.c ****     OS2ConfigAssert(osTimerStart(osPeriodicTimId, (uint32_t)PERIODIC_TIMER_PERIOD));
 285              		.loc 1 61 5 view .LVU51
 286 0012 4FF47A71 		mov	r1, #1000
 287 0016 044B     		ldr	r3, .L18+4
 288 0018 1868     		ldr	r0, [r3]
 289 001a FFF7FEFF 		bl	osTimerStart
 290              	.LVL24:
 291 001e FFF7FEFF 		bl	OS2ConfigAssert
 292              	.LVL25:
  62:Core/Src/cmsis_os2_sw_tim.c **** }
 293              		.loc 1 62 1 is_stmt 0 view .LVU52
 294 0022 08BD     		pop	{r3, pc}
 295              	.L19:
 296              		.align	2
 297              	.L18:
 298 0024 00000000 		.word	.LANCHOR2
 299 0028 00000000 		.word	.LANCHOR6
 300              		.cfi_endproc
 301              	.LFE852:
 303              		.global	osPeriodicTimAttr
 304              		.section	.rodata.str1.4,"aMS",%progbits,1
 305              		.align	2
 306              	.LC8:
 307 0000 50657269 		.ascii	"PeriodicTimer\000"
 307      6F646963 
ARM GAS  C:\Users\Lenovo\AppData\Local\Temp\ccB7pXta.s 			page 9


 307      54696D65 
 307      7200
 308              		.global	osOneshotTimAttr
 309 000e 0000     		.align	2
 310              	.LC9:
 311 0010 4F6E6553 		.ascii	"OneShotTimer\000"
 311      686F7454 
 311      696D6572 
 311      00
 312              		.global	u32SignalFlagSetFromPeriodicCB
 313              		.global	u32SignalFlagSetFromOneshotCB
 314              		.global	u8TimerCBArg
 315              		.global	osPeriodicTimId
 316              		.global	osOneshotTimId
 317              		.section	.bss.osOneshotTimId,"aw",%nobits
 318              		.align	2
 319              		.set	.LANCHOR2,. + 0
 322              	osOneshotTimId:
 323 0000 00000000 		.space	4
 324              		.section	.bss.osPeriodicTimId,"aw",%nobits
 325              		.align	2
 326              		.set	.LANCHOR6,. + 0
 329              	osPeriodicTimId:
 330 0000 00000000 		.space	4
 331              		.section	.bss.u8TimerCBArg,"aw",%nobits
 332              		.set	.LANCHOR0,. + 0
 335              	u8TimerCBArg:
 336 0000 00       		.space	1
 337              		.section	.data.osOneshotTimAttr,"aw"
 338              		.align	2
 339              		.set	.LANCHOR4,. + 0
 342              	osOneshotTimAttr:
 343 0000 10000000 		.word	.LC9
 344 0004 00000000 		.space	12
 344      00000000 
 344      00000000 
 345              		.section	.data.osPeriodicTimAttr,"aw"
 346              		.align	2
 347              		.set	.LANCHOR5,. + 0
 350              	osPeriodicTimAttr:
 351 0000 00000000 		.word	.LC8
 352 0004 00000000 		.space	12
 352      00000000 
 352      00000000 
 353              		.section	.data.u32SignalFlagSetFromOneshotCB,"aw"
 354              		.align	2
 355              		.set	.LANCHOR1,. + 0
 358              	u32SignalFlagSetFromOneshotCB:
 359 0000 00010000 		.word	256
 360              		.section	.data.u32SignalFlagSetFromPeriodicCB,"aw"
 361              		.align	2
 362              		.set	.LANCHOR3,. + 0
 365              	u32SignalFlagSetFromPeriodicCB:
 366 0000 00020000 		.word	512
 367              		.text
 368              	.Letext0:
 369              		.file 2 "d:\\zodhya projects\\technical doccuments\\stm32_vscode_make\\tools\\gcc-arm-none-eabi-10
ARM GAS  C:\Users\Lenovo\AppData\Local\Temp\ccB7pXta.s 			page 10


 370              		.file 3 "d:\\zodhya projects\\technical doccuments\\stm32_vscode_make\\tools\\gcc-arm-none-eabi-10
 371              		.file 4 "Middlewares/Third_Party/FreeRTOS/Source/CMSIS_RTOS_V2/cmsis_os2.h"
 372              		.file 5 "d:\\zodhya projects\\technical doccuments\\stm32_vscode_make\\tools\\gcc-arm-none-eabi-10
 373              		.file 6 "Core/Inc/cmsis_os2_attr.h"
 374              		.file 7 "Drivers/STM32WLxx_HAL_Driver/Inc/stm32wlxx_ll_dma.h"
 375              		.file 8 "<built-in>"
ARM GAS  C:\Users\Lenovo\AppData\Local\Temp\ccB7pXta.s 			page 11

