ARM GAS  C:\Users\Lenovo\AppData\Local\Temp\ccLMdYCa.s 			page 1


   1              		.cpu cortex-m4
   2              		.arch armv7e-m
   3              		.fpu softvfp
   4              		.eabi_attribute 20, 1
   5              		.eabi_attribute 21, 1
   6              		.eabi_attribute 23, 3
   7              		.eabi_attribute 24, 1
   8              		.eabi_attribute 25, 1
   9              		.eabi_attribute 26, 1
  10              		.eabi_attribute 30, 6
  11              		.eabi_attribute 34, 1
  12              		.eabi_attribute 18, 4
  13              		.file	"stm32wlxx_hal_pwr_ex.c"
  14              		.text
  15              	.Ltext0:
  16              		.cfi_sections	.debug_frame
  17              		.section	.rodata.CHANNEL_OFFSET_TAB,"a"
  18              		.align	2
  21              	CHANNEL_OFFSET_TAB:
  22 0000 081C3044 		.ascii	"\010\0340DXl\200"
  22      586C80
  23              		.section	.text.LL_PWR_EnableSRAM2Retention,"ax",%progbits
  24              		.align	1
  25              		.syntax unified
  26              		.thumb
  27              		.thumb_func
  29              	LL_PWR_EnableSRAM2Retention:
  30              	.LFB328:
  31              		.file 1 "Drivers/STM32WLxx_HAL_Driver/Inc/stm32wlxx_ll_pwr.h"
   1:Drivers/STM32WLxx_HAL_Driver/Inc/stm32wlxx_ll_pwr.h **** /**
   2:Drivers/STM32WLxx_HAL_Driver/Inc/stm32wlxx_ll_pwr.h ****   ******************************************************************************
   3:Drivers/STM32WLxx_HAL_Driver/Inc/stm32wlxx_ll_pwr.h ****   * @file    stm32wlxx_ll_pwr.h
   4:Drivers/STM32WLxx_HAL_Driver/Inc/stm32wlxx_ll_pwr.h ****   * @author  MCD Application Team
   5:Drivers/STM32WLxx_HAL_Driver/Inc/stm32wlxx_ll_pwr.h ****   * @brief   Header file of PWR LL module.
   6:Drivers/STM32WLxx_HAL_Driver/Inc/stm32wlxx_ll_pwr.h ****   ******************************************************************************
   7:Drivers/STM32WLxx_HAL_Driver/Inc/stm32wlxx_ll_pwr.h ****   * @attention
   8:Drivers/STM32WLxx_HAL_Driver/Inc/stm32wlxx_ll_pwr.h ****   *
   9:Drivers/STM32WLxx_HAL_Driver/Inc/stm32wlxx_ll_pwr.h ****   * Copyright (c) 2020 STMicroelectronics.
  10:Drivers/STM32WLxx_HAL_Driver/Inc/stm32wlxx_ll_pwr.h ****   * All rights reserved.
  11:Drivers/STM32WLxx_HAL_Driver/Inc/stm32wlxx_ll_pwr.h ****   *
  12:Drivers/STM32WLxx_HAL_Driver/Inc/stm32wlxx_ll_pwr.h ****   * This software is licensed under terms that can be found in the LICENSE file
  13:Drivers/STM32WLxx_HAL_Driver/Inc/stm32wlxx_ll_pwr.h ****   * in the root directory of this software component.
  14:Drivers/STM32WLxx_HAL_Driver/Inc/stm32wlxx_ll_pwr.h ****   * If no LICENSE file comes with this software, it is provided AS-IS.
  15:Drivers/STM32WLxx_HAL_Driver/Inc/stm32wlxx_ll_pwr.h ****   *
  16:Drivers/STM32WLxx_HAL_Driver/Inc/stm32wlxx_ll_pwr.h ****   ******************************************************************************
  17:Drivers/STM32WLxx_HAL_Driver/Inc/stm32wlxx_ll_pwr.h ****   */
  18:Drivers/STM32WLxx_HAL_Driver/Inc/stm32wlxx_ll_pwr.h **** 
  19:Drivers/STM32WLxx_HAL_Driver/Inc/stm32wlxx_ll_pwr.h **** /* Define to prevent recursive inclusion -------------------------------------*/
  20:Drivers/STM32WLxx_HAL_Driver/Inc/stm32wlxx_ll_pwr.h **** #ifndef __STM32WLxx_LL_PWR_H
  21:Drivers/STM32WLxx_HAL_Driver/Inc/stm32wlxx_ll_pwr.h **** #define __STM32WLxx_LL_PWR_H
  22:Drivers/STM32WLxx_HAL_Driver/Inc/stm32wlxx_ll_pwr.h **** 
  23:Drivers/STM32WLxx_HAL_Driver/Inc/stm32wlxx_ll_pwr.h **** #ifdef __cplusplus
  24:Drivers/STM32WLxx_HAL_Driver/Inc/stm32wlxx_ll_pwr.h **** extern "C" {
  25:Drivers/STM32WLxx_HAL_Driver/Inc/stm32wlxx_ll_pwr.h **** #endif
  26:Drivers/STM32WLxx_HAL_Driver/Inc/stm32wlxx_ll_pwr.h **** 
  27:Drivers/STM32WLxx_HAL_Driver/Inc/stm32wlxx_ll_pwr.h **** /* Includes ------------------------------------------------------------------*/
  28:Drivers/STM32WLxx_HAL_Driver/Inc/stm32wlxx_ll_pwr.h **** #include "stm32wlxx.h"
ARM GAS  C:\Users\Lenovo\AppData\Local\Temp\ccLMdYCa.s 			page 2


  29:Drivers/STM32WLxx_HAL_Driver/Inc/stm32wlxx_ll_pwr.h **** 
  30:Drivers/STM32WLxx_HAL_Driver/Inc/stm32wlxx_ll_pwr.h **** /** @addtogroup STM32WLxx_LL_Driver
  31:Drivers/STM32WLxx_HAL_Driver/Inc/stm32wlxx_ll_pwr.h ****   * @{
  32:Drivers/STM32WLxx_HAL_Driver/Inc/stm32wlxx_ll_pwr.h ****   */
  33:Drivers/STM32WLxx_HAL_Driver/Inc/stm32wlxx_ll_pwr.h **** 
  34:Drivers/STM32WLxx_HAL_Driver/Inc/stm32wlxx_ll_pwr.h **** #if defined(PWR)
  35:Drivers/STM32WLxx_HAL_Driver/Inc/stm32wlxx_ll_pwr.h **** 
  36:Drivers/STM32WLxx_HAL_Driver/Inc/stm32wlxx_ll_pwr.h **** /** @defgroup PWR_LL PWR
  37:Drivers/STM32WLxx_HAL_Driver/Inc/stm32wlxx_ll_pwr.h ****   * @{
  38:Drivers/STM32WLxx_HAL_Driver/Inc/stm32wlxx_ll_pwr.h ****   */
  39:Drivers/STM32WLxx_HAL_Driver/Inc/stm32wlxx_ll_pwr.h **** 
  40:Drivers/STM32WLxx_HAL_Driver/Inc/stm32wlxx_ll_pwr.h **** /* Private types -------------------------------------------------------------*/
  41:Drivers/STM32WLxx_HAL_Driver/Inc/stm32wlxx_ll_pwr.h **** /* Private variables ---------------------------------------------------------*/
  42:Drivers/STM32WLxx_HAL_Driver/Inc/stm32wlxx_ll_pwr.h **** 
  43:Drivers/STM32WLxx_HAL_Driver/Inc/stm32wlxx_ll_pwr.h **** /* Private constants ---------------------------------------------------------*/
  44:Drivers/STM32WLxx_HAL_Driver/Inc/stm32wlxx_ll_pwr.h **** /** @defgroup PWR_LL_Private_Constants PWR Private Constants
  45:Drivers/STM32WLxx_HAL_Driver/Inc/stm32wlxx_ll_pwr.h ****   * @{
  46:Drivers/STM32WLxx_HAL_Driver/Inc/stm32wlxx_ll_pwr.h ****   */
  47:Drivers/STM32WLxx_HAL_Driver/Inc/stm32wlxx_ll_pwr.h **** #define PWR_FLASH_POWER_MODE_UNLOCK_CODE  (0x0000C1B0UL)
  48:Drivers/STM32WLxx_HAL_Driver/Inc/stm32wlxx_ll_pwr.h **** /**
  49:Drivers/STM32WLxx_HAL_Driver/Inc/stm32wlxx_ll_pwr.h ****   * @}
  50:Drivers/STM32WLxx_HAL_Driver/Inc/stm32wlxx_ll_pwr.h ****   */
  51:Drivers/STM32WLxx_HAL_Driver/Inc/stm32wlxx_ll_pwr.h **** 
  52:Drivers/STM32WLxx_HAL_Driver/Inc/stm32wlxx_ll_pwr.h **** /* Private macros ------------------------------------------------------------*/
  53:Drivers/STM32WLxx_HAL_Driver/Inc/stm32wlxx_ll_pwr.h **** 
  54:Drivers/STM32WLxx_HAL_Driver/Inc/stm32wlxx_ll_pwr.h **** /* Exported types ------------------------------------------------------------*/
  55:Drivers/STM32WLxx_HAL_Driver/Inc/stm32wlxx_ll_pwr.h **** /* Exported constants --------------------------------------------------------*/
  56:Drivers/STM32WLxx_HAL_Driver/Inc/stm32wlxx_ll_pwr.h **** /** @defgroup PWR_LL_Exported_Constants PWR Exported Constants
  57:Drivers/STM32WLxx_HAL_Driver/Inc/stm32wlxx_ll_pwr.h ****   * @{
  58:Drivers/STM32WLxx_HAL_Driver/Inc/stm32wlxx_ll_pwr.h ****   */
  59:Drivers/STM32WLxx_HAL_Driver/Inc/stm32wlxx_ll_pwr.h **** 
  60:Drivers/STM32WLxx_HAL_Driver/Inc/stm32wlxx_ll_pwr.h **** /** @defgroup PWR_LL_EC_CLEAR_FLAG Clear Flags Defines
  61:Drivers/STM32WLxx_HAL_Driver/Inc/stm32wlxx_ll_pwr.h ****   * @brief    Flags defines which can be used with LL_PWR_WriteReg function
  62:Drivers/STM32WLxx_HAL_Driver/Inc/stm32wlxx_ll_pwr.h ****   * @{
  63:Drivers/STM32WLxx_HAL_Driver/Inc/stm32wlxx_ll_pwr.h ****   */
  64:Drivers/STM32WLxx_HAL_Driver/Inc/stm32wlxx_ll_pwr.h **** #define LL_PWR_SCR_CWUF                    PWR_SCR_CWUF
  65:Drivers/STM32WLxx_HAL_Driver/Inc/stm32wlxx_ll_pwr.h **** #define LL_PWR_SCR_CWUF3                   PWR_SCR_CWUF3
  66:Drivers/STM32WLxx_HAL_Driver/Inc/stm32wlxx_ll_pwr.h **** #define LL_PWR_SCR_CWUF2                   PWR_SCR_CWUF2
  67:Drivers/STM32WLxx_HAL_Driver/Inc/stm32wlxx_ll_pwr.h **** #define LL_PWR_SCR_CWUF1                   PWR_SCR_CWUF1
  68:Drivers/STM32WLxx_HAL_Driver/Inc/stm32wlxx_ll_pwr.h **** #define LL_PWR_SCR_CWPVDF                  PWR_SCR_CWPVDF
  69:Drivers/STM32WLxx_HAL_Driver/Inc/stm32wlxx_ll_pwr.h **** #define LL_PWR_SCR_CWRFBUSYF               PWR_SCR_CWRFBUSYF
  70:Drivers/STM32WLxx_HAL_Driver/Inc/stm32wlxx_ll_pwr.h **** #define LL_PWR_SCR_CC2HF                   PWR_SCR_CC2HF
  71:Drivers/STM32WLxx_HAL_Driver/Inc/stm32wlxx_ll_pwr.h **** #define LL_PWR_EXTSCR_C2CSSF               PWR_EXTSCR_C2CSSF
  72:Drivers/STM32WLxx_HAL_Driver/Inc/stm32wlxx_ll_pwr.h **** #define LL_PWR_EXTSCR_C1CSSF               PWR_EXTSCR_C1CSSF
  73:Drivers/STM32WLxx_HAL_Driver/Inc/stm32wlxx_ll_pwr.h **** /**
  74:Drivers/STM32WLxx_HAL_Driver/Inc/stm32wlxx_ll_pwr.h ****   * @}
  75:Drivers/STM32WLxx_HAL_Driver/Inc/stm32wlxx_ll_pwr.h ****   */
  76:Drivers/STM32WLxx_HAL_Driver/Inc/stm32wlxx_ll_pwr.h **** 
  77:Drivers/STM32WLxx_HAL_Driver/Inc/stm32wlxx_ll_pwr.h **** /** @defgroup PWR_LL_EC_GET_FLAG Get Flags Defines
  78:Drivers/STM32WLxx_HAL_Driver/Inc/stm32wlxx_ll_pwr.h ****   * @brief    Flags defines which can be used with LL_PWR_ReadReg function
  79:Drivers/STM32WLxx_HAL_Driver/Inc/stm32wlxx_ll_pwr.h ****   * @{
  80:Drivers/STM32WLxx_HAL_Driver/Inc/stm32wlxx_ll_pwr.h ****   */
  81:Drivers/STM32WLxx_HAL_Driver/Inc/stm32wlxx_ll_pwr.h **** #define LL_PWR_SR1_WUFI                    PWR_SR1_WUFI
  82:Drivers/STM32WLxx_HAL_Driver/Inc/stm32wlxx_ll_pwr.h **** #define LL_PWR_SR1_WUF3                    PWR_SR1_WUF3
  83:Drivers/STM32WLxx_HAL_Driver/Inc/stm32wlxx_ll_pwr.h **** #define LL_PWR_SR1_WUF2                    PWR_SR1_WUF2
  84:Drivers/STM32WLxx_HAL_Driver/Inc/stm32wlxx_ll_pwr.h **** #define LL_PWR_SR1_WUF1                    PWR_SR1_WUF1
  85:Drivers/STM32WLxx_HAL_Driver/Inc/stm32wlxx_ll_pwr.h **** #define LL_PWR_SR1_WPVDF                   PWR_SR1_WPVDF
ARM GAS  C:\Users\Lenovo\AppData\Local\Temp\ccLMdYCa.s 			page 3


  86:Drivers/STM32WLxx_HAL_Driver/Inc/stm32wlxx_ll_pwr.h **** 
  87:Drivers/STM32WLxx_HAL_Driver/Inc/stm32wlxx_ll_pwr.h **** #define LL_PWR_SR2_LDORDY                  PWR_SR2_LDORDY
  88:Drivers/STM32WLxx_HAL_Driver/Inc/stm32wlxx_ll_pwr.h **** #define LL_PWR_SR2_PVMO3                   PWR_SR2_PVMO3
  89:Drivers/STM32WLxx_HAL_Driver/Inc/stm32wlxx_ll_pwr.h **** #define LL_PWR_SR2_PVDO                    PWR_SR2_PVDO
  90:Drivers/STM32WLxx_HAL_Driver/Inc/stm32wlxx_ll_pwr.h **** #define LL_PWR_SR2_RFEOL                   PWR_SR2_RFEOLF
  91:Drivers/STM32WLxx_HAL_Driver/Inc/stm32wlxx_ll_pwr.h **** #define LL_PWR_SR2_VOSF                    PWR_SR2_VOSF
  92:Drivers/STM32WLxx_HAL_Driver/Inc/stm32wlxx_ll_pwr.h **** #define LL_PWR_SR2_REGLPF                  PWR_SR2_REGLPF
  93:Drivers/STM32WLxx_HAL_Driver/Inc/stm32wlxx_ll_pwr.h **** #define LL_PWR_SR2_REGLPS                  PWR_SR2_REGLPS
  94:Drivers/STM32WLxx_HAL_Driver/Inc/stm32wlxx_ll_pwr.h **** #define LL_PWR_SR2_REGMRS                  PWR_SR2_REGMRS
  95:Drivers/STM32WLxx_HAL_Driver/Inc/stm32wlxx_ll_pwr.h **** 
  96:Drivers/STM32WLxx_HAL_Driver/Inc/stm32wlxx_ll_pwr.h **** /* SMPS flags */
  97:Drivers/STM32WLxx_HAL_Driver/Inc/stm32wlxx_ll_pwr.h **** #define LL_PWR_SR2_SMPSRDY                 PWR_SR2_SMPSRDY
  98:Drivers/STM32WLxx_HAL_Driver/Inc/stm32wlxx_ll_pwr.h **** 
  99:Drivers/STM32WLxx_HAL_Driver/Inc/stm32wlxx_ll_pwr.h **** /* Radio flags */
 100:Drivers/STM32WLxx_HAL_Driver/Inc/stm32wlxx_ll_pwr.h **** #define LL_PWR_SR1_WRFBUSY                 PWR_SR1_WRFBUSYF   /* Radio busy flag for wake-up and in
 101:Drivers/STM32WLxx_HAL_Driver/Inc/stm32wlxx_ll_pwr.h **** #define LL_PWR_SR2_RFBUSYS                 PWR_SR2_RFBUSYS    /* Radio busy signal flag (current st
 102:Drivers/STM32WLxx_HAL_Driver/Inc/stm32wlxx_ll_pwr.h **** #define LL_PWR_SR2_RFBUSYMS                PWR_SR2_RFBUSYMS   /* Radio busy masked signal flag (cur
 103:Drivers/STM32WLxx_HAL_Driver/Inc/stm32wlxx_ll_pwr.h **** 
 104:Drivers/STM32WLxx_HAL_Driver/Inc/stm32wlxx_ll_pwr.h **** /* Multicore flags */
 105:Drivers/STM32WLxx_HAL_Driver/Inc/stm32wlxx_ll_pwr.h **** #define LL_PWR_EXTSCR_C1SBF                PWR_EXTSCR_C1SBF    /* System Standby flag for CPU1 */
 106:Drivers/STM32WLxx_HAL_Driver/Inc/stm32wlxx_ll_pwr.h **** #define LL_PWR_EXTSCR_C1STOP2F             PWR_EXTSCR_C1STOP2F /* System Stop 2 flag for CPU1 */
 107:Drivers/STM32WLxx_HAL_Driver/Inc/stm32wlxx_ll_pwr.h **** #define LL_PWR_EXTSCR_C1STOPF              PWR_EXTSCR_C1STOPF  /* System Stop 0 or stop 1 flag for 
 108:Drivers/STM32WLxx_HAL_Driver/Inc/stm32wlxx_ll_pwr.h **** #define LL_PWR_EXTSCR_C1DS                 PWR_EXTSCR_C1DS     /* CPU1 deepsleep mode */
 109:Drivers/STM32WLxx_HAL_Driver/Inc/stm32wlxx_ll_pwr.h **** #if defined(DUAL_CORE)
 110:Drivers/STM32WLxx_HAL_Driver/Inc/stm32wlxx_ll_pwr.h **** #define LL_PWR_EXTSCR_C2SBF                PWR_EXTSCR_C2SBF    /* System Standby flag for CPU2 */
 111:Drivers/STM32WLxx_HAL_Driver/Inc/stm32wlxx_ll_pwr.h **** #define LL_PWR_EXTSCR_C2STOP2F             PWR_EXTSCR_C2STOP2F /* System Stop 2 flag for CPU2 */
 112:Drivers/STM32WLxx_HAL_Driver/Inc/stm32wlxx_ll_pwr.h **** #define LL_PWR_EXTSCR_C2STOPF              PWR_EXTSCR_C2STOPF  /* System Stop 0 or stop 1 flag for 
 113:Drivers/STM32WLxx_HAL_Driver/Inc/stm32wlxx_ll_pwr.h **** #define LL_PWR_EXTSCR_C2DS                 PWR_EXTSCR_C2DS     /* CPU2 deepsleep mode */
 114:Drivers/STM32WLxx_HAL_Driver/Inc/stm32wlxx_ll_pwr.h **** #define LL_PWR_SR2_C2BOOTS                 PWR_SR2_C2BOOTS     /* CPU2 boot request source informat
 115:Drivers/STM32WLxx_HAL_Driver/Inc/stm32wlxx_ll_pwr.h **** #define LL_PWR_SR1_C2HF                    PWR_SR1_C2HF        /* CPU2 hold interrupt flag */
 116:Drivers/STM32WLxx_HAL_Driver/Inc/stm32wlxx_ll_pwr.h **** #endif
 117:Drivers/STM32WLxx_HAL_Driver/Inc/stm32wlxx_ll_pwr.h **** /**
 118:Drivers/STM32WLxx_HAL_Driver/Inc/stm32wlxx_ll_pwr.h ****   * @}
 119:Drivers/STM32WLxx_HAL_Driver/Inc/stm32wlxx_ll_pwr.h ****   */
 120:Drivers/STM32WLxx_HAL_Driver/Inc/stm32wlxx_ll_pwr.h **** 
 121:Drivers/STM32WLxx_HAL_Driver/Inc/stm32wlxx_ll_pwr.h **** /** @defgroup PWR_LL_EC_REGU_VOLTAGE REGU VOLTAGE
 122:Drivers/STM32WLxx_HAL_Driver/Inc/stm32wlxx_ll_pwr.h ****   * @{
 123:Drivers/STM32WLxx_HAL_Driver/Inc/stm32wlxx_ll_pwr.h ****   */
 124:Drivers/STM32WLxx_HAL_Driver/Inc/stm32wlxx_ll_pwr.h **** #define LL_PWR_REGU_VOLTAGE_SCALE1         (PWR_CR1_VOS_0) /* Regulator voltage output range 1 mode
 125:Drivers/STM32WLxx_HAL_Driver/Inc/stm32wlxx_ll_pwr.h **** #define LL_PWR_REGU_VOLTAGE_SCALE2         (PWR_CR1_VOS_1) /* Regulator voltage output range 2 mode
 126:Drivers/STM32WLxx_HAL_Driver/Inc/stm32wlxx_ll_pwr.h **** /**
 127:Drivers/STM32WLxx_HAL_Driver/Inc/stm32wlxx_ll_pwr.h ****   * @}
 128:Drivers/STM32WLxx_HAL_Driver/Inc/stm32wlxx_ll_pwr.h ****   */
 129:Drivers/STM32WLxx_HAL_Driver/Inc/stm32wlxx_ll_pwr.h **** 
 130:Drivers/STM32WLxx_HAL_Driver/Inc/stm32wlxx_ll_pwr.h **** /** @defgroup PWR_LL_EC_MODE_PWR MODE PWR
 131:Drivers/STM32WLxx_HAL_Driver/Inc/stm32wlxx_ll_pwr.h ****   * @{
 132:Drivers/STM32WLxx_HAL_Driver/Inc/stm32wlxx_ll_pwr.h ****   */
 133:Drivers/STM32WLxx_HAL_Driver/Inc/stm32wlxx_ll_pwr.h **** #define LL_PWR_MODE_STOP0                  (0x000000000UL)
 134:Drivers/STM32WLxx_HAL_Driver/Inc/stm32wlxx_ll_pwr.h **** #define LL_PWR_MODE_STOP1                  (PWR_CR1_LPMS_0)
 135:Drivers/STM32WLxx_HAL_Driver/Inc/stm32wlxx_ll_pwr.h **** #define LL_PWR_MODE_STOP2                  (PWR_CR1_LPMS_1)
 136:Drivers/STM32WLxx_HAL_Driver/Inc/stm32wlxx_ll_pwr.h **** #define LL_PWR_MODE_STANDBY                (PWR_CR1_LPMS_1 | PWR_CR1_LPMS_0)
 137:Drivers/STM32WLxx_HAL_Driver/Inc/stm32wlxx_ll_pwr.h **** #define LL_PWR_MODE_SHUTDOWN               (PWR_CR1_LPMS_2 | PWR_CR1_LPMS_1 | PWR_CR1_LPMS_0)
 138:Drivers/STM32WLxx_HAL_Driver/Inc/stm32wlxx_ll_pwr.h **** /**
 139:Drivers/STM32WLxx_HAL_Driver/Inc/stm32wlxx_ll_pwr.h ****   * @}
 140:Drivers/STM32WLxx_HAL_Driver/Inc/stm32wlxx_ll_pwr.h ****   */
 141:Drivers/STM32WLxx_HAL_Driver/Inc/stm32wlxx_ll_pwr.h **** 
 142:Drivers/STM32WLxx_HAL_Driver/Inc/stm32wlxx_ll_pwr.h **** /** @defgroup PWR_LL_EC_FLASH_LPRUN_POWER_DOWN_MODE Flash power-down mode during low-power run mode
ARM GAS  C:\Users\Lenovo\AppData\Local\Temp\ccLMdYCa.s 			page 4


 143:Drivers/STM32WLxx_HAL_Driver/Inc/stm32wlxx_ll_pwr.h ****   * @{
 144:Drivers/STM32WLxx_HAL_Driver/Inc/stm32wlxx_ll_pwr.h ****   */
 145:Drivers/STM32WLxx_HAL_Driver/Inc/stm32wlxx_ll_pwr.h **** #define LL_PWR_FLASH_LPRUN_MODE_IDLE       (0x000000000UL)
 146:Drivers/STM32WLxx_HAL_Driver/Inc/stm32wlxx_ll_pwr.h **** #define LL_PWR_FLASH_LPRUN_MODE_POWER_DOWN (PWR_CR1_FPDR)
 147:Drivers/STM32WLxx_HAL_Driver/Inc/stm32wlxx_ll_pwr.h **** /**
 148:Drivers/STM32WLxx_HAL_Driver/Inc/stm32wlxx_ll_pwr.h ****   * @}
 149:Drivers/STM32WLxx_HAL_Driver/Inc/stm32wlxx_ll_pwr.h ****   */
 150:Drivers/STM32WLxx_HAL_Driver/Inc/stm32wlxx_ll_pwr.h **** 
 151:Drivers/STM32WLxx_HAL_Driver/Inc/stm32wlxx_ll_pwr.h **** /** @defgroup PWR_LL_EC_FLASH_SLEEP_POWER_DOWN_MODE Flash power-down mode during sleep mode
 152:Drivers/STM32WLxx_HAL_Driver/Inc/stm32wlxx_ll_pwr.h ****   * @{
 153:Drivers/STM32WLxx_HAL_Driver/Inc/stm32wlxx_ll_pwr.h ****   */
 154:Drivers/STM32WLxx_HAL_Driver/Inc/stm32wlxx_ll_pwr.h **** #define LL_PWR_FLASH_SLEEP_MODE_IDLE       (0x000000000UL)
 155:Drivers/STM32WLxx_HAL_Driver/Inc/stm32wlxx_ll_pwr.h **** #define LL_PWR_FLASH_SLEEP_MODE_POWER_DOWN (PWR_CR1_FPDS)
 156:Drivers/STM32WLxx_HAL_Driver/Inc/stm32wlxx_ll_pwr.h **** /**
 157:Drivers/STM32WLxx_HAL_Driver/Inc/stm32wlxx_ll_pwr.h ****   * @}
 158:Drivers/STM32WLxx_HAL_Driver/Inc/stm32wlxx_ll_pwr.h ****   */
 159:Drivers/STM32WLxx_HAL_Driver/Inc/stm32wlxx_ll_pwr.h **** 
 160:Drivers/STM32WLxx_HAL_Driver/Inc/stm32wlxx_ll_pwr.h **** /** @defgroup PWR_LL_EC_PVM Peripheral voltage monitoring
 161:Drivers/STM32WLxx_HAL_Driver/Inc/stm32wlxx_ll_pwr.h ****   * @{
 162:Drivers/STM32WLxx_HAL_Driver/Inc/stm32wlxx_ll_pwr.h ****   */
 163:Drivers/STM32WLxx_HAL_Driver/Inc/stm32wlxx_ll_pwr.h **** #define LL_PWR_PVM_VDDA_1_62V              (PWR_CR2_PVME3)     /* Monitoring VDDA vs. 1.62V  */
 164:Drivers/STM32WLxx_HAL_Driver/Inc/stm32wlxx_ll_pwr.h **** /**
 165:Drivers/STM32WLxx_HAL_Driver/Inc/stm32wlxx_ll_pwr.h ****   * @}
 166:Drivers/STM32WLxx_HAL_Driver/Inc/stm32wlxx_ll_pwr.h ****   */
 167:Drivers/STM32WLxx_HAL_Driver/Inc/stm32wlxx_ll_pwr.h **** 
 168:Drivers/STM32WLxx_HAL_Driver/Inc/stm32wlxx_ll_pwr.h **** /** @defgroup PWR_LL_EC_PVDLEVEL PVDLEVEL
 169:Drivers/STM32WLxx_HAL_Driver/Inc/stm32wlxx_ll_pwr.h ****   * @{
 170:Drivers/STM32WLxx_HAL_Driver/Inc/stm32wlxx_ll_pwr.h ****   */
 171:Drivers/STM32WLxx_HAL_Driver/Inc/stm32wlxx_ll_pwr.h **** #define LL_PWR_PVDLEVEL_0                  (0x00000000UL)                                  /* VPVD0
 172:Drivers/STM32WLxx_HAL_Driver/Inc/stm32wlxx_ll_pwr.h **** #define LL_PWR_PVDLEVEL_1                  (PWR_CR2_PLS_0)                                 /* VPVD1
 173:Drivers/STM32WLxx_HAL_Driver/Inc/stm32wlxx_ll_pwr.h **** #define LL_PWR_PVDLEVEL_2                  (PWR_CR2_PLS_1)                                 /* VPVD2
 174:Drivers/STM32WLxx_HAL_Driver/Inc/stm32wlxx_ll_pwr.h **** #define LL_PWR_PVDLEVEL_3                  (PWR_CR2_PLS_1 | PWR_CR2_PLS_0)                 /* VPVD3
 175:Drivers/STM32WLxx_HAL_Driver/Inc/stm32wlxx_ll_pwr.h **** #define LL_PWR_PVDLEVEL_4                  (PWR_CR2_PLS_2)                                 /* VPVD4
 176:Drivers/STM32WLxx_HAL_Driver/Inc/stm32wlxx_ll_pwr.h **** #define LL_PWR_PVDLEVEL_5                  (PWR_CR2_PLS_2 | PWR_CR2_PLS_0)                 /* VPVD5
 177:Drivers/STM32WLxx_HAL_Driver/Inc/stm32wlxx_ll_pwr.h **** #define LL_PWR_PVDLEVEL_6                  (PWR_CR2_PLS_2 | PWR_CR2_PLS_1)                 /* VPVD6
 178:Drivers/STM32WLxx_HAL_Driver/Inc/stm32wlxx_ll_pwr.h **** #define LL_PWR_PVDLEVEL_7                  (PWR_CR2_PLS_2 | PWR_CR2_PLS_1 | PWR_CR2_PLS_0) /* Exter
 179:Drivers/STM32WLxx_HAL_Driver/Inc/stm32wlxx_ll_pwr.h **** /**
 180:Drivers/STM32WLxx_HAL_Driver/Inc/stm32wlxx_ll_pwr.h ****   * @}
 181:Drivers/STM32WLxx_HAL_Driver/Inc/stm32wlxx_ll_pwr.h ****   */
 182:Drivers/STM32WLxx_HAL_Driver/Inc/stm32wlxx_ll_pwr.h **** 
 183:Drivers/STM32WLxx_HAL_Driver/Inc/stm32wlxx_ll_pwr.h **** /** @defgroup PWR_LL_EC_EOL_OPERATING_MODES Monitoring of supply voltage for radio operating level 
 184:Drivers/STM32WLxx_HAL_Driver/Inc/stm32wlxx_ll_pwr.h ****   * @{
 185:Drivers/STM32WLxx_HAL_Driver/Inc/stm32wlxx_ll_pwr.h ****   */
 186:Drivers/STM32WLxx_HAL_Driver/Inc/stm32wlxx_ll_pwr.h **** #define LL_PWR_RADIO_EOL_DISABLE                  (0x00000000UL)    /*!< Monitoring of supply volta
 187:Drivers/STM32WLxx_HAL_Driver/Inc/stm32wlxx_ll_pwr.h **** #define LL_PWR_RADIO_EOL_ENABLE                   (PWR_CR5_RFEOLEN) /*!< Monitoring of supply volta
 188:Drivers/STM32WLxx_HAL_Driver/Inc/stm32wlxx_ll_pwr.h **** /**
 189:Drivers/STM32WLxx_HAL_Driver/Inc/stm32wlxx_ll_pwr.h ****   * @}
 190:Drivers/STM32WLxx_HAL_Driver/Inc/stm32wlxx_ll_pwr.h ****   */
 191:Drivers/STM32WLxx_HAL_Driver/Inc/stm32wlxx_ll_pwr.h **** 
 192:Drivers/STM32WLxx_HAL_Driver/Inc/stm32wlxx_ll_pwr.h **** /** @defgroup PWR_LL_EC_WAKEUP WAKEUP
 193:Drivers/STM32WLxx_HAL_Driver/Inc/stm32wlxx_ll_pwr.h ****   * @{
 194:Drivers/STM32WLxx_HAL_Driver/Inc/stm32wlxx_ll_pwr.h ****   */
 195:Drivers/STM32WLxx_HAL_Driver/Inc/stm32wlxx_ll_pwr.h **** #define LL_PWR_WAKEUP_PIN1                 (PWR_CR3_EWUP1)
 196:Drivers/STM32WLxx_HAL_Driver/Inc/stm32wlxx_ll_pwr.h **** #define LL_PWR_WAKEUP_PIN2                 (PWR_CR3_EWUP2)
 197:Drivers/STM32WLxx_HAL_Driver/Inc/stm32wlxx_ll_pwr.h **** #define LL_PWR_WAKEUP_PIN3                 (PWR_CR3_EWUP3)
 198:Drivers/STM32WLxx_HAL_Driver/Inc/stm32wlxx_ll_pwr.h **** /**
 199:Drivers/STM32WLxx_HAL_Driver/Inc/stm32wlxx_ll_pwr.h ****   * @}
ARM GAS  C:\Users\Lenovo\AppData\Local\Temp\ccLMdYCa.s 			page 5


 200:Drivers/STM32WLxx_HAL_Driver/Inc/stm32wlxx_ll_pwr.h ****   */
 201:Drivers/STM32WLxx_HAL_Driver/Inc/stm32wlxx_ll_pwr.h **** 
 202:Drivers/STM32WLxx_HAL_Driver/Inc/stm32wlxx_ll_pwr.h **** /** @defgroup PWR_LL_EC_BATT_CHARG_RESISTOR BATT CHARG RESISTOR
 203:Drivers/STM32WLxx_HAL_Driver/Inc/stm32wlxx_ll_pwr.h ****   * @{
 204:Drivers/STM32WLxx_HAL_Driver/Inc/stm32wlxx_ll_pwr.h ****   */
 205:Drivers/STM32WLxx_HAL_Driver/Inc/stm32wlxx_ll_pwr.h **** #define LL_PWR_BATT_CHARG_RESISTOR_5K      (0x00000000UL)
 206:Drivers/STM32WLxx_HAL_Driver/Inc/stm32wlxx_ll_pwr.h **** #define LL_PWR_BATT_CHARGRESISTOR_1_5K     (PWR_CR4_VBRS)
 207:Drivers/STM32WLxx_HAL_Driver/Inc/stm32wlxx_ll_pwr.h **** /**
 208:Drivers/STM32WLxx_HAL_Driver/Inc/stm32wlxx_ll_pwr.h ****   * @}
 209:Drivers/STM32WLxx_HAL_Driver/Inc/stm32wlxx_ll_pwr.h ****   */
 210:Drivers/STM32WLxx_HAL_Driver/Inc/stm32wlxx_ll_pwr.h **** 
 211:Drivers/STM32WLxx_HAL_Driver/Inc/stm32wlxx_ll_pwr.h **** /** @defgroup PWR_LL_EC_GPIO GPIO
 212:Drivers/STM32WLxx_HAL_Driver/Inc/stm32wlxx_ll_pwr.h ****   * @{
 213:Drivers/STM32WLxx_HAL_Driver/Inc/stm32wlxx_ll_pwr.h ****   */
 214:Drivers/STM32WLxx_HAL_Driver/Inc/stm32wlxx_ll_pwr.h **** #define LL_PWR_GPIO_A                      ((uint32_t)(&(PWR->PUCRA)))
 215:Drivers/STM32WLxx_HAL_Driver/Inc/stm32wlxx_ll_pwr.h **** #define LL_PWR_GPIO_B                      ((uint32_t)(&(PWR->PUCRB)))
 216:Drivers/STM32WLxx_HAL_Driver/Inc/stm32wlxx_ll_pwr.h **** #define LL_PWR_GPIO_C                      ((uint32_t)(&(PWR->PUCRC)))
 217:Drivers/STM32WLxx_HAL_Driver/Inc/stm32wlxx_ll_pwr.h **** #define LL_PWR_GPIO_H                      ((uint32_t)(&(PWR->PUCRH)))
 218:Drivers/STM32WLxx_HAL_Driver/Inc/stm32wlxx_ll_pwr.h **** /**
 219:Drivers/STM32WLxx_HAL_Driver/Inc/stm32wlxx_ll_pwr.h ****   * @}
 220:Drivers/STM32WLxx_HAL_Driver/Inc/stm32wlxx_ll_pwr.h ****   */
 221:Drivers/STM32WLxx_HAL_Driver/Inc/stm32wlxx_ll_pwr.h **** 
 222:Drivers/STM32WLxx_HAL_Driver/Inc/stm32wlxx_ll_pwr.h **** /** @defgroup PWR_LL_EC_GPIO_BIT GPIO BIT
 223:Drivers/STM32WLxx_HAL_Driver/Inc/stm32wlxx_ll_pwr.h ****   * @{
 224:Drivers/STM32WLxx_HAL_Driver/Inc/stm32wlxx_ll_pwr.h ****   */
 225:Drivers/STM32WLxx_HAL_Driver/Inc/stm32wlxx_ll_pwr.h **** /* Note: LL_PWR_GPIO_BIT_x defined from port B because all pins are available */
 226:Drivers/STM32WLxx_HAL_Driver/Inc/stm32wlxx_ll_pwr.h **** /*       for PWR pull-up and pull-down.                                       */
 227:Drivers/STM32WLxx_HAL_Driver/Inc/stm32wlxx_ll_pwr.h **** #define LL_PWR_GPIO_BIT_0                  (PWR_PUCRB_PB0)
 228:Drivers/STM32WLxx_HAL_Driver/Inc/stm32wlxx_ll_pwr.h **** #define LL_PWR_GPIO_BIT_1                  (PWR_PUCRB_PB1)
 229:Drivers/STM32WLxx_HAL_Driver/Inc/stm32wlxx_ll_pwr.h **** #define LL_PWR_GPIO_BIT_2                  (PWR_PUCRB_PB2)
 230:Drivers/STM32WLxx_HAL_Driver/Inc/stm32wlxx_ll_pwr.h **** #define LL_PWR_GPIO_BIT_3                  (PWR_PUCRB_PB3)
 231:Drivers/STM32WLxx_HAL_Driver/Inc/stm32wlxx_ll_pwr.h **** #define LL_PWR_GPIO_BIT_4                  (PWR_PUCRB_PB4)
 232:Drivers/STM32WLxx_HAL_Driver/Inc/stm32wlxx_ll_pwr.h **** #define LL_PWR_GPIO_BIT_5                  (PWR_PUCRB_PB5)
 233:Drivers/STM32WLxx_HAL_Driver/Inc/stm32wlxx_ll_pwr.h **** #define LL_PWR_GPIO_BIT_6                  (PWR_PUCRB_PB6)
 234:Drivers/STM32WLxx_HAL_Driver/Inc/stm32wlxx_ll_pwr.h **** #define LL_PWR_GPIO_BIT_7                  (PWR_PUCRB_PB7)
 235:Drivers/STM32WLxx_HAL_Driver/Inc/stm32wlxx_ll_pwr.h **** #define LL_PWR_GPIO_BIT_8                  (PWR_PUCRB_PB8)
 236:Drivers/STM32WLxx_HAL_Driver/Inc/stm32wlxx_ll_pwr.h **** #define LL_PWR_GPIO_BIT_9                  (PWR_PUCRB_PB9)
 237:Drivers/STM32WLxx_HAL_Driver/Inc/stm32wlxx_ll_pwr.h **** #define LL_PWR_GPIO_BIT_10                 (PWR_PUCRB_PB10)
 238:Drivers/STM32WLxx_HAL_Driver/Inc/stm32wlxx_ll_pwr.h **** #define LL_PWR_GPIO_BIT_11                 (PWR_PUCRB_PB11)
 239:Drivers/STM32WLxx_HAL_Driver/Inc/stm32wlxx_ll_pwr.h **** #define LL_PWR_GPIO_BIT_12                 (PWR_PUCRB_PB12)
 240:Drivers/STM32WLxx_HAL_Driver/Inc/stm32wlxx_ll_pwr.h **** #define LL_PWR_GPIO_BIT_13                 (PWR_PUCRB_PB13)
 241:Drivers/STM32WLxx_HAL_Driver/Inc/stm32wlxx_ll_pwr.h **** #define LL_PWR_GPIO_BIT_14                 (PWR_PUCRB_PB14)
 242:Drivers/STM32WLxx_HAL_Driver/Inc/stm32wlxx_ll_pwr.h **** #define LL_PWR_GPIO_BIT_15                 (PWR_PUCRB_PB15)
 243:Drivers/STM32WLxx_HAL_Driver/Inc/stm32wlxx_ll_pwr.h **** /**
 244:Drivers/STM32WLxx_HAL_Driver/Inc/stm32wlxx_ll_pwr.h ****   * @}
 245:Drivers/STM32WLxx_HAL_Driver/Inc/stm32wlxx_ll_pwr.h ****   */
 246:Drivers/STM32WLxx_HAL_Driver/Inc/stm32wlxx_ll_pwr.h **** 
 247:Drivers/STM32WLxx_HAL_Driver/Inc/stm32wlxx_ll_pwr.h **** /** @defgroup PWR_LL_EC_SMPS_OPERATING_MODES SMPS step down converter operating modes
 248:Drivers/STM32WLxx_HAL_Driver/Inc/stm32wlxx_ll_pwr.h ****   * @{
 249:Drivers/STM32WLxx_HAL_Driver/Inc/stm32wlxx_ll_pwr.h ****   */
 250:Drivers/STM32WLxx_HAL_Driver/Inc/stm32wlxx_ll_pwr.h **** #define LL_PWR_SMPS_BYPASS                 (0x00000000UL)    /*!< SMPS step down in bypass mode (di
 251:Drivers/STM32WLxx_HAL_Driver/Inc/stm32wlxx_ll_pwr.h **** #define LL_PWR_SMPS_STEP_DOWN              (PWR_CR5_SMPSEN)  /*!< SMPS step down in step down mode 
 252:Drivers/STM32WLxx_HAL_Driver/Inc/stm32wlxx_ll_pwr.h **** /**
 253:Drivers/STM32WLxx_HAL_Driver/Inc/stm32wlxx_ll_pwr.h ****   * @}
 254:Drivers/STM32WLxx_HAL_Driver/Inc/stm32wlxx_ll_pwr.h ****   */
 255:Drivers/STM32WLxx_HAL_Driver/Inc/stm32wlxx_ll_pwr.h **** 
 256:Drivers/STM32WLxx_HAL_Driver/Inc/stm32wlxx_ll_pwr.h **** /** @defgroup PWR_LL_EC_RADIO_BUSY_POLARITY Radio busy signal polarity
ARM GAS  C:\Users\Lenovo\AppData\Local\Temp\ccLMdYCa.s 			page 6


 257:Drivers/STM32WLxx_HAL_Driver/Inc/stm32wlxx_ll_pwr.h ****   * @{
 258:Drivers/STM32WLxx_HAL_Driver/Inc/stm32wlxx_ll_pwr.h ****   */
 259:Drivers/STM32WLxx_HAL_Driver/Inc/stm32wlxx_ll_pwr.h **** #define LL_PWR_RADIO_BUSY_POLARITY_RISING  (0x00000000UL)     /*!< Radio busy signal polarity to ri
 260:Drivers/STM32WLxx_HAL_Driver/Inc/stm32wlxx_ll_pwr.h **** #define LL_PWR_RADIO_BUSY_POLARITY_FALLING (PWR_CR4_WRFBUSYP) /*!< Radio busy signal polarity to fa
 261:Drivers/STM32WLxx_HAL_Driver/Inc/stm32wlxx_ll_pwr.h **** /**
 262:Drivers/STM32WLxx_HAL_Driver/Inc/stm32wlxx_ll_pwr.h ****   * @}
 263:Drivers/STM32WLxx_HAL_Driver/Inc/stm32wlxx_ll_pwr.h ****   */
 264:Drivers/STM32WLxx_HAL_Driver/Inc/stm32wlxx_ll_pwr.h **** 
 265:Drivers/STM32WLxx_HAL_Driver/Inc/stm32wlxx_ll_pwr.h **** /** @defgroup PWR_LL_EC_RADIO_BUSY_TRIGGER Radio busy trigger
 266:Drivers/STM32WLxx_HAL_Driver/Inc/stm32wlxx_ll_pwr.h ****   * @{
 267:Drivers/STM32WLxx_HAL_Driver/Inc/stm32wlxx_ll_pwr.h ****   */
 268:Drivers/STM32WLxx_HAL_Driver/Inc/stm32wlxx_ll_pwr.h **** #define LL_PWR_RADIO_BUSY_TRIGGER_NONE     (0x00000000UL)     /*!< Radio busy trigger action: no wa
 269:Drivers/STM32WLxx_HAL_Driver/Inc/stm32wlxx_ll_pwr.h **** #define LL_PWR_RADIO_BUSY_TRIGGER_WU_IT    (PWR_CR3_EWRFBUSY) /*!< Radio busy trigger action: wake-
 270:Drivers/STM32WLxx_HAL_Driver/Inc/stm32wlxx_ll_pwr.h **** /**
 271:Drivers/STM32WLxx_HAL_Driver/Inc/stm32wlxx_ll_pwr.h ****   * @}
 272:Drivers/STM32WLxx_HAL_Driver/Inc/stm32wlxx_ll_pwr.h ****   */
 273:Drivers/STM32WLxx_HAL_Driver/Inc/stm32wlxx_ll_pwr.h **** 
 274:Drivers/STM32WLxx_HAL_Driver/Inc/stm32wlxx_ll_pwr.h **** /** @defgroup PWR_LL_EC_RADIO_IRQ_TRIGGER Radio IRQ trigger
 275:Drivers/STM32WLxx_HAL_Driver/Inc/stm32wlxx_ll_pwr.h ****   * @{
 276:Drivers/STM32WLxx_HAL_Driver/Inc/stm32wlxx_ll_pwr.h ****   */
 277:Drivers/STM32WLxx_HAL_Driver/Inc/stm32wlxx_ll_pwr.h **** #define LL_PWR_RADIO_IRQ_TRIGGER_NONE      (0x00000000UL)     /*!< Radio IRQ trigger action: no wak
 278:Drivers/STM32WLxx_HAL_Driver/Inc/stm32wlxx_ll_pwr.h **** #define LL_PWR_RADIO_IRQ_TRIGGER_WU_IT     (PWR_CR3_EWRFIRQ)  /*!< Radio IRQ trigger action: wake-u
 279:Drivers/STM32WLxx_HAL_Driver/Inc/stm32wlxx_ll_pwr.h **** /**
 280:Drivers/STM32WLxx_HAL_Driver/Inc/stm32wlxx_ll_pwr.h ****   * @}
 281:Drivers/STM32WLxx_HAL_Driver/Inc/stm32wlxx_ll_pwr.h ****   */
 282:Drivers/STM32WLxx_HAL_Driver/Inc/stm32wlxx_ll_pwr.h **** 
 283:Drivers/STM32WLxx_HAL_Driver/Inc/stm32wlxx_ll_pwr.h **** /** @defgroup PWR_LL_EC_RADIO_SPI_NSS_SRC Radio Sub-GHz radio SPI NSS source
 284:Drivers/STM32WLxx_HAL_Driver/Inc/stm32wlxx_ll_pwr.h ****   * @{
 285:Drivers/STM32WLxx_HAL_Driver/Inc/stm32wlxx_ll_pwr.h ****   */
 286:Drivers/STM32WLxx_HAL_Driver/Inc/stm32wlxx_ll_pwr.h **** #define LL_PWR_SUBGHZSPI_NSS_SRC_SW        (0x00000000UL)            /*!< Sub-GHz radio SPI NSS con
 287:Drivers/STM32WLxx_HAL_Driver/Inc/stm32wlxx_ll_pwr.h **** #define LL_PWR_SUBGHZSPI_NSS_SRC_LPTIM3    (PWR_CR1_SUBGHZSPINSSSEL) /*!< Sub-GHz radio SPI NSS con
 288:Drivers/STM32WLxx_HAL_Driver/Inc/stm32wlxx_ll_pwr.h **** /**
 289:Drivers/STM32WLxx_HAL_Driver/Inc/stm32wlxx_ll_pwr.h ****   * @}
 290:Drivers/STM32WLxx_HAL_Driver/Inc/stm32wlxx_ll_pwr.h ****   */
 291:Drivers/STM32WLxx_HAL_Driver/Inc/stm32wlxx_ll_pwr.h **** 
 292:Drivers/STM32WLxx_HAL_Driver/Inc/stm32wlxx_ll_pwr.h **** /**
 293:Drivers/STM32WLxx_HAL_Driver/Inc/stm32wlxx_ll_pwr.h ****   * @}
 294:Drivers/STM32WLxx_HAL_Driver/Inc/stm32wlxx_ll_pwr.h ****   */
 295:Drivers/STM32WLxx_HAL_Driver/Inc/stm32wlxx_ll_pwr.h **** 
 296:Drivers/STM32WLxx_HAL_Driver/Inc/stm32wlxx_ll_pwr.h **** /* Exported macro ------------------------------------------------------------*/
 297:Drivers/STM32WLxx_HAL_Driver/Inc/stm32wlxx_ll_pwr.h **** /** @defgroup PWR_LL_Exported_Macros PWR Exported Macros
 298:Drivers/STM32WLxx_HAL_Driver/Inc/stm32wlxx_ll_pwr.h ****   * @{
 299:Drivers/STM32WLxx_HAL_Driver/Inc/stm32wlxx_ll_pwr.h ****   */
 300:Drivers/STM32WLxx_HAL_Driver/Inc/stm32wlxx_ll_pwr.h **** 
 301:Drivers/STM32WLxx_HAL_Driver/Inc/stm32wlxx_ll_pwr.h **** /** @defgroup PWR_LL_EM_WRITE_READ Common Write and read registers Macros
 302:Drivers/STM32WLxx_HAL_Driver/Inc/stm32wlxx_ll_pwr.h ****   * @{
 303:Drivers/STM32WLxx_HAL_Driver/Inc/stm32wlxx_ll_pwr.h ****   */
 304:Drivers/STM32WLxx_HAL_Driver/Inc/stm32wlxx_ll_pwr.h **** 
 305:Drivers/STM32WLxx_HAL_Driver/Inc/stm32wlxx_ll_pwr.h **** /**
 306:Drivers/STM32WLxx_HAL_Driver/Inc/stm32wlxx_ll_pwr.h ****   * @brief  Write a value in PWR register
 307:Drivers/STM32WLxx_HAL_Driver/Inc/stm32wlxx_ll_pwr.h ****   * @param  __REG__ Register to be written
 308:Drivers/STM32WLxx_HAL_Driver/Inc/stm32wlxx_ll_pwr.h ****   * @param  __VALUE__ Value to be written in the register
 309:Drivers/STM32WLxx_HAL_Driver/Inc/stm32wlxx_ll_pwr.h ****   * @retval None
 310:Drivers/STM32WLxx_HAL_Driver/Inc/stm32wlxx_ll_pwr.h ****   */
 311:Drivers/STM32WLxx_HAL_Driver/Inc/stm32wlxx_ll_pwr.h **** #define LL_PWR_WriteReg(__REG__, __VALUE__) WRITE_REG(PWR->__REG__, (__VALUE__))
 312:Drivers/STM32WLxx_HAL_Driver/Inc/stm32wlxx_ll_pwr.h **** 
 313:Drivers/STM32WLxx_HAL_Driver/Inc/stm32wlxx_ll_pwr.h **** /**
ARM GAS  C:\Users\Lenovo\AppData\Local\Temp\ccLMdYCa.s 			page 7


 314:Drivers/STM32WLxx_HAL_Driver/Inc/stm32wlxx_ll_pwr.h ****   * @brief  Read a value in PWR register
 315:Drivers/STM32WLxx_HAL_Driver/Inc/stm32wlxx_ll_pwr.h ****   * @param  __REG__ Register to be read
 316:Drivers/STM32WLxx_HAL_Driver/Inc/stm32wlxx_ll_pwr.h ****   * @retval Register value
 317:Drivers/STM32WLxx_HAL_Driver/Inc/stm32wlxx_ll_pwr.h ****   */
 318:Drivers/STM32WLxx_HAL_Driver/Inc/stm32wlxx_ll_pwr.h **** #define LL_PWR_ReadReg(__REG__) READ_REG(PWR->__REG__)
 319:Drivers/STM32WLxx_HAL_Driver/Inc/stm32wlxx_ll_pwr.h **** /**
 320:Drivers/STM32WLxx_HAL_Driver/Inc/stm32wlxx_ll_pwr.h ****   * @}
 321:Drivers/STM32WLxx_HAL_Driver/Inc/stm32wlxx_ll_pwr.h ****   */
 322:Drivers/STM32WLxx_HAL_Driver/Inc/stm32wlxx_ll_pwr.h **** 
 323:Drivers/STM32WLxx_HAL_Driver/Inc/stm32wlxx_ll_pwr.h **** /**
 324:Drivers/STM32WLxx_HAL_Driver/Inc/stm32wlxx_ll_pwr.h ****   * @}
 325:Drivers/STM32WLxx_HAL_Driver/Inc/stm32wlxx_ll_pwr.h ****   */
 326:Drivers/STM32WLxx_HAL_Driver/Inc/stm32wlxx_ll_pwr.h **** 
 327:Drivers/STM32WLxx_HAL_Driver/Inc/stm32wlxx_ll_pwr.h **** 
 328:Drivers/STM32WLxx_HAL_Driver/Inc/stm32wlxx_ll_pwr.h **** /* Exported functions --------------------------------------------------------*/
 329:Drivers/STM32WLxx_HAL_Driver/Inc/stm32wlxx_ll_pwr.h **** /** @defgroup PWR_LL_Exported_Functions PWR Exported Functions
 330:Drivers/STM32WLxx_HAL_Driver/Inc/stm32wlxx_ll_pwr.h ****   * @{
 331:Drivers/STM32WLxx_HAL_Driver/Inc/stm32wlxx_ll_pwr.h ****   */
 332:Drivers/STM32WLxx_HAL_Driver/Inc/stm32wlxx_ll_pwr.h **** 
 333:Drivers/STM32WLxx_HAL_Driver/Inc/stm32wlxx_ll_pwr.h **** /** @defgroup PWR_LL_EF_Configuration Configuration
 334:Drivers/STM32WLxx_HAL_Driver/Inc/stm32wlxx_ll_pwr.h ****   * @{
 335:Drivers/STM32WLxx_HAL_Driver/Inc/stm32wlxx_ll_pwr.h ****   */
 336:Drivers/STM32WLxx_HAL_Driver/Inc/stm32wlxx_ll_pwr.h **** 
 337:Drivers/STM32WLxx_HAL_Driver/Inc/stm32wlxx_ll_pwr.h **** /**
 338:Drivers/STM32WLxx_HAL_Driver/Inc/stm32wlxx_ll_pwr.h ****   * @brief  Switch from run main mode to run low-power mode.
 339:Drivers/STM32WLxx_HAL_Driver/Inc/stm32wlxx_ll_pwr.h ****   * @rmtoll CR1          LPR           LL_PWR_EnterLowPowerRunMode
 340:Drivers/STM32WLxx_HAL_Driver/Inc/stm32wlxx_ll_pwr.h ****   * @retval None
 341:Drivers/STM32WLxx_HAL_Driver/Inc/stm32wlxx_ll_pwr.h ****   */
 342:Drivers/STM32WLxx_HAL_Driver/Inc/stm32wlxx_ll_pwr.h **** __STATIC_INLINE void LL_PWR_EnterLowPowerRunMode(void)
 343:Drivers/STM32WLxx_HAL_Driver/Inc/stm32wlxx_ll_pwr.h **** {
 344:Drivers/STM32WLxx_HAL_Driver/Inc/stm32wlxx_ll_pwr.h ****   SET_BIT(PWR->CR1, PWR_CR1_LPR);
 345:Drivers/STM32WLxx_HAL_Driver/Inc/stm32wlxx_ll_pwr.h **** }
 346:Drivers/STM32WLxx_HAL_Driver/Inc/stm32wlxx_ll_pwr.h **** 
 347:Drivers/STM32WLxx_HAL_Driver/Inc/stm32wlxx_ll_pwr.h **** /**
 348:Drivers/STM32WLxx_HAL_Driver/Inc/stm32wlxx_ll_pwr.h ****   * @brief  Switch from run main mode to low-power mode.
 349:Drivers/STM32WLxx_HAL_Driver/Inc/stm32wlxx_ll_pwr.h ****   * @rmtoll CR1          LPR           LL_PWR_ExitLowPowerRunMode
 350:Drivers/STM32WLxx_HAL_Driver/Inc/stm32wlxx_ll_pwr.h ****   * @retval None
 351:Drivers/STM32WLxx_HAL_Driver/Inc/stm32wlxx_ll_pwr.h ****   */
 352:Drivers/STM32WLxx_HAL_Driver/Inc/stm32wlxx_ll_pwr.h **** __STATIC_INLINE void LL_PWR_ExitLowPowerRunMode(void)
 353:Drivers/STM32WLxx_HAL_Driver/Inc/stm32wlxx_ll_pwr.h **** {
 354:Drivers/STM32WLxx_HAL_Driver/Inc/stm32wlxx_ll_pwr.h ****   CLEAR_BIT(PWR->CR1, PWR_CR1_LPR);
 355:Drivers/STM32WLxx_HAL_Driver/Inc/stm32wlxx_ll_pwr.h **** }
 356:Drivers/STM32WLxx_HAL_Driver/Inc/stm32wlxx_ll_pwr.h **** 
 357:Drivers/STM32WLxx_HAL_Driver/Inc/stm32wlxx_ll_pwr.h **** /**
 358:Drivers/STM32WLxx_HAL_Driver/Inc/stm32wlxx_ll_pwr.h ****   * @brief  Check if the regulator is in low-power mode
 359:Drivers/STM32WLxx_HAL_Driver/Inc/stm32wlxx_ll_pwr.h ****   * @rmtoll CR1          LPR           LL_PWR_IsEnabledLowPowerRunMode
 360:Drivers/STM32WLxx_HAL_Driver/Inc/stm32wlxx_ll_pwr.h ****   * @retval State of bit (1 or 0).
 361:Drivers/STM32WLxx_HAL_Driver/Inc/stm32wlxx_ll_pwr.h ****   */
 362:Drivers/STM32WLxx_HAL_Driver/Inc/stm32wlxx_ll_pwr.h **** __STATIC_INLINE uint32_t LL_PWR_IsEnabledLowPowerRunMode(void)
 363:Drivers/STM32WLxx_HAL_Driver/Inc/stm32wlxx_ll_pwr.h **** {
 364:Drivers/STM32WLxx_HAL_Driver/Inc/stm32wlxx_ll_pwr.h ****   return ((READ_BIT(PWR->CR1, PWR_CR1_LPR) == (PWR_CR1_LPR)) ? 1UL : 0UL);
 365:Drivers/STM32WLxx_HAL_Driver/Inc/stm32wlxx_ll_pwr.h **** }
 366:Drivers/STM32WLxx_HAL_Driver/Inc/stm32wlxx_ll_pwr.h **** 
 367:Drivers/STM32WLxx_HAL_Driver/Inc/stm32wlxx_ll_pwr.h **** /**
 368:Drivers/STM32WLxx_HAL_Driver/Inc/stm32wlxx_ll_pwr.h ****   * @brief  Set the main internal regulator output voltage
 369:Drivers/STM32WLxx_HAL_Driver/Inc/stm32wlxx_ll_pwr.h ****   * @note   A delay is required for the internal regulator to be ready
 370:Drivers/STM32WLxx_HAL_Driver/Inc/stm32wlxx_ll_pwr.h ****   *         after the voltage scaling has been changed.
ARM GAS  C:\Users\Lenovo\AppData\Local\Temp\ccLMdYCa.s 			page 8


 371:Drivers/STM32WLxx_HAL_Driver/Inc/stm32wlxx_ll_pwr.h ****   *         Check whether regulator reached the selected voltage level
 372:Drivers/STM32WLxx_HAL_Driver/Inc/stm32wlxx_ll_pwr.h ****   *         can be done using function @ref LL_PWR_IsActiveFlag_VOS().
 373:Drivers/STM32WLxx_HAL_Driver/Inc/stm32wlxx_ll_pwr.h ****   * @rmtoll CR1          VOS           LL_PWR_SetRegulVoltageScaling
 374:Drivers/STM32WLxx_HAL_Driver/Inc/stm32wlxx_ll_pwr.h ****   * @param  VoltageScaling This parameter can be one of the following values:
 375:Drivers/STM32WLxx_HAL_Driver/Inc/stm32wlxx_ll_pwr.h ****   *         @arg @ref LL_PWR_REGU_VOLTAGE_SCALE1
 376:Drivers/STM32WLxx_HAL_Driver/Inc/stm32wlxx_ll_pwr.h ****   *         @arg @ref LL_PWR_REGU_VOLTAGE_SCALE2
 377:Drivers/STM32WLxx_HAL_Driver/Inc/stm32wlxx_ll_pwr.h ****   * @retval None
 378:Drivers/STM32WLxx_HAL_Driver/Inc/stm32wlxx_ll_pwr.h ****   */
 379:Drivers/STM32WLxx_HAL_Driver/Inc/stm32wlxx_ll_pwr.h **** __STATIC_INLINE void LL_PWR_SetRegulVoltageScaling(uint32_t VoltageScaling)
 380:Drivers/STM32WLxx_HAL_Driver/Inc/stm32wlxx_ll_pwr.h **** {
 381:Drivers/STM32WLxx_HAL_Driver/Inc/stm32wlxx_ll_pwr.h ****   MODIFY_REG(PWR->CR1, PWR_CR1_VOS, VoltageScaling);
 382:Drivers/STM32WLxx_HAL_Driver/Inc/stm32wlxx_ll_pwr.h **** }
 383:Drivers/STM32WLxx_HAL_Driver/Inc/stm32wlxx_ll_pwr.h **** 
 384:Drivers/STM32WLxx_HAL_Driver/Inc/stm32wlxx_ll_pwr.h **** /**
 385:Drivers/STM32WLxx_HAL_Driver/Inc/stm32wlxx_ll_pwr.h ****   * @brief  Get the main internal regulator output voltage
 386:Drivers/STM32WLxx_HAL_Driver/Inc/stm32wlxx_ll_pwr.h ****   * @rmtoll CR1          VOS           LL_PWR_GetRegulVoltageScaling
 387:Drivers/STM32WLxx_HAL_Driver/Inc/stm32wlxx_ll_pwr.h ****   * @retval Returned value can be one of the following values:
 388:Drivers/STM32WLxx_HAL_Driver/Inc/stm32wlxx_ll_pwr.h ****   *         @arg @ref LL_PWR_REGU_VOLTAGE_SCALE1
 389:Drivers/STM32WLxx_HAL_Driver/Inc/stm32wlxx_ll_pwr.h ****   *         @arg @ref LL_PWR_REGU_VOLTAGE_SCALE2
 390:Drivers/STM32WLxx_HAL_Driver/Inc/stm32wlxx_ll_pwr.h ****   */
 391:Drivers/STM32WLxx_HAL_Driver/Inc/stm32wlxx_ll_pwr.h **** __STATIC_INLINE uint32_t LL_PWR_GetRegulVoltageScaling(void)
 392:Drivers/STM32WLxx_HAL_Driver/Inc/stm32wlxx_ll_pwr.h **** {
 393:Drivers/STM32WLxx_HAL_Driver/Inc/stm32wlxx_ll_pwr.h ****   return (uint32_t)(READ_BIT(PWR->CR1, PWR_CR1_VOS));
 394:Drivers/STM32WLxx_HAL_Driver/Inc/stm32wlxx_ll_pwr.h **** }
 395:Drivers/STM32WLxx_HAL_Driver/Inc/stm32wlxx_ll_pwr.h **** 
 396:Drivers/STM32WLxx_HAL_Driver/Inc/stm32wlxx_ll_pwr.h **** /**
 397:Drivers/STM32WLxx_HAL_Driver/Inc/stm32wlxx_ll_pwr.h ****   * @brief  Enable access to the backup domain
 398:Drivers/STM32WLxx_HAL_Driver/Inc/stm32wlxx_ll_pwr.h ****   * @rmtoll CR1          DBP           LL_PWR_EnableBkUpAccess
 399:Drivers/STM32WLxx_HAL_Driver/Inc/stm32wlxx_ll_pwr.h ****   * @retval None
 400:Drivers/STM32WLxx_HAL_Driver/Inc/stm32wlxx_ll_pwr.h ****   */
 401:Drivers/STM32WLxx_HAL_Driver/Inc/stm32wlxx_ll_pwr.h **** __STATIC_INLINE void LL_PWR_EnableBkUpAccess(void)
 402:Drivers/STM32WLxx_HAL_Driver/Inc/stm32wlxx_ll_pwr.h **** {
 403:Drivers/STM32WLxx_HAL_Driver/Inc/stm32wlxx_ll_pwr.h ****   SET_BIT(PWR->CR1, PWR_CR1_DBP);
 404:Drivers/STM32WLxx_HAL_Driver/Inc/stm32wlxx_ll_pwr.h **** }
 405:Drivers/STM32WLxx_HAL_Driver/Inc/stm32wlxx_ll_pwr.h **** 
 406:Drivers/STM32WLxx_HAL_Driver/Inc/stm32wlxx_ll_pwr.h **** /**
 407:Drivers/STM32WLxx_HAL_Driver/Inc/stm32wlxx_ll_pwr.h ****   * @brief  Disable access to the backup domain
 408:Drivers/STM32WLxx_HAL_Driver/Inc/stm32wlxx_ll_pwr.h ****   * @rmtoll CR1          DBP           LL_PWR_DisableBkUpAccess
 409:Drivers/STM32WLxx_HAL_Driver/Inc/stm32wlxx_ll_pwr.h ****   * @retval None
 410:Drivers/STM32WLxx_HAL_Driver/Inc/stm32wlxx_ll_pwr.h ****   */
 411:Drivers/STM32WLxx_HAL_Driver/Inc/stm32wlxx_ll_pwr.h **** __STATIC_INLINE void LL_PWR_DisableBkUpAccess(void)
 412:Drivers/STM32WLxx_HAL_Driver/Inc/stm32wlxx_ll_pwr.h **** {
 413:Drivers/STM32WLxx_HAL_Driver/Inc/stm32wlxx_ll_pwr.h ****   CLEAR_BIT(PWR->CR1, PWR_CR1_DBP);
 414:Drivers/STM32WLxx_HAL_Driver/Inc/stm32wlxx_ll_pwr.h **** }
 415:Drivers/STM32WLxx_HAL_Driver/Inc/stm32wlxx_ll_pwr.h **** 
 416:Drivers/STM32WLxx_HAL_Driver/Inc/stm32wlxx_ll_pwr.h **** /**
 417:Drivers/STM32WLxx_HAL_Driver/Inc/stm32wlxx_ll_pwr.h ****   * @brief  Check if the backup domain is enabled
 418:Drivers/STM32WLxx_HAL_Driver/Inc/stm32wlxx_ll_pwr.h ****   * @rmtoll CR1          DBP           LL_PWR_IsEnabledBkUpAccess
 419:Drivers/STM32WLxx_HAL_Driver/Inc/stm32wlxx_ll_pwr.h ****   * @retval State of bit (1 or 0).
 420:Drivers/STM32WLxx_HAL_Driver/Inc/stm32wlxx_ll_pwr.h ****   */
 421:Drivers/STM32WLxx_HAL_Driver/Inc/stm32wlxx_ll_pwr.h **** __STATIC_INLINE uint32_t LL_PWR_IsEnabledBkUpAccess(void)
 422:Drivers/STM32WLxx_HAL_Driver/Inc/stm32wlxx_ll_pwr.h **** {
 423:Drivers/STM32WLxx_HAL_Driver/Inc/stm32wlxx_ll_pwr.h ****   return ((READ_BIT(PWR->CR1, PWR_CR1_DBP) == (PWR_CR1_DBP)) ? 1UL : 0UL);
 424:Drivers/STM32WLxx_HAL_Driver/Inc/stm32wlxx_ll_pwr.h **** }
 425:Drivers/STM32WLxx_HAL_Driver/Inc/stm32wlxx_ll_pwr.h **** 
 426:Drivers/STM32WLxx_HAL_Driver/Inc/stm32wlxx_ll_pwr.h **** /**
 427:Drivers/STM32WLxx_HAL_Driver/Inc/stm32wlxx_ll_pwr.h ****   * @brief  Set Low-Power mode
ARM GAS  C:\Users\Lenovo\AppData\Local\Temp\ccLMdYCa.s 			page 9


 428:Drivers/STM32WLxx_HAL_Driver/Inc/stm32wlxx_ll_pwr.h ****   * @rmtoll CR1          LPMS          LL_PWR_SetPowerMode
 429:Drivers/STM32WLxx_HAL_Driver/Inc/stm32wlxx_ll_pwr.h ****   * @param  LowPowerMode This parameter can be one of the following values:
 430:Drivers/STM32WLxx_HAL_Driver/Inc/stm32wlxx_ll_pwr.h ****   *         @arg @ref LL_PWR_MODE_STOP0
 431:Drivers/STM32WLxx_HAL_Driver/Inc/stm32wlxx_ll_pwr.h ****   *         @arg @ref LL_PWR_MODE_STOP1
 432:Drivers/STM32WLxx_HAL_Driver/Inc/stm32wlxx_ll_pwr.h ****   *         @arg @ref LL_PWR_MODE_STOP2
 433:Drivers/STM32WLxx_HAL_Driver/Inc/stm32wlxx_ll_pwr.h ****   *         @arg @ref LL_PWR_MODE_STANDBY
 434:Drivers/STM32WLxx_HAL_Driver/Inc/stm32wlxx_ll_pwr.h ****   *         @arg @ref LL_PWR_MODE_SHUTDOWN
 435:Drivers/STM32WLxx_HAL_Driver/Inc/stm32wlxx_ll_pwr.h ****   * @retval None
 436:Drivers/STM32WLxx_HAL_Driver/Inc/stm32wlxx_ll_pwr.h ****   */
 437:Drivers/STM32WLxx_HAL_Driver/Inc/stm32wlxx_ll_pwr.h **** __STATIC_INLINE void LL_PWR_SetPowerMode(uint32_t LowPowerMode)
 438:Drivers/STM32WLxx_HAL_Driver/Inc/stm32wlxx_ll_pwr.h **** {
 439:Drivers/STM32WLxx_HAL_Driver/Inc/stm32wlxx_ll_pwr.h ****   MODIFY_REG(PWR->CR1, PWR_CR1_LPMS, LowPowerMode);
 440:Drivers/STM32WLxx_HAL_Driver/Inc/stm32wlxx_ll_pwr.h **** }
 441:Drivers/STM32WLxx_HAL_Driver/Inc/stm32wlxx_ll_pwr.h **** 
 442:Drivers/STM32WLxx_HAL_Driver/Inc/stm32wlxx_ll_pwr.h **** /**
 443:Drivers/STM32WLxx_HAL_Driver/Inc/stm32wlxx_ll_pwr.h ****   * @brief  Get Low-Power mode
 444:Drivers/STM32WLxx_HAL_Driver/Inc/stm32wlxx_ll_pwr.h ****   * @rmtoll CR1          LPMS          LL_PWR_GetPowerMode
 445:Drivers/STM32WLxx_HAL_Driver/Inc/stm32wlxx_ll_pwr.h ****   * @retval Returned value can be one of the following values:
 446:Drivers/STM32WLxx_HAL_Driver/Inc/stm32wlxx_ll_pwr.h ****   *         @arg @ref LL_PWR_MODE_STOP0
 447:Drivers/STM32WLxx_HAL_Driver/Inc/stm32wlxx_ll_pwr.h ****   *         @arg @ref LL_PWR_MODE_STOP1
 448:Drivers/STM32WLxx_HAL_Driver/Inc/stm32wlxx_ll_pwr.h ****   *         @arg @ref LL_PWR_MODE_STOP2
 449:Drivers/STM32WLxx_HAL_Driver/Inc/stm32wlxx_ll_pwr.h ****   *         @arg @ref LL_PWR_MODE_STANDBY
 450:Drivers/STM32WLxx_HAL_Driver/Inc/stm32wlxx_ll_pwr.h ****   *         @arg @ref LL_PWR_MODE_SHUTDOWN
 451:Drivers/STM32WLxx_HAL_Driver/Inc/stm32wlxx_ll_pwr.h ****   */
 452:Drivers/STM32WLxx_HAL_Driver/Inc/stm32wlxx_ll_pwr.h **** __STATIC_INLINE uint32_t LL_PWR_GetPowerMode(void)
 453:Drivers/STM32WLxx_HAL_Driver/Inc/stm32wlxx_ll_pwr.h **** {
 454:Drivers/STM32WLxx_HAL_Driver/Inc/stm32wlxx_ll_pwr.h ****   return (uint32_t)(READ_BIT(PWR->CR1, PWR_CR1_LPMS));
 455:Drivers/STM32WLxx_HAL_Driver/Inc/stm32wlxx_ll_pwr.h **** }
 456:Drivers/STM32WLxx_HAL_Driver/Inc/stm32wlxx_ll_pwr.h **** 
 457:Drivers/STM32WLxx_HAL_Driver/Inc/stm32wlxx_ll_pwr.h **** /**
 458:Drivers/STM32WLxx_HAL_Driver/Inc/stm32wlxx_ll_pwr.h ****   * @brief  Set flash power-down mode during low-power run mode
 459:Drivers/STM32WLxx_HAL_Driver/Inc/stm32wlxx_ll_pwr.h ****   * @rmtoll CR1          FPDR          LL_PWR_SetFlashPowerModeLPRun
 460:Drivers/STM32WLxx_HAL_Driver/Inc/stm32wlxx_ll_pwr.h ****   * @param  FlashLowPowerMode This parameter can be one of the following values:
 461:Drivers/STM32WLxx_HAL_Driver/Inc/stm32wlxx_ll_pwr.h ****   *         @arg @ref LL_PWR_FLASH_LPRUN_MODE_IDLE
 462:Drivers/STM32WLxx_HAL_Driver/Inc/stm32wlxx_ll_pwr.h ****   *         @arg @ref LL_PWR_FLASH_LPRUN_MODE_POWER_DOWN
 463:Drivers/STM32WLxx_HAL_Driver/Inc/stm32wlxx_ll_pwr.h ****   * @retval None
 464:Drivers/STM32WLxx_HAL_Driver/Inc/stm32wlxx_ll_pwr.h ****   */
 465:Drivers/STM32WLxx_HAL_Driver/Inc/stm32wlxx_ll_pwr.h **** __STATIC_INLINE void LL_PWR_SetFlashPowerModeLPRun(uint32_t FlashLowPowerMode)
 466:Drivers/STM32WLxx_HAL_Driver/Inc/stm32wlxx_ll_pwr.h **** {
 467:Drivers/STM32WLxx_HAL_Driver/Inc/stm32wlxx_ll_pwr.h ****   /* Unlock bit FPDR */
 468:Drivers/STM32WLxx_HAL_Driver/Inc/stm32wlxx_ll_pwr.h ****   WRITE_REG(PWR->CR1, PWR_FLASH_POWER_MODE_UNLOCK_CODE);
 469:Drivers/STM32WLxx_HAL_Driver/Inc/stm32wlxx_ll_pwr.h **** 
 470:Drivers/STM32WLxx_HAL_Driver/Inc/stm32wlxx_ll_pwr.h ****   /* Update bit FPDR */
 471:Drivers/STM32WLxx_HAL_Driver/Inc/stm32wlxx_ll_pwr.h ****   MODIFY_REG(PWR->CR1, PWR_CR1_FPDR, FlashLowPowerMode);
 472:Drivers/STM32WLxx_HAL_Driver/Inc/stm32wlxx_ll_pwr.h **** }
 473:Drivers/STM32WLxx_HAL_Driver/Inc/stm32wlxx_ll_pwr.h **** 
 474:Drivers/STM32WLxx_HAL_Driver/Inc/stm32wlxx_ll_pwr.h **** /**
 475:Drivers/STM32WLxx_HAL_Driver/Inc/stm32wlxx_ll_pwr.h ****   * @brief  Get flash power-down mode during low-power run mode
 476:Drivers/STM32WLxx_HAL_Driver/Inc/stm32wlxx_ll_pwr.h ****   * @rmtoll CR1          FPDR          LL_PWR_GetFlashPowerModeLPRun
 477:Drivers/STM32WLxx_HAL_Driver/Inc/stm32wlxx_ll_pwr.h ****   * @retval Returned value can be one of the following values:
 478:Drivers/STM32WLxx_HAL_Driver/Inc/stm32wlxx_ll_pwr.h ****   *         @arg @ref LL_PWR_FLASH_LPRUN_MODE_IDLE
 479:Drivers/STM32WLxx_HAL_Driver/Inc/stm32wlxx_ll_pwr.h ****   *         @arg @ref LL_PWR_FLASH_LPRUN_MODE_POWER_DOWN
 480:Drivers/STM32WLxx_HAL_Driver/Inc/stm32wlxx_ll_pwr.h ****   */
 481:Drivers/STM32WLxx_HAL_Driver/Inc/stm32wlxx_ll_pwr.h **** __STATIC_INLINE uint32_t LL_PWR_GetFlashPowerModeLPRun(void)
 482:Drivers/STM32WLxx_HAL_Driver/Inc/stm32wlxx_ll_pwr.h **** {
 483:Drivers/STM32WLxx_HAL_Driver/Inc/stm32wlxx_ll_pwr.h ****   return (uint32_t)(READ_BIT(PWR->CR1, PWR_CR1_FPDR));
 484:Drivers/STM32WLxx_HAL_Driver/Inc/stm32wlxx_ll_pwr.h **** }
ARM GAS  C:\Users\Lenovo\AppData\Local\Temp\ccLMdYCa.s 			page 10


 485:Drivers/STM32WLxx_HAL_Driver/Inc/stm32wlxx_ll_pwr.h **** 
 486:Drivers/STM32WLxx_HAL_Driver/Inc/stm32wlxx_ll_pwr.h **** /**
 487:Drivers/STM32WLxx_HAL_Driver/Inc/stm32wlxx_ll_pwr.h ****   * @brief  Set flash power-down mode during sleep mode
 488:Drivers/STM32WLxx_HAL_Driver/Inc/stm32wlxx_ll_pwr.h ****   * @rmtoll CR1          FPDS          LL_PWR_SetFlashPowerModeSleep
 489:Drivers/STM32WLxx_HAL_Driver/Inc/stm32wlxx_ll_pwr.h ****   * @param  FlashLowPowerMode This parameter can be one of the following values:
 490:Drivers/STM32WLxx_HAL_Driver/Inc/stm32wlxx_ll_pwr.h ****   *         @arg @ref LL_PWR_FLASH_SLEEP_MODE_IDLE
 491:Drivers/STM32WLxx_HAL_Driver/Inc/stm32wlxx_ll_pwr.h ****   *         @arg @ref LL_PWR_FLASH_SLEEP_MODE_POWER_DOWN
 492:Drivers/STM32WLxx_HAL_Driver/Inc/stm32wlxx_ll_pwr.h ****   * @retval None
 493:Drivers/STM32WLxx_HAL_Driver/Inc/stm32wlxx_ll_pwr.h ****   */
 494:Drivers/STM32WLxx_HAL_Driver/Inc/stm32wlxx_ll_pwr.h **** __STATIC_INLINE void LL_PWR_SetFlashPowerModeSleep(uint32_t FlashLowPowerMode)
 495:Drivers/STM32WLxx_HAL_Driver/Inc/stm32wlxx_ll_pwr.h **** {
 496:Drivers/STM32WLxx_HAL_Driver/Inc/stm32wlxx_ll_pwr.h ****   MODIFY_REG(PWR->CR1, PWR_CR1_FPDS, FlashLowPowerMode);
 497:Drivers/STM32WLxx_HAL_Driver/Inc/stm32wlxx_ll_pwr.h **** }
 498:Drivers/STM32WLxx_HAL_Driver/Inc/stm32wlxx_ll_pwr.h **** 
 499:Drivers/STM32WLxx_HAL_Driver/Inc/stm32wlxx_ll_pwr.h **** /**
 500:Drivers/STM32WLxx_HAL_Driver/Inc/stm32wlxx_ll_pwr.h ****   * @brief  Get flash power-down mode during sleep mode
 501:Drivers/STM32WLxx_HAL_Driver/Inc/stm32wlxx_ll_pwr.h ****   * @rmtoll CR1          FPDS          LL_PWR_GetFlashPowerModeSleep
 502:Drivers/STM32WLxx_HAL_Driver/Inc/stm32wlxx_ll_pwr.h ****   * @retval Returned value can be one of the following values:
 503:Drivers/STM32WLxx_HAL_Driver/Inc/stm32wlxx_ll_pwr.h ****   *         @arg @ref LL_PWR_FLASH_SLEEP_MODE_IDLE
 504:Drivers/STM32WLxx_HAL_Driver/Inc/stm32wlxx_ll_pwr.h ****   *         @arg @ref LL_PWR_FLASH_SLEEP_MODE_POWER_DOWN
 505:Drivers/STM32WLxx_HAL_Driver/Inc/stm32wlxx_ll_pwr.h ****   */
 506:Drivers/STM32WLxx_HAL_Driver/Inc/stm32wlxx_ll_pwr.h **** __STATIC_INLINE uint32_t LL_PWR_GetFlashPowerModeSleep(void)
 507:Drivers/STM32WLxx_HAL_Driver/Inc/stm32wlxx_ll_pwr.h **** {
 508:Drivers/STM32WLxx_HAL_Driver/Inc/stm32wlxx_ll_pwr.h ****   return (uint32_t)(READ_BIT(PWR->CR1, PWR_CR1_FPDS));
 509:Drivers/STM32WLxx_HAL_Driver/Inc/stm32wlxx_ll_pwr.h **** }
 510:Drivers/STM32WLxx_HAL_Driver/Inc/stm32wlxx_ll_pwr.h **** 
 511:Drivers/STM32WLxx_HAL_Driver/Inc/stm32wlxx_ll_pwr.h **** /**
 512:Drivers/STM32WLxx_HAL_Driver/Inc/stm32wlxx_ll_pwr.h ****   * @brief  Enable the Power Voltage Monitoring on a peripheral
 513:Drivers/STM32WLxx_HAL_Driver/Inc/stm32wlxx_ll_pwr.h ****   * @rmtoll CR2          PVME3         LL_PWR_EnablePVM
 514:Drivers/STM32WLxx_HAL_Driver/Inc/stm32wlxx_ll_pwr.h ****   * @param  PeriphVoltage This parameter can be one of the following values:
 515:Drivers/STM32WLxx_HAL_Driver/Inc/stm32wlxx_ll_pwr.h ****   *         @arg @ref LL_PWR_PVM_VDDA_1_62V
 516:Drivers/STM32WLxx_HAL_Driver/Inc/stm32wlxx_ll_pwr.h ****   * @retval None
 517:Drivers/STM32WLxx_HAL_Driver/Inc/stm32wlxx_ll_pwr.h ****   */
 518:Drivers/STM32WLxx_HAL_Driver/Inc/stm32wlxx_ll_pwr.h **** __STATIC_INLINE void LL_PWR_EnablePVM(uint32_t PeriphVoltage)
 519:Drivers/STM32WLxx_HAL_Driver/Inc/stm32wlxx_ll_pwr.h **** {
 520:Drivers/STM32WLxx_HAL_Driver/Inc/stm32wlxx_ll_pwr.h ****   SET_BIT(PWR->CR2, PeriphVoltage);
 521:Drivers/STM32WLxx_HAL_Driver/Inc/stm32wlxx_ll_pwr.h **** }
 522:Drivers/STM32WLxx_HAL_Driver/Inc/stm32wlxx_ll_pwr.h **** 
 523:Drivers/STM32WLxx_HAL_Driver/Inc/stm32wlxx_ll_pwr.h **** /**
 524:Drivers/STM32WLxx_HAL_Driver/Inc/stm32wlxx_ll_pwr.h ****   * @brief  Disable the Power Voltage Monitoring on a peripheral
 525:Drivers/STM32WLxx_HAL_Driver/Inc/stm32wlxx_ll_pwr.h ****   * @rmtoll CR2          PVME3         LL_PWR_DisablePVM
 526:Drivers/STM32WLxx_HAL_Driver/Inc/stm32wlxx_ll_pwr.h ****   * @param  PeriphVoltage This parameter can be one of the following values:
 527:Drivers/STM32WLxx_HAL_Driver/Inc/stm32wlxx_ll_pwr.h ****   *         @arg @ref LL_PWR_PVM_VDDA_1_62V
 528:Drivers/STM32WLxx_HAL_Driver/Inc/stm32wlxx_ll_pwr.h ****   * @retval None
 529:Drivers/STM32WLxx_HAL_Driver/Inc/stm32wlxx_ll_pwr.h ****   */
 530:Drivers/STM32WLxx_HAL_Driver/Inc/stm32wlxx_ll_pwr.h **** __STATIC_INLINE void LL_PWR_DisablePVM(uint32_t PeriphVoltage)
 531:Drivers/STM32WLxx_HAL_Driver/Inc/stm32wlxx_ll_pwr.h **** {
 532:Drivers/STM32WLxx_HAL_Driver/Inc/stm32wlxx_ll_pwr.h ****   CLEAR_BIT(PWR->CR2, PeriphVoltage);
 533:Drivers/STM32WLxx_HAL_Driver/Inc/stm32wlxx_ll_pwr.h **** }
 534:Drivers/STM32WLxx_HAL_Driver/Inc/stm32wlxx_ll_pwr.h **** 
 535:Drivers/STM32WLxx_HAL_Driver/Inc/stm32wlxx_ll_pwr.h **** /**
 536:Drivers/STM32WLxx_HAL_Driver/Inc/stm32wlxx_ll_pwr.h ****   * @brief  Check if Power Voltage Monitoring is enabled on a peripheral
 537:Drivers/STM32WLxx_HAL_Driver/Inc/stm32wlxx_ll_pwr.h ****   * @rmtoll CR2          PVME3         LL_PWR_IsEnabledPVM
 538:Drivers/STM32WLxx_HAL_Driver/Inc/stm32wlxx_ll_pwr.h ****   * @param  PeriphVoltage This parameter can be one of the following values:
 539:Drivers/STM32WLxx_HAL_Driver/Inc/stm32wlxx_ll_pwr.h ****   *         @arg @ref LL_PWR_PVM_VDDA_1_62V
 540:Drivers/STM32WLxx_HAL_Driver/Inc/stm32wlxx_ll_pwr.h ****   * @retval State of bit (1 or 0).
 541:Drivers/STM32WLxx_HAL_Driver/Inc/stm32wlxx_ll_pwr.h ****   */
ARM GAS  C:\Users\Lenovo\AppData\Local\Temp\ccLMdYCa.s 			page 11


 542:Drivers/STM32WLxx_HAL_Driver/Inc/stm32wlxx_ll_pwr.h **** __STATIC_INLINE uint32_t LL_PWR_IsEnabledPVM(uint32_t PeriphVoltage)
 543:Drivers/STM32WLxx_HAL_Driver/Inc/stm32wlxx_ll_pwr.h **** {
 544:Drivers/STM32WLxx_HAL_Driver/Inc/stm32wlxx_ll_pwr.h ****   return ((READ_BIT(PWR->CR2, PeriphVoltage) == (PeriphVoltage)) ? 1UL : 0UL);
 545:Drivers/STM32WLxx_HAL_Driver/Inc/stm32wlxx_ll_pwr.h **** }
 546:Drivers/STM32WLxx_HAL_Driver/Inc/stm32wlxx_ll_pwr.h **** 
 547:Drivers/STM32WLxx_HAL_Driver/Inc/stm32wlxx_ll_pwr.h **** /**
 548:Drivers/STM32WLxx_HAL_Driver/Inc/stm32wlxx_ll_pwr.h ****   * @brief  Configure the voltage threshold detected by the Power Voltage Detector
 549:Drivers/STM32WLxx_HAL_Driver/Inc/stm32wlxx_ll_pwr.h ****   * @rmtoll CR2          PLS           LL_PWR_SetPVDLevel
 550:Drivers/STM32WLxx_HAL_Driver/Inc/stm32wlxx_ll_pwr.h ****   * @param  PVDLevel This parameter can be one of the following values:
 551:Drivers/STM32WLxx_HAL_Driver/Inc/stm32wlxx_ll_pwr.h ****   *         @arg @ref LL_PWR_PVDLEVEL_0
 552:Drivers/STM32WLxx_HAL_Driver/Inc/stm32wlxx_ll_pwr.h ****   *         @arg @ref LL_PWR_PVDLEVEL_1
 553:Drivers/STM32WLxx_HAL_Driver/Inc/stm32wlxx_ll_pwr.h ****   *         @arg @ref LL_PWR_PVDLEVEL_2
 554:Drivers/STM32WLxx_HAL_Driver/Inc/stm32wlxx_ll_pwr.h ****   *         @arg @ref LL_PWR_PVDLEVEL_3
 555:Drivers/STM32WLxx_HAL_Driver/Inc/stm32wlxx_ll_pwr.h ****   *         @arg @ref LL_PWR_PVDLEVEL_4
 556:Drivers/STM32WLxx_HAL_Driver/Inc/stm32wlxx_ll_pwr.h ****   *         @arg @ref LL_PWR_PVDLEVEL_5
 557:Drivers/STM32WLxx_HAL_Driver/Inc/stm32wlxx_ll_pwr.h ****   *         @arg @ref LL_PWR_PVDLEVEL_6
 558:Drivers/STM32WLxx_HAL_Driver/Inc/stm32wlxx_ll_pwr.h ****   *         @arg @ref LL_PWR_PVDLEVEL_7
 559:Drivers/STM32WLxx_HAL_Driver/Inc/stm32wlxx_ll_pwr.h ****   * @retval None
 560:Drivers/STM32WLxx_HAL_Driver/Inc/stm32wlxx_ll_pwr.h ****   */
 561:Drivers/STM32WLxx_HAL_Driver/Inc/stm32wlxx_ll_pwr.h **** __STATIC_INLINE void LL_PWR_SetPVDLevel(uint32_t PVDLevel)
 562:Drivers/STM32WLxx_HAL_Driver/Inc/stm32wlxx_ll_pwr.h **** {
 563:Drivers/STM32WLxx_HAL_Driver/Inc/stm32wlxx_ll_pwr.h ****   MODIFY_REG(PWR->CR2, PWR_CR2_PLS, PVDLevel);
 564:Drivers/STM32WLxx_HAL_Driver/Inc/stm32wlxx_ll_pwr.h **** }
 565:Drivers/STM32WLxx_HAL_Driver/Inc/stm32wlxx_ll_pwr.h **** 
 566:Drivers/STM32WLxx_HAL_Driver/Inc/stm32wlxx_ll_pwr.h **** /**
 567:Drivers/STM32WLxx_HAL_Driver/Inc/stm32wlxx_ll_pwr.h ****   * @brief  Get the voltage threshold detection
 568:Drivers/STM32WLxx_HAL_Driver/Inc/stm32wlxx_ll_pwr.h ****   * @rmtoll CR2          PLS           LL_PWR_GetPVDLevel
 569:Drivers/STM32WLxx_HAL_Driver/Inc/stm32wlxx_ll_pwr.h ****   * @retval Returned value can be one of the following values:
 570:Drivers/STM32WLxx_HAL_Driver/Inc/stm32wlxx_ll_pwr.h ****   *         @arg @ref LL_PWR_PVDLEVEL_0
 571:Drivers/STM32WLxx_HAL_Driver/Inc/stm32wlxx_ll_pwr.h ****   *         @arg @ref LL_PWR_PVDLEVEL_1
 572:Drivers/STM32WLxx_HAL_Driver/Inc/stm32wlxx_ll_pwr.h ****   *         @arg @ref LL_PWR_PVDLEVEL_2
 573:Drivers/STM32WLxx_HAL_Driver/Inc/stm32wlxx_ll_pwr.h ****   *         @arg @ref LL_PWR_PVDLEVEL_3
 574:Drivers/STM32WLxx_HAL_Driver/Inc/stm32wlxx_ll_pwr.h ****   *         @arg @ref LL_PWR_PVDLEVEL_4
 575:Drivers/STM32WLxx_HAL_Driver/Inc/stm32wlxx_ll_pwr.h ****   *         @arg @ref LL_PWR_PVDLEVEL_5
 576:Drivers/STM32WLxx_HAL_Driver/Inc/stm32wlxx_ll_pwr.h ****   *         @arg @ref LL_PWR_PVDLEVEL_6
 577:Drivers/STM32WLxx_HAL_Driver/Inc/stm32wlxx_ll_pwr.h ****   *         @arg @ref LL_PWR_PVDLEVEL_7
 578:Drivers/STM32WLxx_HAL_Driver/Inc/stm32wlxx_ll_pwr.h ****   */
 579:Drivers/STM32WLxx_HAL_Driver/Inc/stm32wlxx_ll_pwr.h **** __STATIC_INLINE uint32_t LL_PWR_GetPVDLevel(void)
 580:Drivers/STM32WLxx_HAL_Driver/Inc/stm32wlxx_ll_pwr.h **** {
 581:Drivers/STM32WLxx_HAL_Driver/Inc/stm32wlxx_ll_pwr.h ****   return (uint32_t)(READ_BIT(PWR->CR2, PWR_CR2_PLS));
 582:Drivers/STM32WLxx_HAL_Driver/Inc/stm32wlxx_ll_pwr.h **** }
 583:Drivers/STM32WLxx_HAL_Driver/Inc/stm32wlxx_ll_pwr.h **** 
 584:Drivers/STM32WLxx_HAL_Driver/Inc/stm32wlxx_ll_pwr.h **** /**
 585:Drivers/STM32WLxx_HAL_Driver/Inc/stm32wlxx_ll_pwr.h ****   * @brief  Enable Power Voltage Detector
 586:Drivers/STM32WLxx_HAL_Driver/Inc/stm32wlxx_ll_pwr.h ****   * @rmtoll CR2          PVDE          LL_PWR_EnablePVD
 587:Drivers/STM32WLxx_HAL_Driver/Inc/stm32wlxx_ll_pwr.h ****   * @retval None
 588:Drivers/STM32WLxx_HAL_Driver/Inc/stm32wlxx_ll_pwr.h ****   */
 589:Drivers/STM32WLxx_HAL_Driver/Inc/stm32wlxx_ll_pwr.h **** __STATIC_INLINE void LL_PWR_EnablePVD(void)
 590:Drivers/STM32WLxx_HAL_Driver/Inc/stm32wlxx_ll_pwr.h **** {
 591:Drivers/STM32WLxx_HAL_Driver/Inc/stm32wlxx_ll_pwr.h ****   SET_BIT(PWR->CR2, PWR_CR2_PVDE);
 592:Drivers/STM32WLxx_HAL_Driver/Inc/stm32wlxx_ll_pwr.h **** }
 593:Drivers/STM32WLxx_HAL_Driver/Inc/stm32wlxx_ll_pwr.h **** 
 594:Drivers/STM32WLxx_HAL_Driver/Inc/stm32wlxx_ll_pwr.h **** /**
 595:Drivers/STM32WLxx_HAL_Driver/Inc/stm32wlxx_ll_pwr.h ****   * @brief  Disable Power Voltage Detector
 596:Drivers/STM32WLxx_HAL_Driver/Inc/stm32wlxx_ll_pwr.h ****   * @rmtoll CR2          PVDE          LL_PWR_DisablePVD
 597:Drivers/STM32WLxx_HAL_Driver/Inc/stm32wlxx_ll_pwr.h ****   * @retval None
 598:Drivers/STM32WLxx_HAL_Driver/Inc/stm32wlxx_ll_pwr.h ****   */
ARM GAS  C:\Users\Lenovo\AppData\Local\Temp\ccLMdYCa.s 			page 12


 599:Drivers/STM32WLxx_HAL_Driver/Inc/stm32wlxx_ll_pwr.h **** __STATIC_INLINE void LL_PWR_DisablePVD(void)
 600:Drivers/STM32WLxx_HAL_Driver/Inc/stm32wlxx_ll_pwr.h **** {
 601:Drivers/STM32WLxx_HAL_Driver/Inc/stm32wlxx_ll_pwr.h ****   CLEAR_BIT(PWR->CR2, PWR_CR2_PVDE);
 602:Drivers/STM32WLxx_HAL_Driver/Inc/stm32wlxx_ll_pwr.h **** }
 603:Drivers/STM32WLxx_HAL_Driver/Inc/stm32wlxx_ll_pwr.h **** 
 604:Drivers/STM32WLxx_HAL_Driver/Inc/stm32wlxx_ll_pwr.h **** /**
 605:Drivers/STM32WLxx_HAL_Driver/Inc/stm32wlxx_ll_pwr.h ****   * @brief  Check if Power Voltage Detector is enabled
 606:Drivers/STM32WLxx_HAL_Driver/Inc/stm32wlxx_ll_pwr.h ****   * @rmtoll CR2          PVDE          LL_PWR_IsEnabledPVD
 607:Drivers/STM32WLxx_HAL_Driver/Inc/stm32wlxx_ll_pwr.h ****   * @retval State of bit (1 or 0).
 608:Drivers/STM32WLxx_HAL_Driver/Inc/stm32wlxx_ll_pwr.h ****   */
 609:Drivers/STM32WLxx_HAL_Driver/Inc/stm32wlxx_ll_pwr.h **** __STATIC_INLINE uint32_t LL_PWR_IsEnabledPVD(void)
 610:Drivers/STM32WLxx_HAL_Driver/Inc/stm32wlxx_ll_pwr.h **** {
 611:Drivers/STM32WLxx_HAL_Driver/Inc/stm32wlxx_ll_pwr.h ****   return ((READ_BIT(PWR->CR2, PWR_CR2_PVDE) == (PWR_CR2_PVDE)) ? 1UL : 0UL);
 612:Drivers/STM32WLxx_HAL_Driver/Inc/stm32wlxx_ll_pwr.h **** }
 613:Drivers/STM32WLxx_HAL_Driver/Inc/stm32wlxx_ll_pwr.h **** 
 614:Drivers/STM32WLxx_HAL_Driver/Inc/stm32wlxx_ll_pwr.h **** /**
 615:Drivers/STM32WLxx_HAL_Driver/Inc/stm32wlxx_ll_pwr.h ****   * @brief  Set monitoring of supply voltage for radio operating level
 616:Drivers/STM32WLxx_HAL_Driver/Inc/stm32wlxx_ll_pwr.h ****   *         (radio End Of Life), radio must be in active mode.
 617:Drivers/STM32WLxx_HAL_Driver/Inc/stm32wlxx_ll_pwr.h ****   * @rmtoll CR5          RFEOLEN       LL_PWR_SetRadioEOL
 618:Drivers/STM32WLxx_HAL_Driver/Inc/stm32wlxx_ll_pwr.h ****   * @param  RadioEOL This parameter can be one of the following values:
 619:Drivers/STM32WLxx_HAL_Driver/Inc/stm32wlxx_ll_pwr.h ****   *         @arg @ref LL_PWR_RADIO_EOL_DISABLE
 620:Drivers/STM32WLxx_HAL_Driver/Inc/stm32wlxx_ll_pwr.h ****   *         @arg @ref LL_PWR_RADIO_EOL_ENABLE
 621:Drivers/STM32WLxx_HAL_Driver/Inc/stm32wlxx_ll_pwr.h ****   * @retval None
 622:Drivers/STM32WLxx_HAL_Driver/Inc/stm32wlxx_ll_pwr.h ****   */
 623:Drivers/STM32WLxx_HAL_Driver/Inc/stm32wlxx_ll_pwr.h **** __STATIC_INLINE void LL_PWR_SetRadioEOL(uint32_t RadioEOL)
 624:Drivers/STM32WLxx_HAL_Driver/Inc/stm32wlxx_ll_pwr.h **** {
 625:Drivers/STM32WLxx_HAL_Driver/Inc/stm32wlxx_ll_pwr.h ****   MODIFY_REG(PWR->CR5, PWR_CR5_RFEOLEN, RadioEOL);
 626:Drivers/STM32WLxx_HAL_Driver/Inc/stm32wlxx_ll_pwr.h **** }
 627:Drivers/STM32WLxx_HAL_Driver/Inc/stm32wlxx_ll_pwr.h **** 
 628:Drivers/STM32WLxx_HAL_Driver/Inc/stm32wlxx_ll_pwr.h **** /**
 629:Drivers/STM32WLxx_HAL_Driver/Inc/stm32wlxx_ll_pwr.h ****   * @brief  Get monitoring of supply voltage for radio operating level (radio End Of Life)
 630:Drivers/STM32WLxx_HAL_Driver/Inc/stm32wlxx_ll_pwr.h ****   * @rmtoll CR5          RFEOLEN       LL_PWR_GetRadioEOL
 631:Drivers/STM32WLxx_HAL_Driver/Inc/stm32wlxx_ll_pwr.h ****   * @retval Returned value can be one of the following values:
 632:Drivers/STM32WLxx_HAL_Driver/Inc/stm32wlxx_ll_pwr.h ****   *         @arg @ref LL_PWR_RADIO_EOL_DISABLE
 633:Drivers/STM32WLxx_HAL_Driver/Inc/stm32wlxx_ll_pwr.h ****   *         @arg @ref LL_PWR_RADIO_EOL_ENABLE
 634:Drivers/STM32WLxx_HAL_Driver/Inc/stm32wlxx_ll_pwr.h ****   */
 635:Drivers/STM32WLxx_HAL_Driver/Inc/stm32wlxx_ll_pwr.h **** __STATIC_INLINE uint32_t LL_PWR_GetRadioEOL(void)
 636:Drivers/STM32WLxx_HAL_Driver/Inc/stm32wlxx_ll_pwr.h **** {
 637:Drivers/STM32WLxx_HAL_Driver/Inc/stm32wlxx_ll_pwr.h ****   return (uint32_t)(READ_BIT(PWR->CR5, PWR_CR5_RFEOLEN));
 638:Drivers/STM32WLxx_HAL_Driver/Inc/stm32wlxx_ll_pwr.h **** }
 639:Drivers/STM32WLxx_HAL_Driver/Inc/stm32wlxx_ll_pwr.h **** 
 640:Drivers/STM32WLxx_HAL_Driver/Inc/stm32wlxx_ll_pwr.h **** /**
 641:Drivers/STM32WLxx_HAL_Driver/Inc/stm32wlxx_ll_pwr.h ****   * @brief  Enable Internal Wake-up line
 642:Drivers/STM32WLxx_HAL_Driver/Inc/stm32wlxx_ll_pwr.h ****   * @rmtoll CR3          EIWF          LL_PWR_EnableInternWU
 643:Drivers/STM32WLxx_HAL_Driver/Inc/stm32wlxx_ll_pwr.h ****   * @retval None
 644:Drivers/STM32WLxx_HAL_Driver/Inc/stm32wlxx_ll_pwr.h ****   */
 645:Drivers/STM32WLxx_HAL_Driver/Inc/stm32wlxx_ll_pwr.h **** __STATIC_INLINE void LL_PWR_EnableInternWU(void)
 646:Drivers/STM32WLxx_HAL_Driver/Inc/stm32wlxx_ll_pwr.h **** {
 647:Drivers/STM32WLxx_HAL_Driver/Inc/stm32wlxx_ll_pwr.h ****   SET_BIT(PWR->CR3, PWR_CR3_EIWUL);
 648:Drivers/STM32WLxx_HAL_Driver/Inc/stm32wlxx_ll_pwr.h **** }
 649:Drivers/STM32WLxx_HAL_Driver/Inc/stm32wlxx_ll_pwr.h **** 
 650:Drivers/STM32WLxx_HAL_Driver/Inc/stm32wlxx_ll_pwr.h **** /**
 651:Drivers/STM32WLxx_HAL_Driver/Inc/stm32wlxx_ll_pwr.h ****   * @brief  Disable Internal Wake-up line
 652:Drivers/STM32WLxx_HAL_Driver/Inc/stm32wlxx_ll_pwr.h ****   * @rmtoll CR3          EIWF          LL_PWR_DisableInternWU
 653:Drivers/STM32WLxx_HAL_Driver/Inc/stm32wlxx_ll_pwr.h ****   * @retval None
 654:Drivers/STM32WLxx_HAL_Driver/Inc/stm32wlxx_ll_pwr.h ****   */
 655:Drivers/STM32WLxx_HAL_Driver/Inc/stm32wlxx_ll_pwr.h **** __STATIC_INLINE void LL_PWR_DisableInternWU(void)
ARM GAS  C:\Users\Lenovo\AppData\Local\Temp\ccLMdYCa.s 			page 13


 656:Drivers/STM32WLxx_HAL_Driver/Inc/stm32wlxx_ll_pwr.h **** {
 657:Drivers/STM32WLxx_HAL_Driver/Inc/stm32wlxx_ll_pwr.h ****   CLEAR_BIT(PWR->CR3, PWR_CR3_EIWUL);
 658:Drivers/STM32WLxx_HAL_Driver/Inc/stm32wlxx_ll_pwr.h **** }
 659:Drivers/STM32WLxx_HAL_Driver/Inc/stm32wlxx_ll_pwr.h **** 
 660:Drivers/STM32WLxx_HAL_Driver/Inc/stm32wlxx_ll_pwr.h **** /**
 661:Drivers/STM32WLxx_HAL_Driver/Inc/stm32wlxx_ll_pwr.h ****   * @brief  Check if Internal Wake-up line is enabled
 662:Drivers/STM32WLxx_HAL_Driver/Inc/stm32wlxx_ll_pwr.h ****   * @rmtoll CR3          EIWF          LL_PWR_IsEnabledInternWU
 663:Drivers/STM32WLxx_HAL_Driver/Inc/stm32wlxx_ll_pwr.h ****   * @retval State of bit (1 or 0).
 664:Drivers/STM32WLxx_HAL_Driver/Inc/stm32wlxx_ll_pwr.h ****   */
 665:Drivers/STM32WLxx_HAL_Driver/Inc/stm32wlxx_ll_pwr.h **** __STATIC_INLINE uint32_t LL_PWR_IsEnabledInternWU(void)
 666:Drivers/STM32WLxx_HAL_Driver/Inc/stm32wlxx_ll_pwr.h **** {
 667:Drivers/STM32WLxx_HAL_Driver/Inc/stm32wlxx_ll_pwr.h ****   return ((READ_BIT(PWR->CR3, PWR_CR3_EIWUL) == (PWR_CR3_EIWUL)) ? 1UL : 0UL);
 668:Drivers/STM32WLxx_HAL_Driver/Inc/stm32wlxx_ll_pwr.h **** }
 669:Drivers/STM32WLxx_HAL_Driver/Inc/stm32wlxx_ll_pwr.h **** 
 670:Drivers/STM32WLxx_HAL_Driver/Inc/stm32wlxx_ll_pwr.h **** /**
 671:Drivers/STM32WLxx_HAL_Driver/Inc/stm32wlxx_ll_pwr.h ****   * @brief  Enable pull-up and pull-down configuration
 672:Drivers/STM32WLxx_HAL_Driver/Inc/stm32wlxx_ll_pwr.h ****   * @rmtoll CR3          APC           LL_PWR_EnablePUPDCfg
 673:Drivers/STM32WLxx_HAL_Driver/Inc/stm32wlxx_ll_pwr.h ****   * @retval None
 674:Drivers/STM32WLxx_HAL_Driver/Inc/stm32wlxx_ll_pwr.h ****   */
 675:Drivers/STM32WLxx_HAL_Driver/Inc/stm32wlxx_ll_pwr.h **** __STATIC_INLINE void LL_PWR_EnablePUPDCfg(void)
 676:Drivers/STM32WLxx_HAL_Driver/Inc/stm32wlxx_ll_pwr.h **** {
 677:Drivers/STM32WLxx_HAL_Driver/Inc/stm32wlxx_ll_pwr.h ****   SET_BIT(PWR->CR3, PWR_CR3_APC);
 678:Drivers/STM32WLxx_HAL_Driver/Inc/stm32wlxx_ll_pwr.h **** }
 679:Drivers/STM32WLxx_HAL_Driver/Inc/stm32wlxx_ll_pwr.h **** 
 680:Drivers/STM32WLxx_HAL_Driver/Inc/stm32wlxx_ll_pwr.h **** /**
 681:Drivers/STM32WLxx_HAL_Driver/Inc/stm32wlxx_ll_pwr.h ****   * @brief  Disable pull-up and pull-down configuration
 682:Drivers/STM32WLxx_HAL_Driver/Inc/stm32wlxx_ll_pwr.h ****   * @rmtoll CR3          APC           LL_PWR_DisablePUPDCfg
 683:Drivers/STM32WLxx_HAL_Driver/Inc/stm32wlxx_ll_pwr.h ****   * @retval None
 684:Drivers/STM32WLxx_HAL_Driver/Inc/stm32wlxx_ll_pwr.h ****   */
 685:Drivers/STM32WLxx_HAL_Driver/Inc/stm32wlxx_ll_pwr.h **** __STATIC_INLINE void LL_PWR_DisablePUPDCfg(void)
 686:Drivers/STM32WLxx_HAL_Driver/Inc/stm32wlxx_ll_pwr.h **** {
 687:Drivers/STM32WLxx_HAL_Driver/Inc/stm32wlxx_ll_pwr.h ****   CLEAR_BIT(PWR->CR3, PWR_CR3_APC);
 688:Drivers/STM32WLxx_HAL_Driver/Inc/stm32wlxx_ll_pwr.h **** }
 689:Drivers/STM32WLxx_HAL_Driver/Inc/stm32wlxx_ll_pwr.h **** 
 690:Drivers/STM32WLxx_HAL_Driver/Inc/stm32wlxx_ll_pwr.h **** /**
 691:Drivers/STM32WLxx_HAL_Driver/Inc/stm32wlxx_ll_pwr.h ****   * @brief  Check if pull-up and pull-down configuration is enabled
 692:Drivers/STM32WLxx_HAL_Driver/Inc/stm32wlxx_ll_pwr.h ****   * @rmtoll CR3          APC           LL_PWR_IsEnabledPUPDCfg
 693:Drivers/STM32WLxx_HAL_Driver/Inc/stm32wlxx_ll_pwr.h ****   * @retval State of bit (1 or 0).
 694:Drivers/STM32WLxx_HAL_Driver/Inc/stm32wlxx_ll_pwr.h ****   */
 695:Drivers/STM32WLxx_HAL_Driver/Inc/stm32wlxx_ll_pwr.h **** __STATIC_INLINE uint32_t LL_PWR_IsEnabledPUPDCfg(void)
 696:Drivers/STM32WLxx_HAL_Driver/Inc/stm32wlxx_ll_pwr.h **** {
 697:Drivers/STM32WLxx_HAL_Driver/Inc/stm32wlxx_ll_pwr.h ****   return ((READ_BIT(PWR->CR3, PWR_CR3_APC) == (PWR_CR3_APC)) ? 1UL : 0UL);
 698:Drivers/STM32WLxx_HAL_Driver/Inc/stm32wlxx_ll_pwr.h **** }
 699:Drivers/STM32WLxx_HAL_Driver/Inc/stm32wlxx_ll_pwr.h **** 
 700:Drivers/STM32WLxx_HAL_Driver/Inc/stm32wlxx_ll_pwr.h **** /**
 701:Drivers/STM32WLxx_HAL_Driver/Inc/stm32wlxx_ll_pwr.h ****   * @brief  Enable SRAM2 content retention in Standby mode
 702:Drivers/STM32WLxx_HAL_Driver/Inc/stm32wlxx_ll_pwr.h ****   * @rmtoll CR3          RRS           LL_PWR_EnableSRAM2Retention
 703:Drivers/STM32WLxx_HAL_Driver/Inc/stm32wlxx_ll_pwr.h ****   * @retval None
 704:Drivers/STM32WLxx_HAL_Driver/Inc/stm32wlxx_ll_pwr.h ****   */
 705:Drivers/STM32WLxx_HAL_Driver/Inc/stm32wlxx_ll_pwr.h **** __STATIC_INLINE void LL_PWR_EnableSRAM2Retention(void)
 706:Drivers/STM32WLxx_HAL_Driver/Inc/stm32wlxx_ll_pwr.h **** {
  32              		.loc 1 706 1
  33              		.cfi_startproc
  34              		@ args = 0, pretend = 0, frame = 0
  35              		@ frame_needed = 1, uses_anonymous_args = 0
  36              		@ link register save eliminated.
  37 0000 80B4     		push	{r7}
ARM GAS  C:\Users\Lenovo\AppData\Local\Temp\ccLMdYCa.s 			page 14


  38              	.LCFI0:
  39              		.cfi_def_cfa_offset 4
  40              		.cfi_offset 7, -4
  41 0002 00AF     		add	r7, sp, #0
  42              	.LCFI1:
  43              		.cfi_def_cfa_register 7
 707:Drivers/STM32WLxx_HAL_Driver/Inc/stm32wlxx_ll_pwr.h ****   SET_BIT(PWR->CR3, PWR_CR3_RRS);
  44              		.loc 1 707 3
  45 0004 044B     		ldr	r3, .L2
  46 0006 9B68     		ldr	r3, [r3, #8]
  47 0008 034A     		ldr	r2, .L2
  48 000a 43F40073 		orr	r3, r3, #512
  49 000e 9360     		str	r3, [r2, #8]
 708:Drivers/STM32WLxx_HAL_Driver/Inc/stm32wlxx_ll_pwr.h **** }
  50              		.loc 1 708 1
  51 0010 00BF     		nop
  52 0012 BD46     		mov	sp, r7
  53              	.LCFI2:
  54              		.cfi_def_cfa_register 13
  55              		@ sp needed
  56 0014 80BC     		pop	{r7}
  57              	.LCFI3:
  58              		.cfi_restore 7
  59              		.cfi_def_cfa_offset 0
  60 0016 7047     		bx	lr
  61              	.L3:
  62              		.align	2
  63              	.L2:
  64 0018 00040058 		.word	1476396032
  65              		.cfi_endproc
  66              	.LFE328:
  68              		.section	.text.LL_PWR_DisableSRAM2Retention,"ax",%progbits
  69              		.align	1
  70              		.syntax unified
  71              		.thumb
  72              		.thumb_func
  74              	LL_PWR_DisableSRAM2Retention:
  75              	.LFB329:
 709:Drivers/STM32WLxx_HAL_Driver/Inc/stm32wlxx_ll_pwr.h **** 
 710:Drivers/STM32WLxx_HAL_Driver/Inc/stm32wlxx_ll_pwr.h **** /**
 711:Drivers/STM32WLxx_HAL_Driver/Inc/stm32wlxx_ll_pwr.h ****   * @brief  Disable SRAM2 content retention in Standby mode
 712:Drivers/STM32WLxx_HAL_Driver/Inc/stm32wlxx_ll_pwr.h ****   * @rmtoll CR3          RRS           LL_PWR_DisableSRAM2Retention
 713:Drivers/STM32WLxx_HAL_Driver/Inc/stm32wlxx_ll_pwr.h ****   * @retval None
 714:Drivers/STM32WLxx_HAL_Driver/Inc/stm32wlxx_ll_pwr.h ****   */
 715:Drivers/STM32WLxx_HAL_Driver/Inc/stm32wlxx_ll_pwr.h **** __STATIC_INLINE void LL_PWR_DisableSRAM2Retention(void)
 716:Drivers/STM32WLxx_HAL_Driver/Inc/stm32wlxx_ll_pwr.h **** {
  76              		.loc 1 716 1
  77              		.cfi_startproc
  78              		@ args = 0, pretend = 0, frame = 0
  79              		@ frame_needed = 1, uses_anonymous_args = 0
  80              		@ link register save eliminated.
  81 0000 80B4     		push	{r7}
  82              	.LCFI4:
  83              		.cfi_def_cfa_offset 4
  84              		.cfi_offset 7, -4
  85 0002 00AF     		add	r7, sp, #0
  86              	.LCFI5:
ARM GAS  C:\Users\Lenovo\AppData\Local\Temp\ccLMdYCa.s 			page 15


  87              		.cfi_def_cfa_register 7
 717:Drivers/STM32WLxx_HAL_Driver/Inc/stm32wlxx_ll_pwr.h ****   CLEAR_BIT(PWR->CR3, PWR_CR3_RRS);
  88              		.loc 1 717 3
  89 0004 044B     		ldr	r3, .L5
  90 0006 9B68     		ldr	r3, [r3, #8]
  91 0008 034A     		ldr	r2, .L5
  92 000a 23F40073 		bic	r3, r3, #512
  93 000e 9360     		str	r3, [r2, #8]
 718:Drivers/STM32WLxx_HAL_Driver/Inc/stm32wlxx_ll_pwr.h **** }
  94              		.loc 1 718 1
  95 0010 00BF     		nop
  96 0012 BD46     		mov	sp, r7
  97              	.LCFI6:
  98              		.cfi_def_cfa_register 13
  99              		@ sp needed
 100 0014 80BC     		pop	{r7}
 101              	.LCFI7:
 102              		.cfi_restore 7
 103              		.cfi_def_cfa_offset 0
 104 0016 7047     		bx	lr
 105              	.L6:
 106              		.align	2
 107              	.L5:
 108 0018 00040058 		.word	1476396032
 109              		.cfi_endproc
 110              	.LFE329:
 112              		.section	.text.LL_PWR_EnableWPVD,"ax",%progbits
 113              		.align	1
 114              		.syntax unified
 115              		.thumb
 116              		.thumb_func
 118              	LL_PWR_EnableWPVD:
 119              	.LFB331:
 719:Drivers/STM32WLxx_HAL_Driver/Inc/stm32wlxx_ll_pwr.h **** 
 720:Drivers/STM32WLxx_HAL_Driver/Inc/stm32wlxx_ll_pwr.h **** /**
 721:Drivers/STM32WLxx_HAL_Driver/Inc/stm32wlxx_ll_pwr.h ****   * @brief  Check if SRAM2 content retention in Standby mode is enabled
 722:Drivers/STM32WLxx_HAL_Driver/Inc/stm32wlxx_ll_pwr.h ****   * @rmtoll CR3          RRS           LL_PWR_IsEnabledSRAM2Retention
 723:Drivers/STM32WLxx_HAL_Driver/Inc/stm32wlxx_ll_pwr.h ****   * @retval State of bit (1 or 0).
 724:Drivers/STM32WLxx_HAL_Driver/Inc/stm32wlxx_ll_pwr.h ****   */
 725:Drivers/STM32WLxx_HAL_Driver/Inc/stm32wlxx_ll_pwr.h **** __STATIC_INLINE uint32_t LL_PWR_IsEnabledSRAM2Retention(void)
 726:Drivers/STM32WLxx_HAL_Driver/Inc/stm32wlxx_ll_pwr.h **** {
 727:Drivers/STM32WLxx_HAL_Driver/Inc/stm32wlxx_ll_pwr.h ****   return ((READ_BIT(PWR->CR3, PWR_CR3_RRS) == (PWR_CR3_RRS)) ? 1UL : 0UL);
 728:Drivers/STM32WLxx_HAL_Driver/Inc/stm32wlxx_ll_pwr.h **** }
 729:Drivers/STM32WLxx_HAL_Driver/Inc/stm32wlxx_ll_pwr.h **** 
 730:Drivers/STM32WLxx_HAL_Driver/Inc/stm32wlxx_ll_pwr.h **** /**
 731:Drivers/STM32WLxx_HAL_Driver/Inc/stm32wlxx_ll_pwr.h ****   * @brief  Enable wake-up power voltage detection with trigger for CPU1
 732:Drivers/STM32WLxx_HAL_Driver/Inc/stm32wlxx_ll_pwr.h ****   * @note   Wake-up power voltage detection status can be checked
 733:Drivers/STM32WLxx_HAL_Driver/Inc/stm32wlxx_ll_pwr.h ****   *         using function @ref LL_PWR_IsActiveFlag_WPVD().
 734:Drivers/STM32WLxx_HAL_Driver/Inc/stm32wlxx_ll_pwr.h ****   * @rmtoll CR3          EWPVD         LL_PWR_EnableWPVD
 735:Drivers/STM32WLxx_HAL_Driver/Inc/stm32wlxx_ll_pwr.h ****   * @retval None
 736:Drivers/STM32WLxx_HAL_Driver/Inc/stm32wlxx_ll_pwr.h ****   */
 737:Drivers/STM32WLxx_HAL_Driver/Inc/stm32wlxx_ll_pwr.h **** __STATIC_INLINE void LL_PWR_EnableWPVD(void)
 738:Drivers/STM32WLxx_HAL_Driver/Inc/stm32wlxx_ll_pwr.h **** {
 120              		.loc 1 738 1
 121              		.cfi_startproc
 122              		@ args = 0, pretend = 0, frame = 0
 123              		@ frame_needed = 1, uses_anonymous_args = 0
ARM GAS  C:\Users\Lenovo\AppData\Local\Temp\ccLMdYCa.s 			page 16


 124              		@ link register save eliminated.
 125 0000 80B4     		push	{r7}
 126              	.LCFI8:
 127              		.cfi_def_cfa_offset 4
 128              		.cfi_offset 7, -4
 129 0002 00AF     		add	r7, sp, #0
 130              	.LCFI9:
 131              		.cfi_def_cfa_register 7
 739:Drivers/STM32WLxx_HAL_Driver/Inc/stm32wlxx_ll_pwr.h ****   SET_BIT(PWR->CR3, PWR_CR3_EWPVD);
 132              		.loc 1 739 3
 133 0004 044B     		ldr	r3, .L8
 134 0006 9B68     		ldr	r3, [r3, #8]
 135 0008 034A     		ldr	r2, .L8
 136 000a 43F48073 		orr	r3, r3, #256
 137 000e 9360     		str	r3, [r2, #8]
 740:Drivers/STM32WLxx_HAL_Driver/Inc/stm32wlxx_ll_pwr.h **** }
 138              		.loc 1 740 1
 139 0010 00BF     		nop
 140 0012 BD46     		mov	sp, r7
 141              	.LCFI10:
 142              		.cfi_def_cfa_register 13
 143              		@ sp needed
 144 0014 80BC     		pop	{r7}
 145              	.LCFI11:
 146              		.cfi_restore 7
 147              		.cfi_def_cfa_offset 0
 148 0016 7047     		bx	lr
 149              	.L9:
 150              		.align	2
 151              	.L8:
 152 0018 00040058 		.word	1476396032
 153              		.cfi_endproc
 154              	.LFE331:
 156              		.section	.text.LL_PWR_DisableWPVD,"ax",%progbits
 157              		.align	1
 158              		.syntax unified
 159              		.thumb
 160              		.thumb_func
 162              	LL_PWR_DisableWPVD:
 163              	.LFB332:
 741:Drivers/STM32WLxx_HAL_Driver/Inc/stm32wlxx_ll_pwr.h **** 
 742:Drivers/STM32WLxx_HAL_Driver/Inc/stm32wlxx_ll_pwr.h **** /**
 743:Drivers/STM32WLxx_HAL_Driver/Inc/stm32wlxx_ll_pwr.h ****   * @brief  Disable wake-up power voltage detection with trigger for CPU1
 744:Drivers/STM32WLxx_HAL_Driver/Inc/stm32wlxx_ll_pwr.h ****   * @rmtoll CR3          EWPVD         LL_PWR_DisableWPVD
 745:Drivers/STM32WLxx_HAL_Driver/Inc/stm32wlxx_ll_pwr.h ****   * @retval None
 746:Drivers/STM32WLxx_HAL_Driver/Inc/stm32wlxx_ll_pwr.h ****   */
 747:Drivers/STM32WLxx_HAL_Driver/Inc/stm32wlxx_ll_pwr.h **** __STATIC_INLINE void LL_PWR_DisableWPVD(void)
 748:Drivers/STM32WLxx_HAL_Driver/Inc/stm32wlxx_ll_pwr.h **** {
 164              		.loc 1 748 1
 165              		.cfi_startproc
 166              		@ args = 0, pretend = 0, frame = 0
 167              		@ frame_needed = 1, uses_anonymous_args = 0
 168              		@ link register save eliminated.
 169 0000 80B4     		push	{r7}
 170              	.LCFI12:
 171              		.cfi_def_cfa_offset 4
 172              		.cfi_offset 7, -4
ARM GAS  C:\Users\Lenovo\AppData\Local\Temp\ccLMdYCa.s 			page 17


 173 0002 00AF     		add	r7, sp, #0
 174              	.LCFI13:
 175              		.cfi_def_cfa_register 7
 749:Drivers/STM32WLxx_HAL_Driver/Inc/stm32wlxx_ll_pwr.h ****   CLEAR_BIT(PWR->CR3, PWR_CR3_EWPVD);
 176              		.loc 1 749 3
 177 0004 044B     		ldr	r3, .L11
 178 0006 9B68     		ldr	r3, [r3, #8]
 179 0008 034A     		ldr	r2, .L11
 180 000a 23F48073 		bic	r3, r3, #256
 181 000e 9360     		str	r3, [r2, #8]
 750:Drivers/STM32WLxx_HAL_Driver/Inc/stm32wlxx_ll_pwr.h **** }
 182              		.loc 1 750 1
 183 0010 00BF     		nop
 184 0012 BD46     		mov	sp, r7
 185              	.LCFI14:
 186              		.cfi_def_cfa_register 13
 187              		@ sp needed
 188 0014 80BC     		pop	{r7}
 189              	.LCFI15:
 190              		.cfi_restore 7
 191              		.cfi_def_cfa_offset 0
 192 0016 7047     		bx	lr
 193              	.L12:
 194              		.align	2
 195              	.L11:
 196 0018 00040058 		.word	1476396032
 197              		.cfi_endproc
 198              	.LFE332:
 200              		.section	.text.LL_PWR_SetRadioBusyPolarity,"ax",%progbits
 201              		.align	1
 202              		.syntax unified
 203              		.thumb
 204              		.thumb_func
 206              	LL_PWR_SetRadioBusyPolarity:
 207              	.LFB360:
 751:Drivers/STM32WLxx_HAL_Driver/Inc/stm32wlxx_ll_pwr.h **** 
 752:Drivers/STM32WLxx_HAL_Driver/Inc/stm32wlxx_ll_pwr.h **** /**
 753:Drivers/STM32WLxx_HAL_Driver/Inc/stm32wlxx_ll_pwr.h ****   * @brief  Check if wake-up power voltage detection is enabled with trigger for CPU1
 754:Drivers/STM32WLxx_HAL_Driver/Inc/stm32wlxx_ll_pwr.h ****   * @rmtoll CR3          EWPVD         LL_PWR_IsEnabledWPVD
 755:Drivers/STM32WLxx_HAL_Driver/Inc/stm32wlxx_ll_pwr.h ****   * @retval State of bit (1 or 0).
 756:Drivers/STM32WLxx_HAL_Driver/Inc/stm32wlxx_ll_pwr.h ****   */
 757:Drivers/STM32WLxx_HAL_Driver/Inc/stm32wlxx_ll_pwr.h **** __STATIC_INLINE uint32_t LL_PWR_IsEnabledWPVD(void)
 758:Drivers/STM32WLxx_HAL_Driver/Inc/stm32wlxx_ll_pwr.h **** {
 759:Drivers/STM32WLxx_HAL_Driver/Inc/stm32wlxx_ll_pwr.h ****   return ((READ_BIT(PWR->CR3, PWR_CR3_EWPVD) == (PWR_CR3_EWPVD)) ? 1UL : 0UL);
 760:Drivers/STM32WLxx_HAL_Driver/Inc/stm32wlxx_ll_pwr.h **** }
 761:Drivers/STM32WLxx_HAL_Driver/Inc/stm32wlxx_ll_pwr.h **** 
 762:Drivers/STM32WLxx_HAL_Driver/Inc/stm32wlxx_ll_pwr.h **** /**
 763:Drivers/STM32WLxx_HAL_Driver/Inc/stm32wlxx_ll_pwr.h ****   * @brief  Enable periodical sampling of supply voltage in Stop and Standby
 764:Drivers/STM32WLxx_HAL_Driver/Inc/stm32wlxx_ll_pwr.h ****   *         modes for detecting condition of PDR and BOR reset.
 765:Drivers/STM32WLxx_HAL_Driver/Inc/stm32wlxx_ll_pwr.h ****   * @note   Caution: When enabled, and if the supply voltage drops below
 766:Drivers/STM32WLxx_HAL_Driver/Inc/stm32wlxx_ll_pwr.h ****   *         the minimum operating condition between two supply voltage samples,
 767:Drivers/STM32WLxx_HAL_Driver/Inc/stm32wlxx_ll_pwr.h ****   *         the reset condition is missed and no reset is generated.
 768:Drivers/STM32WLxx_HAL_Driver/Inc/stm32wlxx_ll_pwr.h ****   * @rmtoll CR3          ULPEN         LL_PWR_EnableBORPVD_ULP
 769:Drivers/STM32WLxx_HAL_Driver/Inc/stm32wlxx_ll_pwr.h ****   * @retval None
 770:Drivers/STM32WLxx_HAL_Driver/Inc/stm32wlxx_ll_pwr.h ****   */
 771:Drivers/STM32WLxx_HAL_Driver/Inc/stm32wlxx_ll_pwr.h **** __STATIC_INLINE void LL_PWR_EnableBORPVD_ULP(void)
 772:Drivers/STM32WLxx_HAL_Driver/Inc/stm32wlxx_ll_pwr.h **** {
ARM GAS  C:\Users\Lenovo\AppData\Local\Temp\ccLMdYCa.s 			page 18


 773:Drivers/STM32WLxx_HAL_Driver/Inc/stm32wlxx_ll_pwr.h ****   SET_BIT(PWR->CR3, PWR_CR3_ULPEN);
 774:Drivers/STM32WLxx_HAL_Driver/Inc/stm32wlxx_ll_pwr.h **** }
 775:Drivers/STM32WLxx_HAL_Driver/Inc/stm32wlxx_ll_pwr.h **** 
 776:Drivers/STM32WLxx_HAL_Driver/Inc/stm32wlxx_ll_pwr.h **** /**
 777:Drivers/STM32WLxx_HAL_Driver/Inc/stm32wlxx_ll_pwr.h ****   * @brief  Disable periodical sampling of supply voltage in Stop and Standby
 778:Drivers/STM32WLxx_HAL_Driver/Inc/stm32wlxx_ll_pwr.h ****   *         modes for detecting condition of PDR and BOR reset.
 779:Drivers/STM32WLxx_HAL_Driver/Inc/stm32wlxx_ll_pwr.h ****   * @rmtoll CR3          ULPEN         LL_PWR_DisableBORPVD_ULP
 780:Drivers/STM32WLxx_HAL_Driver/Inc/stm32wlxx_ll_pwr.h ****   * @retval None
 781:Drivers/STM32WLxx_HAL_Driver/Inc/stm32wlxx_ll_pwr.h ****   */
 782:Drivers/STM32WLxx_HAL_Driver/Inc/stm32wlxx_ll_pwr.h **** __STATIC_INLINE void LL_PWR_DisableBORPVD_ULP(void)
 783:Drivers/STM32WLxx_HAL_Driver/Inc/stm32wlxx_ll_pwr.h **** {
 784:Drivers/STM32WLxx_HAL_Driver/Inc/stm32wlxx_ll_pwr.h ****   CLEAR_BIT(PWR->CR3, PWR_CR3_ULPEN);
 785:Drivers/STM32WLxx_HAL_Driver/Inc/stm32wlxx_ll_pwr.h **** }
 786:Drivers/STM32WLxx_HAL_Driver/Inc/stm32wlxx_ll_pwr.h **** 
 787:Drivers/STM32WLxx_HAL_Driver/Inc/stm32wlxx_ll_pwr.h **** /**
 788:Drivers/STM32WLxx_HAL_Driver/Inc/stm32wlxx_ll_pwr.h ****   * @brief  Check if periodical sampling of supply voltage in Stop and Standby
 789:Drivers/STM32WLxx_HAL_Driver/Inc/stm32wlxx_ll_pwr.h ****   *         modes is enabled.
 790:Drivers/STM32WLxx_HAL_Driver/Inc/stm32wlxx_ll_pwr.h ****   * @rmtoll CR3          ULPEN         LL_PWR_IsEnabledBORPVD_ULP
 791:Drivers/STM32WLxx_HAL_Driver/Inc/stm32wlxx_ll_pwr.h ****   * @retval State of bit (1 or 0).
 792:Drivers/STM32WLxx_HAL_Driver/Inc/stm32wlxx_ll_pwr.h ****   */
 793:Drivers/STM32WLxx_HAL_Driver/Inc/stm32wlxx_ll_pwr.h **** __STATIC_INLINE uint32_t LL_PWR_IsEnabledBORPVD_ULP(void)
 794:Drivers/STM32WLxx_HAL_Driver/Inc/stm32wlxx_ll_pwr.h **** {
 795:Drivers/STM32WLxx_HAL_Driver/Inc/stm32wlxx_ll_pwr.h ****   return ((READ_BIT(PWR->CR3, PWR_CR3_ULPEN) == (PWR_CR3_ULPEN)) ? 1UL : 0UL);
 796:Drivers/STM32WLxx_HAL_Driver/Inc/stm32wlxx_ll_pwr.h **** }
 797:Drivers/STM32WLxx_HAL_Driver/Inc/stm32wlxx_ll_pwr.h **** 
 798:Drivers/STM32WLxx_HAL_Driver/Inc/stm32wlxx_ll_pwr.h **** /**
 799:Drivers/STM32WLxx_HAL_Driver/Inc/stm32wlxx_ll_pwr.h ****   * @brief  Enable the WakeUp PINx functionality
 800:Drivers/STM32WLxx_HAL_Driver/Inc/stm32wlxx_ll_pwr.h ****   * @rmtoll CR3          EWUP1         LL_PWR_EnableWakeUpPin\n
 801:Drivers/STM32WLxx_HAL_Driver/Inc/stm32wlxx_ll_pwr.h ****   *         CR3          EWUP2         LL_PWR_EnableWakeUpPin\n
 802:Drivers/STM32WLxx_HAL_Driver/Inc/stm32wlxx_ll_pwr.h ****   *         CR3          EWUP3         LL_PWR_EnableWakeUpPin
 803:Drivers/STM32WLxx_HAL_Driver/Inc/stm32wlxx_ll_pwr.h ****   * @param  WakeUpPin This parameter can be one of the following values:
 804:Drivers/STM32WLxx_HAL_Driver/Inc/stm32wlxx_ll_pwr.h ****   *         @arg @ref LL_PWR_WAKEUP_PIN1
 805:Drivers/STM32WLxx_HAL_Driver/Inc/stm32wlxx_ll_pwr.h ****   *         @arg @ref LL_PWR_WAKEUP_PIN2
 806:Drivers/STM32WLxx_HAL_Driver/Inc/stm32wlxx_ll_pwr.h ****   *         @arg @ref LL_PWR_WAKEUP_PIN3
 807:Drivers/STM32WLxx_HAL_Driver/Inc/stm32wlxx_ll_pwr.h ****   * @retval None
 808:Drivers/STM32WLxx_HAL_Driver/Inc/stm32wlxx_ll_pwr.h ****   */
 809:Drivers/STM32WLxx_HAL_Driver/Inc/stm32wlxx_ll_pwr.h **** __STATIC_INLINE void LL_PWR_EnableWakeUpPin(uint32_t WakeUpPin)
 810:Drivers/STM32WLxx_HAL_Driver/Inc/stm32wlxx_ll_pwr.h **** {
 811:Drivers/STM32WLxx_HAL_Driver/Inc/stm32wlxx_ll_pwr.h ****   SET_BIT(PWR->CR3, WakeUpPin);
 812:Drivers/STM32WLxx_HAL_Driver/Inc/stm32wlxx_ll_pwr.h **** }
 813:Drivers/STM32WLxx_HAL_Driver/Inc/stm32wlxx_ll_pwr.h **** 
 814:Drivers/STM32WLxx_HAL_Driver/Inc/stm32wlxx_ll_pwr.h **** /**
 815:Drivers/STM32WLxx_HAL_Driver/Inc/stm32wlxx_ll_pwr.h ****   * @brief  Disable the WakeUp PINx functionality
 816:Drivers/STM32WLxx_HAL_Driver/Inc/stm32wlxx_ll_pwr.h ****   * @rmtoll CR3          EWUP1         LL_PWR_DisableWakeUpPin\n
 817:Drivers/STM32WLxx_HAL_Driver/Inc/stm32wlxx_ll_pwr.h ****   *         CR3          EWUP2         LL_PWR_DisableWakeUpPin\n
 818:Drivers/STM32WLxx_HAL_Driver/Inc/stm32wlxx_ll_pwr.h ****   *         CR3          EWUP3         LL_PWR_DisableWakeUpPin
 819:Drivers/STM32WLxx_HAL_Driver/Inc/stm32wlxx_ll_pwr.h ****   * @param  WakeUpPin This parameter can be one of the following values:
 820:Drivers/STM32WLxx_HAL_Driver/Inc/stm32wlxx_ll_pwr.h ****   *         @arg @ref LL_PWR_WAKEUP_PIN1
 821:Drivers/STM32WLxx_HAL_Driver/Inc/stm32wlxx_ll_pwr.h ****   *         @arg @ref LL_PWR_WAKEUP_PIN2
 822:Drivers/STM32WLxx_HAL_Driver/Inc/stm32wlxx_ll_pwr.h ****   *         @arg @ref LL_PWR_WAKEUP_PIN3
 823:Drivers/STM32WLxx_HAL_Driver/Inc/stm32wlxx_ll_pwr.h ****   * @retval None
 824:Drivers/STM32WLxx_HAL_Driver/Inc/stm32wlxx_ll_pwr.h ****   */
 825:Drivers/STM32WLxx_HAL_Driver/Inc/stm32wlxx_ll_pwr.h **** __STATIC_INLINE void LL_PWR_DisableWakeUpPin(uint32_t WakeUpPin)
 826:Drivers/STM32WLxx_HAL_Driver/Inc/stm32wlxx_ll_pwr.h **** {
 827:Drivers/STM32WLxx_HAL_Driver/Inc/stm32wlxx_ll_pwr.h ****   CLEAR_BIT(PWR->CR3, WakeUpPin);
 828:Drivers/STM32WLxx_HAL_Driver/Inc/stm32wlxx_ll_pwr.h **** }
 829:Drivers/STM32WLxx_HAL_Driver/Inc/stm32wlxx_ll_pwr.h **** 
ARM GAS  C:\Users\Lenovo\AppData\Local\Temp\ccLMdYCa.s 			page 19


 830:Drivers/STM32WLxx_HAL_Driver/Inc/stm32wlxx_ll_pwr.h **** /**
 831:Drivers/STM32WLxx_HAL_Driver/Inc/stm32wlxx_ll_pwr.h ****   * @brief  Check if the WakeUp PINx functionality is enabled
 832:Drivers/STM32WLxx_HAL_Driver/Inc/stm32wlxx_ll_pwr.h ****   * @rmtoll CR3          EWUP1         LL_PWR_IsEnabledWakeUpPin\n
 833:Drivers/STM32WLxx_HAL_Driver/Inc/stm32wlxx_ll_pwr.h ****   *         CR3          EWUP2         LL_PWR_IsEnabledWakeUpPin\n
 834:Drivers/STM32WLxx_HAL_Driver/Inc/stm32wlxx_ll_pwr.h ****   *         CR3          EWUP3         LL_PWR_IsEnabledWakeUpPin
 835:Drivers/STM32WLxx_HAL_Driver/Inc/stm32wlxx_ll_pwr.h ****   * @param  WakeUpPin This parameter can be one of the following values:
 836:Drivers/STM32WLxx_HAL_Driver/Inc/stm32wlxx_ll_pwr.h ****   *         @arg @ref LL_PWR_WAKEUP_PIN1
 837:Drivers/STM32WLxx_HAL_Driver/Inc/stm32wlxx_ll_pwr.h ****   *         @arg @ref LL_PWR_WAKEUP_PIN2
 838:Drivers/STM32WLxx_HAL_Driver/Inc/stm32wlxx_ll_pwr.h ****   *         @arg @ref LL_PWR_WAKEUP_PIN3
 839:Drivers/STM32WLxx_HAL_Driver/Inc/stm32wlxx_ll_pwr.h ****   * @retval State of bit (1 or 0).
 840:Drivers/STM32WLxx_HAL_Driver/Inc/stm32wlxx_ll_pwr.h ****   */
 841:Drivers/STM32WLxx_HAL_Driver/Inc/stm32wlxx_ll_pwr.h **** __STATIC_INLINE uint32_t LL_PWR_IsEnabledWakeUpPin(uint32_t WakeUpPin)
 842:Drivers/STM32WLxx_HAL_Driver/Inc/stm32wlxx_ll_pwr.h **** {
 843:Drivers/STM32WLxx_HAL_Driver/Inc/stm32wlxx_ll_pwr.h ****   return ((READ_BIT(PWR->CR3, WakeUpPin) == (WakeUpPin)) ? 1UL : 0UL);
 844:Drivers/STM32WLxx_HAL_Driver/Inc/stm32wlxx_ll_pwr.h **** }
 845:Drivers/STM32WLxx_HAL_Driver/Inc/stm32wlxx_ll_pwr.h **** 
 846:Drivers/STM32WLxx_HAL_Driver/Inc/stm32wlxx_ll_pwr.h **** /**
 847:Drivers/STM32WLxx_HAL_Driver/Inc/stm32wlxx_ll_pwr.h ****   * @brief  Set the resistor impedance
 848:Drivers/STM32WLxx_HAL_Driver/Inc/stm32wlxx_ll_pwr.h ****   * @rmtoll CR4          VBRS          LL_PWR_SetBattChargResistor
 849:Drivers/STM32WLxx_HAL_Driver/Inc/stm32wlxx_ll_pwr.h ****   * @param  Resistor This parameter can be one of the following values:
 850:Drivers/STM32WLxx_HAL_Driver/Inc/stm32wlxx_ll_pwr.h ****   *         @arg @ref LL_PWR_BATT_CHARG_RESISTOR_5K
 851:Drivers/STM32WLxx_HAL_Driver/Inc/stm32wlxx_ll_pwr.h ****   *         @arg @ref LL_PWR_BATT_CHARGRESISTOR_1_5K
 852:Drivers/STM32WLxx_HAL_Driver/Inc/stm32wlxx_ll_pwr.h ****   * @retval None
 853:Drivers/STM32WLxx_HAL_Driver/Inc/stm32wlxx_ll_pwr.h ****   */
 854:Drivers/STM32WLxx_HAL_Driver/Inc/stm32wlxx_ll_pwr.h **** __STATIC_INLINE void LL_PWR_SetBattChargResistor(uint32_t Resistor)
 855:Drivers/STM32WLxx_HAL_Driver/Inc/stm32wlxx_ll_pwr.h **** {
 856:Drivers/STM32WLxx_HAL_Driver/Inc/stm32wlxx_ll_pwr.h ****   MODIFY_REG(PWR->CR4, PWR_CR4_VBRS, Resistor);
 857:Drivers/STM32WLxx_HAL_Driver/Inc/stm32wlxx_ll_pwr.h **** }
 858:Drivers/STM32WLxx_HAL_Driver/Inc/stm32wlxx_ll_pwr.h **** 
 859:Drivers/STM32WLxx_HAL_Driver/Inc/stm32wlxx_ll_pwr.h **** /**
 860:Drivers/STM32WLxx_HAL_Driver/Inc/stm32wlxx_ll_pwr.h ****   * @brief  Get the resistor impedance
 861:Drivers/STM32WLxx_HAL_Driver/Inc/stm32wlxx_ll_pwr.h ****   * @rmtoll CR4          VBRS          LL_PWR_GetBattChargResistor
 862:Drivers/STM32WLxx_HAL_Driver/Inc/stm32wlxx_ll_pwr.h ****   * @retval Returned value can be one of the following values:
 863:Drivers/STM32WLxx_HAL_Driver/Inc/stm32wlxx_ll_pwr.h ****   *         @arg @ref LL_PWR_BATT_CHARG_RESISTOR_5K
 864:Drivers/STM32WLxx_HAL_Driver/Inc/stm32wlxx_ll_pwr.h ****   *         @arg @ref LL_PWR_BATT_CHARGRESISTOR_1_5K
 865:Drivers/STM32WLxx_HAL_Driver/Inc/stm32wlxx_ll_pwr.h ****   */
 866:Drivers/STM32WLxx_HAL_Driver/Inc/stm32wlxx_ll_pwr.h **** __STATIC_INLINE uint32_t LL_PWR_GetBattChargResistor(void)
 867:Drivers/STM32WLxx_HAL_Driver/Inc/stm32wlxx_ll_pwr.h **** {
 868:Drivers/STM32WLxx_HAL_Driver/Inc/stm32wlxx_ll_pwr.h ****   return (uint32_t)(READ_BIT(PWR->CR4, PWR_CR4_VBRS));
 869:Drivers/STM32WLxx_HAL_Driver/Inc/stm32wlxx_ll_pwr.h **** }
 870:Drivers/STM32WLxx_HAL_Driver/Inc/stm32wlxx_ll_pwr.h **** 
 871:Drivers/STM32WLxx_HAL_Driver/Inc/stm32wlxx_ll_pwr.h **** /**
 872:Drivers/STM32WLxx_HAL_Driver/Inc/stm32wlxx_ll_pwr.h ****   * @brief  Enable battery charging
 873:Drivers/STM32WLxx_HAL_Driver/Inc/stm32wlxx_ll_pwr.h ****   * @rmtoll CR4          VBE           LL_PWR_EnableBatteryCharging
 874:Drivers/STM32WLxx_HAL_Driver/Inc/stm32wlxx_ll_pwr.h ****   * @retval None
 875:Drivers/STM32WLxx_HAL_Driver/Inc/stm32wlxx_ll_pwr.h ****   */
 876:Drivers/STM32WLxx_HAL_Driver/Inc/stm32wlxx_ll_pwr.h **** __STATIC_INLINE void LL_PWR_EnableBatteryCharging(void)
 877:Drivers/STM32WLxx_HAL_Driver/Inc/stm32wlxx_ll_pwr.h **** {
 878:Drivers/STM32WLxx_HAL_Driver/Inc/stm32wlxx_ll_pwr.h ****   SET_BIT(PWR->CR4, PWR_CR4_VBE);
 879:Drivers/STM32WLxx_HAL_Driver/Inc/stm32wlxx_ll_pwr.h **** }
 880:Drivers/STM32WLxx_HAL_Driver/Inc/stm32wlxx_ll_pwr.h **** 
 881:Drivers/STM32WLxx_HAL_Driver/Inc/stm32wlxx_ll_pwr.h **** /**
 882:Drivers/STM32WLxx_HAL_Driver/Inc/stm32wlxx_ll_pwr.h ****   * @brief  Disable battery charging
 883:Drivers/STM32WLxx_HAL_Driver/Inc/stm32wlxx_ll_pwr.h ****   * @rmtoll CR4          VBE           LL_PWR_DisableBatteryCharging
 884:Drivers/STM32WLxx_HAL_Driver/Inc/stm32wlxx_ll_pwr.h ****   * @retval None
 885:Drivers/STM32WLxx_HAL_Driver/Inc/stm32wlxx_ll_pwr.h ****   */
 886:Drivers/STM32WLxx_HAL_Driver/Inc/stm32wlxx_ll_pwr.h **** __STATIC_INLINE void LL_PWR_DisableBatteryCharging(void)
ARM GAS  C:\Users\Lenovo\AppData\Local\Temp\ccLMdYCa.s 			page 20


 887:Drivers/STM32WLxx_HAL_Driver/Inc/stm32wlxx_ll_pwr.h **** {
 888:Drivers/STM32WLxx_HAL_Driver/Inc/stm32wlxx_ll_pwr.h ****   CLEAR_BIT(PWR->CR4, PWR_CR4_VBE);
 889:Drivers/STM32WLxx_HAL_Driver/Inc/stm32wlxx_ll_pwr.h **** }
 890:Drivers/STM32WLxx_HAL_Driver/Inc/stm32wlxx_ll_pwr.h **** 
 891:Drivers/STM32WLxx_HAL_Driver/Inc/stm32wlxx_ll_pwr.h **** /**
 892:Drivers/STM32WLxx_HAL_Driver/Inc/stm32wlxx_ll_pwr.h ****   * @brief  Check if battery charging is enabled
 893:Drivers/STM32WLxx_HAL_Driver/Inc/stm32wlxx_ll_pwr.h ****   * @rmtoll CR4          VBE           LL_PWR_IsEnabledBatteryCharging
 894:Drivers/STM32WLxx_HAL_Driver/Inc/stm32wlxx_ll_pwr.h ****   * @retval State of bit (1 or 0).
 895:Drivers/STM32WLxx_HAL_Driver/Inc/stm32wlxx_ll_pwr.h ****   */
 896:Drivers/STM32WLxx_HAL_Driver/Inc/stm32wlxx_ll_pwr.h **** __STATIC_INLINE uint32_t LL_PWR_IsEnabledBatteryCharging(void)
 897:Drivers/STM32WLxx_HAL_Driver/Inc/stm32wlxx_ll_pwr.h **** {
 898:Drivers/STM32WLxx_HAL_Driver/Inc/stm32wlxx_ll_pwr.h ****   return ((READ_BIT(PWR->CR4, PWR_CR4_VBE) == (PWR_CR4_VBE)) ? 1UL : 0UL);
 899:Drivers/STM32WLxx_HAL_Driver/Inc/stm32wlxx_ll_pwr.h **** }
 900:Drivers/STM32WLxx_HAL_Driver/Inc/stm32wlxx_ll_pwr.h **** 
 901:Drivers/STM32WLxx_HAL_Driver/Inc/stm32wlxx_ll_pwr.h **** /**
 902:Drivers/STM32WLxx_HAL_Driver/Inc/stm32wlxx_ll_pwr.h ****   * @brief  Set the Wake-Up pin polarity low for the event detection
 903:Drivers/STM32WLxx_HAL_Driver/Inc/stm32wlxx_ll_pwr.h ****   * @rmtoll CR4          WP1           LL_PWR_SetWakeUpPinPolarityLow\n
 904:Drivers/STM32WLxx_HAL_Driver/Inc/stm32wlxx_ll_pwr.h ****   *         CR4          WP2           LL_PWR_SetWakeUpPinPolarityLow\n
 905:Drivers/STM32WLxx_HAL_Driver/Inc/stm32wlxx_ll_pwr.h ****   *         CR4          WP3           LL_PWR_SetWakeUpPinPolarityLow
 906:Drivers/STM32WLxx_HAL_Driver/Inc/stm32wlxx_ll_pwr.h ****   * @param  WakeUpPin This parameter can be one of the following values:
 907:Drivers/STM32WLxx_HAL_Driver/Inc/stm32wlxx_ll_pwr.h ****   *         @arg @ref LL_PWR_WAKEUP_PIN1
 908:Drivers/STM32WLxx_HAL_Driver/Inc/stm32wlxx_ll_pwr.h ****   *         @arg @ref LL_PWR_WAKEUP_PIN2
 909:Drivers/STM32WLxx_HAL_Driver/Inc/stm32wlxx_ll_pwr.h ****   *         @arg @ref LL_PWR_WAKEUP_PIN3
 910:Drivers/STM32WLxx_HAL_Driver/Inc/stm32wlxx_ll_pwr.h ****   * @retval None
 911:Drivers/STM32WLxx_HAL_Driver/Inc/stm32wlxx_ll_pwr.h ****   */
 912:Drivers/STM32WLxx_HAL_Driver/Inc/stm32wlxx_ll_pwr.h **** __STATIC_INLINE void LL_PWR_SetWakeUpPinPolarityLow(uint32_t WakeUpPin)
 913:Drivers/STM32WLxx_HAL_Driver/Inc/stm32wlxx_ll_pwr.h **** {
 914:Drivers/STM32WLxx_HAL_Driver/Inc/stm32wlxx_ll_pwr.h ****   SET_BIT(PWR->CR4, WakeUpPin);
 915:Drivers/STM32WLxx_HAL_Driver/Inc/stm32wlxx_ll_pwr.h **** }
 916:Drivers/STM32WLxx_HAL_Driver/Inc/stm32wlxx_ll_pwr.h **** 
 917:Drivers/STM32WLxx_HAL_Driver/Inc/stm32wlxx_ll_pwr.h **** /**
 918:Drivers/STM32WLxx_HAL_Driver/Inc/stm32wlxx_ll_pwr.h ****   * @brief  Set the Wake-Up pin polarity high for the event detection
 919:Drivers/STM32WLxx_HAL_Driver/Inc/stm32wlxx_ll_pwr.h ****   * @rmtoll CR4          WP1           LL_PWR_SetWakeUpPinPolarityHigh\n
 920:Drivers/STM32WLxx_HAL_Driver/Inc/stm32wlxx_ll_pwr.h ****   *         CR4          WP2           LL_PWR_SetWakeUpPinPolarityHigh\n
 921:Drivers/STM32WLxx_HAL_Driver/Inc/stm32wlxx_ll_pwr.h ****   *         CR4          WP3           LL_PWR_SetWakeUpPinPolarityHigh
 922:Drivers/STM32WLxx_HAL_Driver/Inc/stm32wlxx_ll_pwr.h ****   * @param  WakeUpPin This parameter can be one of the following values:
 923:Drivers/STM32WLxx_HAL_Driver/Inc/stm32wlxx_ll_pwr.h ****   *         @arg @ref LL_PWR_WAKEUP_PIN1
 924:Drivers/STM32WLxx_HAL_Driver/Inc/stm32wlxx_ll_pwr.h ****   *         @arg @ref LL_PWR_WAKEUP_PIN2
 925:Drivers/STM32WLxx_HAL_Driver/Inc/stm32wlxx_ll_pwr.h ****   *         @arg @ref LL_PWR_WAKEUP_PIN3
 926:Drivers/STM32WLxx_HAL_Driver/Inc/stm32wlxx_ll_pwr.h ****   * @retval None
 927:Drivers/STM32WLxx_HAL_Driver/Inc/stm32wlxx_ll_pwr.h ****   */
 928:Drivers/STM32WLxx_HAL_Driver/Inc/stm32wlxx_ll_pwr.h **** __STATIC_INLINE void LL_PWR_SetWakeUpPinPolarityHigh(uint32_t WakeUpPin)
 929:Drivers/STM32WLxx_HAL_Driver/Inc/stm32wlxx_ll_pwr.h **** {
 930:Drivers/STM32WLxx_HAL_Driver/Inc/stm32wlxx_ll_pwr.h ****   CLEAR_BIT(PWR->CR4, WakeUpPin);
 931:Drivers/STM32WLxx_HAL_Driver/Inc/stm32wlxx_ll_pwr.h **** }
 932:Drivers/STM32WLxx_HAL_Driver/Inc/stm32wlxx_ll_pwr.h **** 
 933:Drivers/STM32WLxx_HAL_Driver/Inc/stm32wlxx_ll_pwr.h **** /**
 934:Drivers/STM32WLxx_HAL_Driver/Inc/stm32wlxx_ll_pwr.h ****   * @brief  Get the Wake-Up pin polarity for the event detection
 935:Drivers/STM32WLxx_HAL_Driver/Inc/stm32wlxx_ll_pwr.h ****   * @rmtoll CR4          WP1           LL_PWR_IsWakeUpPinPolarityLow\n
 936:Drivers/STM32WLxx_HAL_Driver/Inc/stm32wlxx_ll_pwr.h ****   *         CR4          WP2           LL_PWR_IsWakeUpPinPolarityLow\n
 937:Drivers/STM32WLxx_HAL_Driver/Inc/stm32wlxx_ll_pwr.h ****   *         CR4          WP3           LL_PWR_IsWakeUpPinPolarityLow
 938:Drivers/STM32WLxx_HAL_Driver/Inc/stm32wlxx_ll_pwr.h ****   * @param  WakeUpPin This parameter can be one of the following values:
 939:Drivers/STM32WLxx_HAL_Driver/Inc/stm32wlxx_ll_pwr.h ****   *         @arg @ref LL_PWR_WAKEUP_PIN1
 940:Drivers/STM32WLxx_HAL_Driver/Inc/stm32wlxx_ll_pwr.h ****   *         @arg @ref LL_PWR_WAKEUP_PIN2
 941:Drivers/STM32WLxx_HAL_Driver/Inc/stm32wlxx_ll_pwr.h ****   *         @arg @ref LL_PWR_WAKEUP_PIN3
 942:Drivers/STM32WLxx_HAL_Driver/Inc/stm32wlxx_ll_pwr.h ****   * @retval State of bit (1 or 0).
 943:Drivers/STM32WLxx_HAL_Driver/Inc/stm32wlxx_ll_pwr.h ****   */
ARM GAS  C:\Users\Lenovo\AppData\Local\Temp\ccLMdYCa.s 			page 21


 944:Drivers/STM32WLxx_HAL_Driver/Inc/stm32wlxx_ll_pwr.h **** __STATIC_INLINE uint32_t LL_PWR_IsWakeUpPinPolarityLow(uint32_t WakeUpPin)
 945:Drivers/STM32WLxx_HAL_Driver/Inc/stm32wlxx_ll_pwr.h **** {
 946:Drivers/STM32WLxx_HAL_Driver/Inc/stm32wlxx_ll_pwr.h ****   return ((READ_BIT(PWR->CR4, WakeUpPin) == (WakeUpPin)) ? 1UL : 0UL);
 947:Drivers/STM32WLxx_HAL_Driver/Inc/stm32wlxx_ll_pwr.h **** }
 948:Drivers/STM32WLxx_HAL_Driver/Inc/stm32wlxx_ll_pwr.h **** 
 949:Drivers/STM32WLxx_HAL_Driver/Inc/stm32wlxx_ll_pwr.h **** /**
 950:Drivers/STM32WLxx_HAL_Driver/Inc/stm32wlxx_ll_pwr.h ****   * @brief  Enable GPIO pull-up state in Standby and Shutdown modes
 951:Drivers/STM32WLxx_HAL_Driver/Inc/stm32wlxx_ll_pwr.h ****   * @note   Some pins are not configurable for pulling in Standby and Shutdown
 952:Drivers/STM32WLxx_HAL_Driver/Inc/stm32wlxx_ll_pwr.h ****   *         modes. Refer to reference manual for available pins and ports.
 953:Drivers/STM32WLxx_HAL_Driver/Inc/stm32wlxx_ll_pwr.h ****   * @rmtoll PUCRA        PU0-15        LL_PWR_EnableGPIOPullUp\n
 954:Drivers/STM32WLxx_HAL_Driver/Inc/stm32wlxx_ll_pwr.h ****   *         PUCRB        PU0-15        LL_PWR_EnableGPIOPullUp\n
 955:Drivers/STM32WLxx_HAL_Driver/Inc/stm32wlxx_ll_pwr.h ****   *         PUCRC        PU0-15        LL_PWR_EnableGPIOPullUp\n
 956:Drivers/STM32WLxx_HAL_Driver/Inc/stm32wlxx_ll_pwr.h ****   *         PUCRH        PU0-15        LL_PWR_EnableGPIOPullUp
 957:Drivers/STM32WLxx_HAL_Driver/Inc/stm32wlxx_ll_pwr.h ****   * @param  GPIO This parameter can be one of the following values:
 958:Drivers/STM32WLxx_HAL_Driver/Inc/stm32wlxx_ll_pwr.h ****   *         @arg @ref LL_PWR_GPIO_A
 959:Drivers/STM32WLxx_HAL_Driver/Inc/stm32wlxx_ll_pwr.h ****   *         @arg @ref LL_PWR_GPIO_B
 960:Drivers/STM32WLxx_HAL_Driver/Inc/stm32wlxx_ll_pwr.h ****   *         @arg @ref LL_PWR_GPIO_C
 961:Drivers/STM32WLxx_HAL_Driver/Inc/stm32wlxx_ll_pwr.h ****   *         @arg @ref LL_PWR_GPIO_H
 962:Drivers/STM32WLxx_HAL_Driver/Inc/stm32wlxx_ll_pwr.h ****   * @param  GPIONumber This parameter can be one of the following values:
 963:Drivers/STM32WLxx_HAL_Driver/Inc/stm32wlxx_ll_pwr.h ****   *         @arg @ref LL_PWR_GPIO_BIT_0
 964:Drivers/STM32WLxx_HAL_Driver/Inc/stm32wlxx_ll_pwr.h ****   *         @arg @ref LL_PWR_GPIO_BIT_1
 965:Drivers/STM32WLxx_HAL_Driver/Inc/stm32wlxx_ll_pwr.h ****   *         @arg @ref LL_PWR_GPIO_BIT_2
 966:Drivers/STM32WLxx_HAL_Driver/Inc/stm32wlxx_ll_pwr.h ****   *         @arg @ref LL_PWR_GPIO_BIT_3
 967:Drivers/STM32WLxx_HAL_Driver/Inc/stm32wlxx_ll_pwr.h ****   *         @arg @ref LL_PWR_GPIO_BIT_4
 968:Drivers/STM32WLxx_HAL_Driver/Inc/stm32wlxx_ll_pwr.h ****   *         @arg @ref LL_PWR_GPIO_BIT_5
 969:Drivers/STM32WLxx_HAL_Driver/Inc/stm32wlxx_ll_pwr.h ****   *         @arg @ref LL_PWR_GPIO_BIT_6
 970:Drivers/STM32WLxx_HAL_Driver/Inc/stm32wlxx_ll_pwr.h ****   *         @arg @ref LL_PWR_GPIO_BIT_7
 971:Drivers/STM32WLxx_HAL_Driver/Inc/stm32wlxx_ll_pwr.h ****   *         @arg @ref LL_PWR_GPIO_BIT_8
 972:Drivers/STM32WLxx_HAL_Driver/Inc/stm32wlxx_ll_pwr.h ****   *         @arg @ref LL_PWR_GPIO_BIT_9
 973:Drivers/STM32WLxx_HAL_Driver/Inc/stm32wlxx_ll_pwr.h ****   *         @arg @ref LL_PWR_GPIO_BIT_10
 974:Drivers/STM32WLxx_HAL_Driver/Inc/stm32wlxx_ll_pwr.h ****   *         @arg @ref LL_PWR_GPIO_BIT_11
 975:Drivers/STM32WLxx_HAL_Driver/Inc/stm32wlxx_ll_pwr.h ****   *         @arg @ref LL_PWR_GPIO_BIT_12
 976:Drivers/STM32WLxx_HAL_Driver/Inc/stm32wlxx_ll_pwr.h ****   *         @arg @ref LL_PWR_GPIO_BIT_13
 977:Drivers/STM32WLxx_HAL_Driver/Inc/stm32wlxx_ll_pwr.h ****   *         @arg @ref LL_PWR_GPIO_BIT_14
 978:Drivers/STM32WLxx_HAL_Driver/Inc/stm32wlxx_ll_pwr.h ****   *         @arg @ref LL_PWR_GPIO_BIT_15
 979:Drivers/STM32WLxx_HAL_Driver/Inc/stm32wlxx_ll_pwr.h ****   * @retval None
 980:Drivers/STM32WLxx_HAL_Driver/Inc/stm32wlxx_ll_pwr.h ****   */
 981:Drivers/STM32WLxx_HAL_Driver/Inc/stm32wlxx_ll_pwr.h **** __STATIC_INLINE void LL_PWR_EnableGPIOPullUp(uint32_t GPIO, uint32_t GPIONumber)
 982:Drivers/STM32WLxx_HAL_Driver/Inc/stm32wlxx_ll_pwr.h **** {
 983:Drivers/STM32WLxx_HAL_Driver/Inc/stm32wlxx_ll_pwr.h ****   SET_BIT(*((__IO uint32_t *)GPIO), GPIONumber);
 984:Drivers/STM32WLxx_HAL_Driver/Inc/stm32wlxx_ll_pwr.h **** }
 985:Drivers/STM32WLxx_HAL_Driver/Inc/stm32wlxx_ll_pwr.h **** 
 986:Drivers/STM32WLxx_HAL_Driver/Inc/stm32wlxx_ll_pwr.h **** /**
 987:Drivers/STM32WLxx_HAL_Driver/Inc/stm32wlxx_ll_pwr.h ****   * @brief  Disable GPIO pull-up state in Standby and Shutdown modes
 988:Drivers/STM32WLxx_HAL_Driver/Inc/stm32wlxx_ll_pwr.h ****   * @note   Some pins are not configurable for pulling in Standby and Shutdown
 989:Drivers/STM32WLxx_HAL_Driver/Inc/stm32wlxx_ll_pwr.h ****   *         modes. Refer to reference manual for available pins and ports.
 990:Drivers/STM32WLxx_HAL_Driver/Inc/stm32wlxx_ll_pwr.h ****   * @rmtoll PUCRA        PU0-15        LL_PWR_DisableGPIOPullUp\n
 991:Drivers/STM32WLxx_HAL_Driver/Inc/stm32wlxx_ll_pwr.h ****   *         PUCRB        PU0-15        LL_PWR_DisableGPIOPullUp\n
 992:Drivers/STM32WLxx_HAL_Driver/Inc/stm32wlxx_ll_pwr.h ****   *         PUCRC        PU0-15        LL_PWR_DisableGPIOPullUp\n
 993:Drivers/STM32WLxx_HAL_Driver/Inc/stm32wlxx_ll_pwr.h ****   *         PUCRH        PU0-15        LL_PWR_DisableGPIOPullUp
 994:Drivers/STM32WLxx_HAL_Driver/Inc/stm32wlxx_ll_pwr.h ****   * @param  GPIO This parameter can be one of the following values:
 995:Drivers/STM32WLxx_HAL_Driver/Inc/stm32wlxx_ll_pwr.h ****   *         @arg @ref LL_PWR_GPIO_A
 996:Drivers/STM32WLxx_HAL_Driver/Inc/stm32wlxx_ll_pwr.h ****   *         @arg @ref LL_PWR_GPIO_B
 997:Drivers/STM32WLxx_HAL_Driver/Inc/stm32wlxx_ll_pwr.h ****   *         @arg @ref LL_PWR_GPIO_C
 998:Drivers/STM32WLxx_HAL_Driver/Inc/stm32wlxx_ll_pwr.h ****   *         @arg @ref LL_PWR_GPIO_H
 999:Drivers/STM32WLxx_HAL_Driver/Inc/stm32wlxx_ll_pwr.h ****   * @param  GPIONumber This parameter can be one of the following values:
1000:Drivers/STM32WLxx_HAL_Driver/Inc/stm32wlxx_ll_pwr.h ****   *         @arg @ref LL_PWR_GPIO_BIT_0
ARM GAS  C:\Users\Lenovo\AppData\Local\Temp\ccLMdYCa.s 			page 22


1001:Drivers/STM32WLxx_HAL_Driver/Inc/stm32wlxx_ll_pwr.h ****   *         @arg @ref LL_PWR_GPIO_BIT_1
1002:Drivers/STM32WLxx_HAL_Driver/Inc/stm32wlxx_ll_pwr.h ****   *         @arg @ref LL_PWR_GPIO_BIT_2
1003:Drivers/STM32WLxx_HAL_Driver/Inc/stm32wlxx_ll_pwr.h ****   *         @arg @ref LL_PWR_GPIO_BIT_3
1004:Drivers/STM32WLxx_HAL_Driver/Inc/stm32wlxx_ll_pwr.h ****   *         @arg @ref LL_PWR_GPIO_BIT_4
1005:Drivers/STM32WLxx_HAL_Driver/Inc/stm32wlxx_ll_pwr.h ****   *         @arg @ref LL_PWR_GPIO_BIT_5
1006:Drivers/STM32WLxx_HAL_Driver/Inc/stm32wlxx_ll_pwr.h ****   *         @arg @ref LL_PWR_GPIO_BIT_6
1007:Drivers/STM32WLxx_HAL_Driver/Inc/stm32wlxx_ll_pwr.h ****   *         @arg @ref LL_PWR_GPIO_BIT_7
1008:Drivers/STM32WLxx_HAL_Driver/Inc/stm32wlxx_ll_pwr.h ****   *         @arg @ref LL_PWR_GPIO_BIT_8
1009:Drivers/STM32WLxx_HAL_Driver/Inc/stm32wlxx_ll_pwr.h ****   *         @arg @ref LL_PWR_GPIO_BIT_9
1010:Drivers/STM32WLxx_HAL_Driver/Inc/stm32wlxx_ll_pwr.h ****   *         @arg @ref LL_PWR_GPIO_BIT_10
1011:Drivers/STM32WLxx_HAL_Driver/Inc/stm32wlxx_ll_pwr.h ****   *         @arg @ref LL_PWR_GPIO_BIT_11
1012:Drivers/STM32WLxx_HAL_Driver/Inc/stm32wlxx_ll_pwr.h ****   *         @arg @ref LL_PWR_GPIO_BIT_12
1013:Drivers/STM32WLxx_HAL_Driver/Inc/stm32wlxx_ll_pwr.h ****   *         @arg @ref LL_PWR_GPIO_BIT_13
1014:Drivers/STM32WLxx_HAL_Driver/Inc/stm32wlxx_ll_pwr.h ****   *         @arg @ref LL_PWR_GPIO_BIT_14
1015:Drivers/STM32WLxx_HAL_Driver/Inc/stm32wlxx_ll_pwr.h ****   *         @arg @ref LL_PWR_GPIO_BIT_15
1016:Drivers/STM32WLxx_HAL_Driver/Inc/stm32wlxx_ll_pwr.h ****   * @retval None
1017:Drivers/STM32WLxx_HAL_Driver/Inc/stm32wlxx_ll_pwr.h ****   */
1018:Drivers/STM32WLxx_HAL_Driver/Inc/stm32wlxx_ll_pwr.h **** __STATIC_INLINE void LL_PWR_DisableGPIOPullUp(uint32_t GPIO, uint32_t GPIONumber)
1019:Drivers/STM32WLxx_HAL_Driver/Inc/stm32wlxx_ll_pwr.h **** {
1020:Drivers/STM32WLxx_HAL_Driver/Inc/stm32wlxx_ll_pwr.h ****   CLEAR_BIT(*((__IO uint32_t *)GPIO), GPIONumber);
1021:Drivers/STM32WLxx_HAL_Driver/Inc/stm32wlxx_ll_pwr.h **** }
1022:Drivers/STM32WLxx_HAL_Driver/Inc/stm32wlxx_ll_pwr.h **** 
1023:Drivers/STM32WLxx_HAL_Driver/Inc/stm32wlxx_ll_pwr.h **** /**
1024:Drivers/STM32WLxx_HAL_Driver/Inc/stm32wlxx_ll_pwr.h ****   * @brief  Check if GPIO pull-up state is enabled
1025:Drivers/STM32WLxx_HAL_Driver/Inc/stm32wlxx_ll_pwr.h ****   * @rmtoll PUCRA        PU0-15        LL_PWR_IsEnabledGPIOPullUp\n
1026:Drivers/STM32WLxx_HAL_Driver/Inc/stm32wlxx_ll_pwr.h ****   *         PUCRB        PU0-15        LL_PWR_IsEnabledGPIOPullUp\n
1027:Drivers/STM32WLxx_HAL_Driver/Inc/stm32wlxx_ll_pwr.h ****   *         PUCRC        PU0-15        LL_PWR_IsEnabledGPIOPullUp\n
1028:Drivers/STM32WLxx_HAL_Driver/Inc/stm32wlxx_ll_pwr.h ****   *         PUCRH        PU0-15        LL_PWR_IsEnabledGPIOPullUp
1029:Drivers/STM32WLxx_HAL_Driver/Inc/stm32wlxx_ll_pwr.h ****   * @param  GPIO This parameter can be one of the following values:
1030:Drivers/STM32WLxx_HAL_Driver/Inc/stm32wlxx_ll_pwr.h ****   *         @arg @ref LL_PWR_GPIO_A
1031:Drivers/STM32WLxx_HAL_Driver/Inc/stm32wlxx_ll_pwr.h ****   *         @arg @ref LL_PWR_GPIO_B
1032:Drivers/STM32WLxx_HAL_Driver/Inc/stm32wlxx_ll_pwr.h ****   *         @arg @ref LL_PWR_GPIO_C
1033:Drivers/STM32WLxx_HAL_Driver/Inc/stm32wlxx_ll_pwr.h ****   *         @arg @ref LL_PWR_GPIO_H
1034:Drivers/STM32WLxx_HAL_Driver/Inc/stm32wlxx_ll_pwr.h ****   * @param  GPIONumber This parameter can be one of the following values:
1035:Drivers/STM32WLxx_HAL_Driver/Inc/stm32wlxx_ll_pwr.h ****   *         @arg @ref LL_PWR_GPIO_BIT_0
1036:Drivers/STM32WLxx_HAL_Driver/Inc/stm32wlxx_ll_pwr.h ****   *         @arg @ref LL_PWR_GPIO_BIT_1
1037:Drivers/STM32WLxx_HAL_Driver/Inc/stm32wlxx_ll_pwr.h ****   *         @arg @ref LL_PWR_GPIO_BIT_2
1038:Drivers/STM32WLxx_HAL_Driver/Inc/stm32wlxx_ll_pwr.h ****   *         @arg @ref LL_PWR_GPIO_BIT_3
1039:Drivers/STM32WLxx_HAL_Driver/Inc/stm32wlxx_ll_pwr.h ****   *         @arg @ref LL_PWR_GPIO_BIT_4
1040:Drivers/STM32WLxx_HAL_Driver/Inc/stm32wlxx_ll_pwr.h ****   *         @arg @ref LL_PWR_GPIO_BIT_5
1041:Drivers/STM32WLxx_HAL_Driver/Inc/stm32wlxx_ll_pwr.h ****   *         @arg @ref LL_PWR_GPIO_BIT_6
1042:Drivers/STM32WLxx_HAL_Driver/Inc/stm32wlxx_ll_pwr.h ****   *         @arg @ref LL_PWR_GPIO_BIT_7
1043:Drivers/STM32WLxx_HAL_Driver/Inc/stm32wlxx_ll_pwr.h ****   *         @arg @ref LL_PWR_GPIO_BIT_8
1044:Drivers/STM32WLxx_HAL_Driver/Inc/stm32wlxx_ll_pwr.h ****   *         @arg @ref LL_PWR_GPIO_BIT_9
1045:Drivers/STM32WLxx_HAL_Driver/Inc/stm32wlxx_ll_pwr.h ****   *         @arg @ref LL_PWR_GPIO_BIT_10
1046:Drivers/STM32WLxx_HAL_Driver/Inc/stm32wlxx_ll_pwr.h ****   *         @arg @ref LL_PWR_GPIO_BIT_11
1047:Drivers/STM32WLxx_HAL_Driver/Inc/stm32wlxx_ll_pwr.h ****   *         @arg @ref LL_PWR_GPIO_BIT_12
1048:Drivers/STM32WLxx_HAL_Driver/Inc/stm32wlxx_ll_pwr.h ****   *         @arg @ref LL_PWR_GPIO_BIT_13
1049:Drivers/STM32WLxx_HAL_Driver/Inc/stm32wlxx_ll_pwr.h ****   *         @arg @ref LL_PWR_GPIO_BIT_14
1050:Drivers/STM32WLxx_HAL_Driver/Inc/stm32wlxx_ll_pwr.h ****   *         @arg @ref LL_PWR_GPIO_BIT_15
1051:Drivers/STM32WLxx_HAL_Driver/Inc/stm32wlxx_ll_pwr.h ****   * @retval State of bit (1 or 0).
1052:Drivers/STM32WLxx_HAL_Driver/Inc/stm32wlxx_ll_pwr.h ****   */
1053:Drivers/STM32WLxx_HAL_Driver/Inc/stm32wlxx_ll_pwr.h **** __STATIC_INLINE uint32_t LL_PWR_IsEnabledGPIOPullUp(uint32_t GPIO, uint32_t GPIONumber)
1054:Drivers/STM32WLxx_HAL_Driver/Inc/stm32wlxx_ll_pwr.h **** {
1055:Drivers/STM32WLxx_HAL_Driver/Inc/stm32wlxx_ll_pwr.h ****   return ((READ_BIT(*((__IO uint32_t *)(GPIO)), GPIONumber) == (GPIONumber)) ? 1UL : 0UL);
1056:Drivers/STM32WLxx_HAL_Driver/Inc/stm32wlxx_ll_pwr.h **** }
1057:Drivers/STM32WLxx_HAL_Driver/Inc/stm32wlxx_ll_pwr.h **** 
ARM GAS  C:\Users\Lenovo\AppData\Local\Temp\ccLMdYCa.s 			page 23


1058:Drivers/STM32WLxx_HAL_Driver/Inc/stm32wlxx_ll_pwr.h **** /**
1059:Drivers/STM32WLxx_HAL_Driver/Inc/stm32wlxx_ll_pwr.h ****   * @brief  Enable GPIO pull-down state in Standby and Shutdown modes
1060:Drivers/STM32WLxx_HAL_Driver/Inc/stm32wlxx_ll_pwr.h ****   * @note   Some pins are not configurable for pulling in Standby and Shutdown
1061:Drivers/STM32WLxx_HAL_Driver/Inc/stm32wlxx_ll_pwr.h ****   *         modes. Refer to reference manual for available pins and ports.
1062:Drivers/STM32WLxx_HAL_Driver/Inc/stm32wlxx_ll_pwr.h ****   * @rmtoll PDCRA        PD0-15        LL_PWR_EnableGPIOPullDown\n
1063:Drivers/STM32WLxx_HAL_Driver/Inc/stm32wlxx_ll_pwr.h ****   *         PDCRB        PD0-15        LL_PWR_EnableGPIOPullDown\n
1064:Drivers/STM32WLxx_HAL_Driver/Inc/stm32wlxx_ll_pwr.h ****   *         PDCRC        PD0-15        LL_PWR_EnableGPIOPullDown\n
1065:Drivers/STM32WLxx_HAL_Driver/Inc/stm32wlxx_ll_pwr.h ****   *         PDCRH        PD0-15        LL_PWR_EnableGPIOPullDown
1066:Drivers/STM32WLxx_HAL_Driver/Inc/stm32wlxx_ll_pwr.h ****   * @param  GPIO This parameter can be one of the following values:
1067:Drivers/STM32WLxx_HAL_Driver/Inc/stm32wlxx_ll_pwr.h ****   *         @arg @ref LL_PWR_GPIO_A
1068:Drivers/STM32WLxx_HAL_Driver/Inc/stm32wlxx_ll_pwr.h ****   *         @arg @ref LL_PWR_GPIO_B
1069:Drivers/STM32WLxx_HAL_Driver/Inc/stm32wlxx_ll_pwr.h ****   *         @arg @ref LL_PWR_GPIO_C
1070:Drivers/STM32WLxx_HAL_Driver/Inc/stm32wlxx_ll_pwr.h ****   *         @arg @ref LL_PWR_GPIO_H
1071:Drivers/STM32WLxx_HAL_Driver/Inc/stm32wlxx_ll_pwr.h ****   * @param  GPIONumber This parameter can be one of the following values:
1072:Drivers/STM32WLxx_HAL_Driver/Inc/stm32wlxx_ll_pwr.h ****   *         @arg @ref LL_PWR_GPIO_BIT_0
1073:Drivers/STM32WLxx_HAL_Driver/Inc/stm32wlxx_ll_pwr.h ****   *         @arg @ref LL_PWR_GPIO_BIT_1
1074:Drivers/STM32WLxx_HAL_Driver/Inc/stm32wlxx_ll_pwr.h ****   *         @arg @ref LL_PWR_GPIO_BIT_2
1075:Drivers/STM32WLxx_HAL_Driver/Inc/stm32wlxx_ll_pwr.h ****   *         @arg @ref LL_PWR_GPIO_BIT_3
1076:Drivers/STM32WLxx_HAL_Driver/Inc/stm32wlxx_ll_pwr.h ****   *         @arg @ref LL_PWR_GPIO_BIT_4
1077:Drivers/STM32WLxx_HAL_Driver/Inc/stm32wlxx_ll_pwr.h ****   *         @arg @ref LL_PWR_GPIO_BIT_5
1078:Drivers/STM32WLxx_HAL_Driver/Inc/stm32wlxx_ll_pwr.h ****   *         @arg @ref LL_PWR_GPIO_BIT_6
1079:Drivers/STM32WLxx_HAL_Driver/Inc/stm32wlxx_ll_pwr.h ****   *         @arg @ref LL_PWR_GPIO_BIT_7
1080:Drivers/STM32WLxx_HAL_Driver/Inc/stm32wlxx_ll_pwr.h ****   *         @arg @ref LL_PWR_GPIO_BIT_8
1081:Drivers/STM32WLxx_HAL_Driver/Inc/stm32wlxx_ll_pwr.h ****   *         @arg @ref LL_PWR_GPIO_BIT_9
1082:Drivers/STM32WLxx_HAL_Driver/Inc/stm32wlxx_ll_pwr.h ****   *         @arg @ref LL_PWR_GPIO_BIT_10
1083:Drivers/STM32WLxx_HAL_Driver/Inc/stm32wlxx_ll_pwr.h ****   *         @arg @ref LL_PWR_GPIO_BIT_11
1084:Drivers/STM32WLxx_HAL_Driver/Inc/stm32wlxx_ll_pwr.h ****   *         @arg @ref LL_PWR_GPIO_BIT_12
1085:Drivers/STM32WLxx_HAL_Driver/Inc/stm32wlxx_ll_pwr.h ****   *         @arg @ref LL_PWR_GPIO_BIT_13
1086:Drivers/STM32WLxx_HAL_Driver/Inc/stm32wlxx_ll_pwr.h ****   *         @arg @ref LL_PWR_GPIO_BIT_14
1087:Drivers/STM32WLxx_HAL_Driver/Inc/stm32wlxx_ll_pwr.h ****   *         @arg @ref LL_PWR_GPIO_BIT_15
1088:Drivers/STM32WLxx_HAL_Driver/Inc/stm32wlxx_ll_pwr.h ****   * @retval None
1089:Drivers/STM32WLxx_HAL_Driver/Inc/stm32wlxx_ll_pwr.h ****   */
1090:Drivers/STM32WLxx_HAL_Driver/Inc/stm32wlxx_ll_pwr.h **** __STATIC_INLINE void LL_PWR_EnableGPIOPullDown(uint32_t GPIO, uint32_t GPIONumber)
1091:Drivers/STM32WLxx_HAL_Driver/Inc/stm32wlxx_ll_pwr.h **** {
1092:Drivers/STM32WLxx_HAL_Driver/Inc/stm32wlxx_ll_pwr.h ****   SET_BIT(*((__IO uint32_t *)(GPIO + 4U)), GPIONumber);
1093:Drivers/STM32WLxx_HAL_Driver/Inc/stm32wlxx_ll_pwr.h **** }
1094:Drivers/STM32WLxx_HAL_Driver/Inc/stm32wlxx_ll_pwr.h **** 
1095:Drivers/STM32WLxx_HAL_Driver/Inc/stm32wlxx_ll_pwr.h **** /**
1096:Drivers/STM32WLxx_HAL_Driver/Inc/stm32wlxx_ll_pwr.h ****   * @brief  Disable GPIO pull-down state in Standby and Shutdown modes
1097:Drivers/STM32WLxx_HAL_Driver/Inc/stm32wlxx_ll_pwr.h ****   * @note   Some pins are not configurable for pulling in Standby and Shutdown
1098:Drivers/STM32WLxx_HAL_Driver/Inc/stm32wlxx_ll_pwr.h ****   *         modes. Refer to reference manual for available pins and ports.
1099:Drivers/STM32WLxx_HAL_Driver/Inc/stm32wlxx_ll_pwr.h ****   * @rmtoll PDCRA        PD0-15        LL_PWR_DisableGPIOPullDown\n
1100:Drivers/STM32WLxx_HAL_Driver/Inc/stm32wlxx_ll_pwr.h ****   *         PDCRB        PD0-15        LL_PWR_DisableGPIOPullDown\n
1101:Drivers/STM32WLxx_HAL_Driver/Inc/stm32wlxx_ll_pwr.h ****   *         PDCRC        PD0-15        LL_PWR_DisableGPIOPullDown\n
1102:Drivers/STM32WLxx_HAL_Driver/Inc/stm32wlxx_ll_pwr.h ****   *         PDCRH        PD0-15        LL_PWR_DisableGPIOPullDown
1103:Drivers/STM32WLxx_HAL_Driver/Inc/stm32wlxx_ll_pwr.h ****   * @param  GPIO This parameter can be one of the following values:
1104:Drivers/STM32WLxx_HAL_Driver/Inc/stm32wlxx_ll_pwr.h ****   *         @arg @ref LL_PWR_GPIO_A
1105:Drivers/STM32WLxx_HAL_Driver/Inc/stm32wlxx_ll_pwr.h ****   *         @arg @ref LL_PWR_GPIO_B
1106:Drivers/STM32WLxx_HAL_Driver/Inc/stm32wlxx_ll_pwr.h ****   *         @arg @ref LL_PWR_GPIO_C
1107:Drivers/STM32WLxx_HAL_Driver/Inc/stm32wlxx_ll_pwr.h ****   *         @arg @ref LL_PWR_GPIO_H
1108:Drivers/STM32WLxx_HAL_Driver/Inc/stm32wlxx_ll_pwr.h ****   * @param  GPIONumber This parameter can be one of the following values:
1109:Drivers/STM32WLxx_HAL_Driver/Inc/stm32wlxx_ll_pwr.h ****   *         @arg @ref LL_PWR_GPIO_BIT_0
1110:Drivers/STM32WLxx_HAL_Driver/Inc/stm32wlxx_ll_pwr.h ****   *         @arg @ref LL_PWR_GPIO_BIT_1
1111:Drivers/STM32WLxx_HAL_Driver/Inc/stm32wlxx_ll_pwr.h ****   *         @arg @ref LL_PWR_GPIO_BIT_2
1112:Drivers/STM32WLxx_HAL_Driver/Inc/stm32wlxx_ll_pwr.h ****   *         @arg @ref LL_PWR_GPIO_BIT_3
1113:Drivers/STM32WLxx_HAL_Driver/Inc/stm32wlxx_ll_pwr.h ****   *         @arg @ref LL_PWR_GPIO_BIT_4
1114:Drivers/STM32WLxx_HAL_Driver/Inc/stm32wlxx_ll_pwr.h ****   *         @arg @ref LL_PWR_GPIO_BIT_5
ARM GAS  C:\Users\Lenovo\AppData\Local\Temp\ccLMdYCa.s 			page 24


1115:Drivers/STM32WLxx_HAL_Driver/Inc/stm32wlxx_ll_pwr.h ****   *         @arg @ref LL_PWR_GPIO_BIT_6
1116:Drivers/STM32WLxx_HAL_Driver/Inc/stm32wlxx_ll_pwr.h ****   *         @arg @ref LL_PWR_GPIO_BIT_7
1117:Drivers/STM32WLxx_HAL_Driver/Inc/stm32wlxx_ll_pwr.h ****   *         @arg @ref LL_PWR_GPIO_BIT_8
1118:Drivers/STM32WLxx_HAL_Driver/Inc/stm32wlxx_ll_pwr.h ****   *         @arg @ref LL_PWR_GPIO_BIT_9
1119:Drivers/STM32WLxx_HAL_Driver/Inc/stm32wlxx_ll_pwr.h ****   *         @arg @ref LL_PWR_GPIO_BIT_10
1120:Drivers/STM32WLxx_HAL_Driver/Inc/stm32wlxx_ll_pwr.h ****   *         @arg @ref LL_PWR_GPIO_BIT_11
1121:Drivers/STM32WLxx_HAL_Driver/Inc/stm32wlxx_ll_pwr.h ****   *         @arg @ref LL_PWR_GPIO_BIT_12
1122:Drivers/STM32WLxx_HAL_Driver/Inc/stm32wlxx_ll_pwr.h ****   *         @arg @ref LL_PWR_GPIO_BIT_13
1123:Drivers/STM32WLxx_HAL_Driver/Inc/stm32wlxx_ll_pwr.h ****   *         @arg @ref LL_PWR_GPIO_BIT_14
1124:Drivers/STM32WLxx_HAL_Driver/Inc/stm32wlxx_ll_pwr.h ****   *         @arg @ref LL_PWR_GPIO_BIT_15
1125:Drivers/STM32WLxx_HAL_Driver/Inc/stm32wlxx_ll_pwr.h ****   * @retval None
1126:Drivers/STM32WLxx_HAL_Driver/Inc/stm32wlxx_ll_pwr.h ****   */
1127:Drivers/STM32WLxx_HAL_Driver/Inc/stm32wlxx_ll_pwr.h **** __STATIC_INLINE void LL_PWR_DisableGPIOPullDown(uint32_t GPIO, uint32_t GPIONumber)
1128:Drivers/STM32WLxx_HAL_Driver/Inc/stm32wlxx_ll_pwr.h **** {
1129:Drivers/STM32WLxx_HAL_Driver/Inc/stm32wlxx_ll_pwr.h ****   CLEAR_BIT(*((__IO uint32_t *)(GPIO + 4U)), GPIONumber);
1130:Drivers/STM32WLxx_HAL_Driver/Inc/stm32wlxx_ll_pwr.h **** }
1131:Drivers/STM32WLxx_HAL_Driver/Inc/stm32wlxx_ll_pwr.h **** 
1132:Drivers/STM32WLxx_HAL_Driver/Inc/stm32wlxx_ll_pwr.h **** /**
1133:Drivers/STM32WLxx_HAL_Driver/Inc/stm32wlxx_ll_pwr.h ****   * @brief  Check if GPIO pull-down state is enabled
1134:Drivers/STM32WLxx_HAL_Driver/Inc/stm32wlxx_ll_pwr.h ****   * @rmtoll PDCRA        PD0-15        LL_PWR_IsEnabledGPIOPullDown\n
1135:Drivers/STM32WLxx_HAL_Driver/Inc/stm32wlxx_ll_pwr.h ****   *         PDCRB        PD0-15        LL_PWR_IsEnabledGPIOPullDown\n
1136:Drivers/STM32WLxx_HAL_Driver/Inc/stm32wlxx_ll_pwr.h ****   *         PDCRC        PD0-15        LL_PWR_IsEnabledGPIOPullDown\n
1137:Drivers/STM32WLxx_HAL_Driver/Inc/stm32wlxx_ll_pwr.h ****   *         PDCRH        PD0-15        LL_PWR_IsEnabledGPIOPullDown
1138:Drivers/STM32WLxx_HAL_Driver/Inc/stm32wlxx_ll_pwr.h ****   * @param  GPIO This parameter can be one of the following values:
1139:Drivers/STM32WLxx_HAL_Driver/Inc/stm32wlxx_ll_pwr.h ****   *         @arg @ref LL_PWR_GPIO_A
1140:Drivers/STM32WLxx_HAL_Driver/Inc/stm32wlxx_ll_pwr.h ****   *         @arg @ref LL_PWR_GPIO_B
1141:Drivers/STM32WLxx_HAL_Driver/Inc/stm32wlxx_ll_pwr.h ****   *         @arg @ref LL_PWR_GPIO_C
1142:Drivers/STM32WLxx_HAL_Driver/Inc/stm32wlxx_ll_pwr.h ****   *         @arg @ref LL_PWR_GPIO_H
1143:Drivers/STM32WLxx_HAL_Driver/Inc/stm32wlxx_ll_pwr.h ****   * @param  GPIONumber This parameter can be one of the following values:
1144:Drivers/STM32WLxx_HAL_Driver/Inc/stm32wlxx_ll_pwr.h ****   *         @arg @ref LL_PWR_GPIO_BIT_0
1145:Drivers/STM32WLxx_HAL_Driver/Inc/stm32wlxx_ll_pwr.h ****   *         @arg @ref LL_PWR_GPIO_BIT_1
1146:Drivers/STM32WLxx_HAL_Driver/Inc/stm32wlxx_ll_pwr.h ****   *         @arg @ref LL_PWR_GPIO_BIT_2
1147:Drivers/STM32WLxx_HAL_Driver/Inc/stm32wlxx_ll_pwr.h ****   *         @arg @ref LL_PWR_GPIO_BIT_3
1148:Drivers/STM32WLxx_HAL_Driver/Inc/stm32wlxx_ll_pwr.h ****   *         @arg @ref LL_PWR_GPIO_BIT_4
1149:Drivers/STM32WLxx_HAL_Driver/Inc/stm32wlxx_ll_pwr.h ****   *         @arg @ref LL_PWR_GPIO_BIT_5
1150:Drivers/STM32WLxx_HAL_Driver/Inc/stm32wlxx_ll_pwr.h ****   *         @arg @ref LL_PWR_GPIO_BIT_6
1151:Drivers/STM32WLxx_HAL_Driver/Inc/stm32wlxx_ll_pwr.h ****   *         @arg @ref LL_PWR_GPIO_BIT_7
1152:Drivers/STM32WLxx_HAL_Driver/Inc/stm32wlxx_ll_pwr.h ****   *         @arg @ref LL_PWR_GPIO_BIT_8
1153:Drivers/STM32WLxx_HAL_Driver/Inc/stm32wlxx_ll_pwr.h ****   *         @arg @ref LL_PWR_GPIO_BIT_9
1154:Drivers/STM32WLxx_HAL_Driver/Inc/stm32wlxx_ll_pwr.h ****   *         @arg @ref LL_PWR_GPIO_BIT_10
1155:Drivers/STM32WLxx_HAL_Driver/Inc/stm32wlxx_ll_pwr.h ****   *         @arg @ref LL_PWR_GPIO_BIT_11
1156:Drivers/STM32WLxx_HAL_Driver/Inc/stm32wlxx_ll_pwr.h ****   *         @arg @ref LL_PWR_GPIO_BIT_12
1157:Drivers/STM32WLxx_HAL_Driver/Inc/stm32wlxx_ll_pwr.h ****   *         @arg @ref LL_PWR_GPIO_BIT_13
1158:Drivers/STM32WLxx_HAL_Driver/Inc/stm32wlxx_ll_pwr.h ****   *         @arg @ref LL_PWR_GPIO_BIT_14
1159:Drivers/STM32WLxx_HAL_Driver/Inc/stm32wlxx_ll_pwr.h ****   *         @arg @ref LL_PWR_GPIO_BIT_15
1160:Drivers/STM32WLxx_HAL_Driver/Inc/stm32wlxx_ll_pwr.h ****   * @retval State of bit (1 or 0).
1161:Drivers/STM32WLxx_HAL_Driver/Inc/stm32wlxx_ll_pwr.h ****   */
1162:Drivers/STM32WLxx_HAL_Driver/Inc/stm32wlxx_ll_pwr.h **** __STATIC_INLINE uint32_t LL_PWR_IsEnabledGPIOPullDown(uint32_t GPIO, uint32_t GPIONumber)
1163:Drivers/STM32WLxx_HAL_Driver/Inc/stm32wlxx_ll_pwr.h **** {
1164:Drivers/STM32WLxx_HAL_Driver/Inc/stm32wlxx_ll_pwr.h ****   return ((READ_BIT(*((__IO uint32_t *)(GPIO + 4U)), GPIONumber) == (GPIONumber)) ? 1UL : 0UL);
1165:Drivers/STM32WLxx_HAL_Driver/Inc/stm32wlxx_ll_pwr.h **** }
1166:Drivers/STM32WLxx_HAL_Driver/Inc/stm32wlxx_ll_pwr.h **** 
1167:Drivers/STM32WLxx_HAL_Driver/Inc/stm32wlxx_ll_pwr.h **** /**
1168:Drivers/STM32WLxx_HAL_Driver/Inc/stm32wlxx_ll_pwr.h ****   * @}
1169:Drivers/STM32WLxx_HAL_Driver/Inc/stm32wlxx_ll_pwr.h ****   */
1170:Drivers/STM32WLxx_HAL_Driver/Inc/stm32wlxx_ll_pwr.h **** 
1171:Drivers/STM32WLxx_HAL_Driver/Inc/stm32wlxx_ll_pwr.h **** /** @defgroup PWR_LL_EF_Configuration_SMPS Configuration of SMPS
ARM GAS  C:\Users\Lenovo\AppData\Local\Temp\ccLMdYCa.s 			page 25


1172:Drivers/STM32WLxx_HAL_Driver/Inc/stm32wlxx_ll_pwr.h ****   * @{
1173:Drivers/STM32WLxx_HAL_Driver/Inc/stm32wlxx_ll_pwr.h ****   */
1174:Drivers/STM32WLxx_HAL_Driver/Inc/stm32wlxx_ll_pwr.h **** 
1175:Drivers/STM32WLxx_HAL_Driver/Inc/stm32wlxx_ll_pwr.h **** /**
1176:Drivers/STM32WLxx_HAL_Driver/Inc/stm32wlxx_ll_pwr.h ****   * @brief  Set SMPS operating mode
1177:Drivers/STM32WLxx_HAL_Driver/Inc/stm32wlxx_ll_pwr.h ****   * @note   In case of a board without SMPS coil mounted, SMPS should not be activated.
1178:Drivers/STM32WLxx_HAL_Driver/Inc/stm32wlxx_ll_pwr.h ****   * @rmtoll CR5          SMPSEN        LL_PWR_SMPS_SetMode
1179:Drivers/STM32WLxx_HAL_Driver/Inc/stm32wlxx_ll_pwr.h ****   * @param  OperatingMode This parameter can be one of the following values:
1180:Drivers/STM32WLxx_HAL_Driver/Inc/stm32wlxx_ll_pwr.h ****   *         @arg @ref LL_PWR_SMPS_BYPASS
1181:Drivers/STM32WLxx_HAL_Driver/Inc/stm32wlxx_ll_pwr.h ****   *         @arg @ref LL_PWR_SMPS_STEP_DOWN
1182:Drivers/STM32WLxx_HAL_Driver/Inc/stm32wlxx_ll_pwr.h ****   * @retval None
1183:Drivers/STM32WLxx_HAL_Driver/Inc/stm32wlxx_ll_pwr.h ****   */
1184:Drivers/STM32WLxx_HAL_Driver/Inc/stm32wlxx_ll_pwr.h **** __STATIC_INLINE void LL_PWR_SMPS_SetMode(uint32_t OperatingMode)
1185:Drivers/STM32WLxx_HAL_Driver/Inc/stm32wlxx_ll_pwr.h **** {
1186:Drivers/STM32WLxx_HAL_Driver/Inc/stm32wlxx_ll_pwr.h ****   MODIFY_REG(PWR->CR5, PWR_CR5_SMPSEN, OperatingMode);
1187:Drivers/STM32WLxx_HAL_Driver/Inc/stm32wlxx_ll_pwr.h **** }
1188:Drivers/STM32WLxx_HAL_Driver/Inc/stm32wlxx_ll_pwr.h **** 
1189:Drivers/STM32WLxx_HAL_Driver/Inc/stm32wlxx_ll_pwr.h **** /**
1190:Drivers/STM32WLxx_HAL_Driver/Inc/stm32wlxx_ll_pwr.h ****   * @brief  Get SMPS operating mode
1191:Drivers/STM32WLxx_HAL_Driver/Inc/stm32wlxx_ll_pwr.h ****   * @rmtoll CR5          SMPSEN        LL_PWR_SMPS_GetMode
1192:Drivers/STM32WLxx_HAL_Driver/Inc/stm32wlxx_ll_pwr.h ****   * @retval Returned value can be one of the following values:
1193:Drivers/STM32WLxx_HAL_Driver/Inc/stm32wlxx_ll_pwr.h ****   *         @arg @ref LL_PWR_SMPS_BYPASS
1194:Drivers/STM32WLxx_HAL_Driver/Inc/stm32wlxx_ll_pwr.h ****   *         @arg @ref LL_PWR_SMPS_STEP_DOWN
1195:Drivers/STM32WLxx_HAL_Driver/Inc/stm32wlxx_ll_pwr.h ****   */
1196:Drivers/STM32WLxx_HAL_Driver/Inc/stm32wlxx_ll_pwr.h **** __STATIC_INLINE uint32_t LL_PWR_SMPS_GetMode(void)
1197:Drivers/STM32WLxx_HAL_Driver/Inc/stm32wlxx_ll_pwr.h **** {
1198:Drivers/STM32WLxx_HAL_Driver/Inc/stm32wlxx_ll_pwr.h ****   return (uint32_t)(READ_BIT(PWR->CR5, PWR_CR5_SMPSEN));
1199:Drivers/STM32WLxx_HAL_Driver/Inc/stm32wlxx_ll_pwr.h **** }
1200:Drivers/STM32WLxx_HAL_Driver/Inc/stm32wlxx_ll_pwr.h **** 
1201:Drivers/STM32WLxx_HAL_Driver/Inc/stm32wlxx_ll_pwr.h **** /**
1202:Drivers/STM32WLxx_HAL_Driver/Inc/stm32wlxx_ll_pwr.h ****   * @brief  Get SMPS effective operating mode
1203:Drivers/STM32WLxx_HAL_Driver/Inc/stm32wlxx_ll_pwr.h ****   * @note   SMPS operating mode can be changed by hardware, therefore
1204:Drivers/STM32WLxx_HAL_Driver/Inc/stm32wlxx_ll_pwr.h ****   *         requested operating mode can differ from effective low power mode.
1205:Drivers/STM32WLxx_HAL_Driver/Inc/stm32wlxx_ll_pwr.h ****   *         - dependency SubGhz Radio IP: can switch SMPS on for radio activity.
1206:Drivers/STM32WLxx_HAL_Driver/Inc/stm32wlxx_ll_pwr.h ****   * @note   In case of a board without SMPS coil mounted, SMPS should not be activated
1207:Drivers/STM32WLxx_HAL_Driver/Inc/stm32wlxx_ll_pwr.h ****   *         and this function is not relevant.
1208:Drivers/STM32WLxx_HAL_Driver/Inc/stm32wlxx_ll_pwr.h ****   * @rmtoll SR2          SMPSRDY       LL_PWR_SMPS_GetEffectiveMode
1209:Drivers/STM32WLxx_HAL_Driver/Inc/stm32wlxx_ll_pwr.h ****   * @retval Returned value can be one of the following values:
1210:Drivers/STM32WLxx_HAL_Driver/Inc/stm32wlxx_ll_pwr.h ****   *         @arg @ref LL_PWR_SMPS_BYPASS
1211:Drivers/STM32WLxx_HAL_Driver/Inc/stm32wlxx_ll_pwr.h ****   *         @arg @ref LL_PWR_SMPS_STEP_DOWN
1212:Drivers/STM32WLxx_HAL_Driver/Inc/stm32wlxx_ll_pwr.h ****   */
1213:Drivers/STM32WLxx_HAL_Driver/Inc/stm32wlxx_ll_pwr.h **** __STATIC_INLINE uint32_t LL_PWR_SMPS_GetEffectiveMode(void)
1214:Drivers/STM32WLxx_HAL_Driver/Inc/stm32wlxx_ll_pwr.h **** {
1215:Drivers/STM32WLxx_HAL_Driver/Inc/stm32wlxx_ll_pwr.h ****   /* Return a value corresponding to definition of literals                   */
1216:Drivers/STM32WLxx_HAL_Driver/Inc/stm32wlxx_ll_pwr.h ****   /* LL_PWR_SMPS_BYPASS or LL_PWR_SMPS_STEP_DOWN.                             */
1217:Drivers/STM32WLxx_HAL_Driver/Inc/stm32wlxx_ll_pwr.h ****   return (uint32_t)(READ_BIT(PWR->SR2, PWR_SR2_SMPSRDY) << (PWR_CR5_SMPSEN_Pos - PWR_SR2_SMPSRDY_Po
1218:Drivers/STM32WLxx_HAL_Driver/Inc/stm32wlxx_ll_pwr.h **** }
1219:Drivers/STM32WLxx_HAL_Driver/Inc/stm32wlxx_ll_pwr.h **** 
1220:Drivers/STM32WLxx_HAL_Driver/Inc/stm32wlxx_ll_pwr.h **** /**
1221:Drivers/STM32WLxx_HAL_Driver/Inc/stm32wlxx_ll_pwr.h ****   * @brief  SMPS step down converter enable
1222:Drivers/STM32WLxx_HAL_Driver/Inc/stm32wlxx_ll_pwr.h ****   * @note   This function can be used for specific usage of the SMPS,
1223:Drivers/STM32WLxx_HAL_Driver/Inc/stm32wlxx_ll_pwr.h ****   *         for general usage of the SMPS the function
1224:Drivers/STM32WLxx_HAL_Driver/Inc/stm32wlxx_ll_pwr.h ****   *         @ref LL_PWR_SMPS_SetMode() should be used instead.
1225:Drivers/STM32WLxx_HAL_Driver/Inc/stm32wlxx_ll_pwr.h ****   * @rmtoll CR5          SMPSEN        LL_PWR_SMPS_Enable
1226:Drivers/STM32WLxx_HAL_Driver/Inc/stm32wlxx_ll_pwr.h ****   * @retval None
1227:Drivers/STM32WLxx_HAL_Driver/Inc/stm32wlxx_ll_pwr.h ****   */
1228:Drivers/STM32WLxx_HAL_Driver/Inc/stm32wlxx_ll_pwr.h **** __STATIC_INLINE void LL_PWR_SMPS_Enable(void)
ARM GAS  C:\Users\Lenovo\AppData\Local\Temp\ccLMdYCa.s 			page 26


1229:Drivers/STM32WLxx_HAL_Driver/Inc/stm32wlxx_ll_pwr.h **** {
1230:Drivers/STM32WLxx_HAL_Driver/Inc/stm32wlxx_ll_pwr.h ****   SET_BIT(PWR->CR5, PWR_CR5_SMPSEN);
1231:Drivers/STM32WLxx_HAL_Driver/Inc/stm32wlxx_ll_pwr.h **** }
1232:Drivers/STM32WLxx_HAL_Driver/Inc/stm32wlxx_ll_pwr.h **** 
1233:Drivers/STM32WLxx_HAL_Driver/Inc/stm32wlxx_ll_pwr.h **** /**
1234:Drivers/STM32WLxx_HAL_Driver/Inc/stm32wlxx_ll_pwr.h ****   * @brief  SMPS step down converter enable
1235:Drivers/STM32WLxx_HAL_Driver/Inc/stm32wlxx_ll_pwr.h ****   * @note   This function can be used for specific usage of the SMPS,
1236:Drivers/STM32WLxx_HAL_Driver/Inc/stm32wlxx_ll_pwr.h ****   *         for general usage of the SMPS the function
1237:Drivers/STM32WLxx_HAL_Driver/Inc/stm32wlxx_ll_pwr.h ****   *         @ref LL_PWR_SMPS_SetMode() should be used instead.
1238:Drivers/STM32WLxx_HAL_Driver/Inc/stm32wlxx_ll_pwr.h ****   * @rmtoll CR5          SMPSEN        LL_PWR_SMPS_Disable
1239:Drivers/STM32WLxx_HAL_Driver/Inc/stm32wlxx_ll_pwr.h ****   * @retval None
1240:Drivers/STM32WLxx_HAL_Driver/Inc/stm32wlxx_ll_pwr.h ****   */
1241:Drivers/STM32WLxx_HAL_Driver/Inc/stm32wlxx_ll_pwr.h **** __STATIC_INLINE void LL_PWR_SMPS_Disable(void)
1242:Drivers/STM32WLxx_HAL_Driver/Inc/stm32wlxx_ll_pwr.h **** {
1243:Drivers/STM32WLxx_HAL_Driver/Inc/stm32wlxx_ll_pwr.h ****   CLEAR_BIT(PWR->CR5, PWR_CR5_SMPSEN);
1244:Drivers/STM32WLxx_HAL_Driver/Inc/stm32wlxx_ll_pwr.h **** }
1245:Drivers/STM32WLxx_HAL_Driver/Inc/stm32wlxx_ll_pwr.h **** 
1246:Drivers/STM32WLxx_HAL_Driver/Inc/stm32wlxx_ll_pwr.h **** /**
1247:Drivers/STM32WLxx_HAL_Driver/Inc/stm32wlxx_ll_pwr.h ****   * @brief  Check if the SMPS step down converter is enabled
1248:Drivers/STM32WLxx_HAL_Driver/Inc/stm32wlxx_ll_pwr.h ****   * @rmtoll CR5          SMPSEN        LL_PWR_SMPS_IsEnabled
1249:Drivers/STM32WLxx_HAL_Driver/Inc/stm32wlxx_ll_pwr.h ****   * @retval State of bit (1 or 0).
1250:Drivers/STM32WLxx_HAL_Driver/Inc/stm32wlxx_ll_pwr.h ****   */
1251:Drivers/STM32WLxx_HAL_Driver/Inc/stm32wlxx_ll_pwr.h **** __STATIC_INLINE uint32_t LL_PWR_SMPS_IsEnabled(void)
1252:Drivers/STM32WLxx_HAL_Driver/Inc/stm32wlxx_ll_pwr.h **** {
1253:Drivers/STM32WLxx_HAL_Driver/Inc/stm32wlxx_ll_pwr.h ****   return ((READ_BIT(PWR->CR5, PWR_CR5_SMPSEN) == (PWR_CR5_SMPSEN)) ? 1UL : 0UL);
1254:Drivers/STM32WLxx_HAL_Driver/Inc/stm32wlxx_ll_pwr.h **** }
1255:Drivers/STM32WLxx_HAL_Driver/Inc/stm32wlxx_ll_pwr.h **** 
1256:Drivers/STM32WLxx_HAL_Driver/Inc/stm32wlxx_ll_pwr.h **** /**
1257:Drivers/STM32WLxx_HAL_Driver/Inc/stm32wlxx_ll_pwr.h ****   * @}
1258:Drivers/STM32WLxx_HAL_Driver/Inc/stm32wlxx_ll_pwr.h ****   */
1259:Drivers/STM32WLxx_HAL_Driver/Inc/stm32wlxx_ll_pwr.h **** 
1260:Drivers/STM32WLxx_HAL_Driver/Inc/stm32wlxx_ll_pwr.h **** /** @defgroup PWR_LL_EF_Configuration_Radio Configuration of radio
1261:Drivers/STM32WLxx_HAL_Driver/Inc/stm32wlxx_ll_pwr.h ****   * @{
1262:Drivers/STM32WLxx_HAL_Driver/Inc/stm32wlxx_ll_pwr.h ****   */
1263:Drivers/STM32WLxx_HAL_Driver/Inc/stm32wlxx_ll_pwr.h **** 
1264:Drivers/STM32WLxx_HAL_Driver/Inc/stm32wlxx_ll_pwr.h **** /**
1265:Drivers/STM32WLxx_HAL_Driver/Inc/stm32wlxx_ll_pwr.h ****   * @brief  Set radio busy signal polarity
1266:Drivers/STM32WLxx_HAL_Driver/Inc/stm32wlxx_ll_pwr.h ****   * @rmtoll CR4          RFBUSYP       LL_PWR_SetRadioBusyPolarity
1267:Drivers/STM32WLxx_HAL_Driver/Inc/stm32wlxx_ll_pwr.h ****   * @param  RadioBusyPolarity This parameter can be one of the following values:
1268:Drivers/STM32WLxx_HAL_Driver/Inc/stm32wlxx_ll_pwr.h ****   *         @arg @ref LL_PWR_RADIO_BUSY_POLARITY_RISING
1269:Drivers/STM32WLxx_HAL_Driver/Inc/stm32wlxx_ll_pwr.h ****   *         @arg @ref LL_PWR_RADIO_BUSY_POLARITY_FALLING
1270:Drivers/STM32WLxx_HAL_Driver/Inc/stm32wlxx_ll_pwr.h ****   * @retval None
1271:Drivers/STM32WLxx_HAL_Driver/Inc/stm32wlxx_ll_pwr.h ****   */
1272:Drivers/STM32WLxx_HAL_Driver/Inc/stm32wlxx_ll_pwr.h **** __STATIC_INLINE void LL_PWR_SetRadioBusyPolarity(uint32_t RadioBusyPolarity)
1273:Drivers/STM32WLxx_HAL_Driver/Inc/stm32wlxx_ll_pwr.h **** {
 208              		.loc 1 1273 1
 209              		.cfi_startproc
 210              		@ args = 0, pretend = 0, frame = 8
 211              		@ frame_needed = 1, uses_anonymous_args = 0
 212              		@ link register save eliminated.
 213 0000 80B4     		push	{r7}
 214              	.LCFI16:
 215              		.cfi_def_cfa_offset 4
 216              		.cfi_offset 7, -4
 217 0002 83B0     		sub	sp, sp, #12
 218              	.LCFI17:
 219              		.cfi_def_cfa_offset 16
ARM GAS  C:\Users\Lenovo\AppData\Local\Temp\ccLMdYCa.s 			page 27


 220 0004 00AF     		add	r7, sp, #0
 221              	.LCFI18:
 222              		.cfi_def_cfa_register 7
 223 0006 7860     		str	r0, [r7, #4]
1274:Drivers/STM32WLxx_HAL_Driver/Inc/stm32wlxx_ll_pwr.h ****   MODIFY_REG(PWR->CR4, PWR_CR4_WRFBUSYP, RadioBusyPolarity);
 224              		.loc 1 1274 3
 225 0008 064B     		ldr	r3, .L14
 226 000a DB68     		ldr	r3, [r3, #12]
 227 000c 23F40062 		bic	r2, r3, #2048
 228 0010 0449     		ldr	r1, .L14
 229 0012 7B68     		ldr	r3, [r7, #4]
 230 0014 1343     		orrs	r3, r3, r2
 231 0016 CB60     		str	r3, [r1, #12]
1275:Drivers/STM32WLxx_HAL_Driver/Inc/stm32wlxx_ll_pwr.h **** }
 232              		.loc 1 1275 1
 233 0018 00BF     		nop
 234 001a 0C37     		adds	r7, r7, #12
 235              	.LCFI19:
 236              		.cfi_def_cfa_offset 4
 237 001c BD46     		mov	sp, r7
 238              	.LCFI20:
 239              		.cfi_def_cfa_register 13
 240              		@ sp needed
 241 001e 80BC     		pop	{r7}
 242              	.LCFI21:
 243              		.cfi_restore 7
 244              		.cfi_def_cfa_offset 0
 245 0020 7047     		bx	lr
 246              	.L15:
 247 0022 00BF     		.align	2
 248              	.L14:
 249 0024 00040058 		.word	1476396032
 250              		.cfi_endproc
 251              	.LFE360:
 253              		.section	.text.LL_PWR_SetRadioBusyTrigger,"ax",%progbits
 254              		.align	1
 255              		.syntax unified
 256              		.thumb
 257              		.thumb_func
 259              	LL_PWR_SetRadioBusyTrigger:
 260              	.LFB362:
1276:Drivers/STM32WLxx_HAL_Driver/Inc/stm32wlxx_ll_pwr.h **** 
1277:Drivers/STM32WLxx_HAL_Driver/Inc/stm32wlxx_ll_pwr.h **** /**
1278:Drivers/STM32WLxx_HAL_Driver/Inc/stm32wlxx_ll_pwr.h ****   * @brief  Get radio busy signal polarity
1279:Drivers/STM32WLxx_HAL_Driver/Inc/stm32wlxx_ll_pwr.h ****   * @rmtoll CR4          RFBUSYP       LL_PWR_GetRadioBusyPolarity
1280:Drivers/STM32WLxx_HAL_Driver/Inc/stm32wlxx_ll_pwr.h ****   * @retval Returned value can be one of the following values:
1281:Drivers/STM32WLxx_HAL_Driver/Inc/stm32wlxx_ll_pwr.h ****   *         @arg @ref LL_PWR_RADIO_BUSY_POLARITY_RISING
1282:Drivers/STM32WLxx_HAL_Driver/Inc/stm32wlxx_ll_pwr.h ****   *         @arg @ref LL_PWR_RADIO_BUSY_POLARITY_FALLING
1283:Drivers/STM32WLxx_HAL_Driver/Inc/stm32wlxx_ll_pwr.h ****   */
1284:Drivers/STM32WLxx_HAL_Driver/Inc/stm32wlxx_ll_pwr.h **** __STATIC_INLINE uint32_t LL_PWR_GetRadioBusyPolarity(void)
1285:Drivers/STM32WLxx_HAL_Driver/Inc/stm32wlxx_ll_pwr.h **** {
1286:Drivers/STM32WLxx_HAL_Driver/Inc/stm32wlxx_ll_pwr.h ****   return (uint32_t)(READ_BIT(PWR->CR4, PWR_CR4_WRFBUSYP));
1287:Drivers/STM32WLxx_HAL_Driver/Inc/stm32wlxx_ll_pwr.h **** }
1288:Drivers/STM32WLxx_HAL_Driver/Inc/stm32wlxx_ll_pwr.h **** 
1289:Drivers/STM32WLxx_HAL_Driver/Inc/stm32wlxx_ll_pwr.h **** /**
1290:Drivers/STM32WLxx_HAL_Driver/Inc/stm32wlxx_ll_pwr.h ****   * @brief  Set radio busy trigger action for CPU1: wake-up from low-power mode
1291:Drivers/STM32WLxx_HAL_Driver/Inc/stm32wlxx_ll_pwr.h ****   *         Standby.
ARM GAS  C:\Users\Lenovo\AppData\Local\Temp\ccLMdYCa.s 			page 28


1292:Drivers/STM32WLxx_HAL_Driver/Inc/stm32wlxx_ll_pwr.h ****   * @note   Signal polarity can be configured using function
1293:Drivers/STM32WLxx_HAL_Driver/Inc/stm32wlxx_ll_pwr.h ****   *         @ref LL_PWR_SetRadioBusyPolarity().
1294:Drivers/STM32WLxx_HAL_Driver/Inc/stm32wlxx_ll_pwr.h ****   * @rmtoll CR3          ERFBUSY       LL_PWR_SetRadioBusyTrigger
1295:Drivers/STM32WLxx_HAL_Driver/Inc/stm32wlxx_ll_pwr.h ****   * @param  RadioBusyTrigger This parameter can be one of the following values:
1296:Drivers/STM32WLxx_HAL_Driver/Inc/stm32wlxx_ll_pwr.h ****   *         @arg @ref LL_PWR_RADIO_BUSY_TRIGGER_NONE
1297:Drivers/STM32WLxx_HAL_Driver/Inc/stm32wlxx_ll_pwr.h ****   *         @arg @ref LL_PWR_RADIO_BUSY_TRIGGER_WU_IT
1298:Drivers/STM32WLxx_HAL_Driver/Inc/stm32wlxx_ll_pwr.h ****   * @retval None
1299:Drivers/STM32WLxx_HAL_Driver/Inc/stm32wlxx_ll_pwr.h ****   */
1300:Drivers/STM32WLxx_HAL_Driver/Inc/stm32wlxx_ll_pwr.h **** __STATIC_INLINE void LL_PWR_SetRadioBusyTrigger(uint32_t RadioBusyTrigger)
1301:Drivers/STM32WLxx_HAL_Driver/Inc/stm32wlxx_ll_pwr.h **** {
 261              		.loc 1 1301 1
 262              		.cfi_startproc
 263              		@ args = 0, pretend = 0, frame = 8
 264              		@ frame_needed = 1, uses_anonymous_args = 0
 265              		@ link register save eliminated.
 266 0000 80B4     		push	{r7}
 267              	.LCFI22:
 268              		.cfi_def_cfa_offset 4
 269              		.cfi_offset 7, -4
 270 0002 83B0     		sub	sp, sp, #12
 271              	.LCFI23:
 272              		.cfi_def_cfa_offset 16
 273 0004 00AF     		add	r7, sp, #0
 274              	.LCFI24:
 275              		.cfi_def_cfa_register 7
 276 0006 7860     		str	r0, [r7, #4]
1302:Drivers/STM32WLxx_HAL_Driver/Inc/stm32wlxx_ll_pwr.h ****   MODIFY_REG(PWR->CR3, PWR_CR3_EWRFBUSY, RadioBusyTrigger);
 277              		.loc 1 1302 3
 278 0008 064B     		ldr	r3, .L17
 279 000a 9B68     		ldr	r3, [r3, #8]
 280 000c 23F40062 		bic	r2, r3, #2048
 281 0010 0449     		ldr	r1, .L17
 282 0012 7B68     		ldr	r3, [r7, #4]
 283 0014 1343     		orrs	r3, r3, r2
 284 0016 8B60     		str	r3, [r1, #8]
1303:Drivers/STM32WLxx_HAL_Driver/Inc/stm32wlxx_ll_pwr.h **** }
 285              		.loc 1 1303 1
 286 0018 00BF     		nop
 287 001a 0C37     		adds	r7, r7, #12
 288              	.LCFI25:
 289              		.cfi_def_cfa_offset 4
 290 001c BD46     		mov	sp, r7
 291              	.LCFI26:
 292              		.cfi_def_cfa_register 13
 293              		@ sp needed
 294 001e 80BC     		pop	{r7}
 295              	.LCFI27:
 296              		.cfi_restore 7
 297              		.cfi_def_cfa_offset 0
 298 0020 7047     		bx	lr
 299              	.L18:
 300 0022 00BF     		.align	2
 301              	.L17:
 302 0024 00040058 		.word	1476396032
 303              		.cfi_endproc
 304              	.LFE362:
 306              		.section	.text.LL_PWR_SetRadioIRQTrigger,"ax",%progbits
ARM GAS  C:\Users\Lenovo\AppData\Local\Temp\ccLMdYCa.s 			page 29


 307              		.align	1
 308              		.syntax unified
 309              		.thumb
 310              		.thumb_func
 312              	LL_PWR_SetRadioIRQTrigger:
 313              	.LFB364:
1304:Drivers/STM32WLxx_HAL_Driver/Inc/stm32wlxx_ll_pwr.h **** 
1305:Drivers/STM32WLxx_HAL_Driver/Inc/stm32wlxx_ll_pwr.h **** /**
1306:Drivers/STM32WLxx_HAL_Driver/Inc/stm32wlxx_ll_pwr.h ****   * @brief  Get radio busy trigger action for CPU1: wake-up from low-power mode
1307:Drivers/STM32WLxx_HAL_Driver/Inc/stm32wlxx_ll_pwr.h ****   *         Standby.
1308:Drivers/STM32WLxx_HAL_Driver/Inc/stm32wlxx_ll_pwr.h ****   * @rmtoll CR3          ERFBUSY       LL_PWR_GetRadioBusyTrigger
1309:Drivers/STM32WLxx_HAL_Driver/Inc/stm32wlxx_ll_pwr.h ****   * @retval Returned value can be one of the following values:
1310:Drivers/STM32WLxx_HAL_Driver/Inc/stm32wlxx_ll_pwr.h ****   *         @arg @ref LL_PWR_RADIO_BUSY_TRIGGER_NONE
1311:Drivers/STM32WLxx_HAL_Driver/Inc/stm32wlxx_ll_pwr.h ****   *         @arg @ref LL_PWR_RADIO_BUSY_TRIGGER_WU_IT
1312:Drivers/STM32WLxx_HAL_Driver/Inc/stm32wlxx_ll_pwr.h ****   */
1313:Drivers/STM32WLxx_HAL_Driver/Inc/stm32wlxx_ll_pwr.h **** __STATIC_INLINE uint32_t LL_PWR_GetRadioBusyTrigger(void)
1314:Drivers/STM32WLxx_HAL_Driver/Inc/stm32wlxx_ll_pwr.h **** {
1315:Drivers/STM32WLxx_HAL_Driver/Inc/stm32wlxx_ll_pwr.h ****   return (uint32_t)(READ_BIT(PWR->CR3, PWR_CR3_EWRFBUSY));
1316:Drivers/STM32WLxx_HAL_Driver/Inc/stm32wlxx_ll_pwr.h **** }
1317:Drivers/STM32WLxx_HAL_Driver/Inc/stm32wlxx_ll_pwr.h **** 
1318:Drivers/STM32WLxx_HAL_Driver/Inc/stm32wlxx_ll_pwr.h **** /**
1319:Drivers/STM32WLxx_HAL_Driver/Inc/stm32wlxx_ll_pwr.h ****   * @brief  Set radio IRQ trigger action for CPU1: wake-up from low-power mode
1320:Drivers/STM32WLxx_HAL_Driver/Inc/stm32wlxx_ll_pwr.h ****   *         Standby.
1321:Drivers/STM32WLxx_HAL_Driver/Inc/stm32wlxx_ll_pwr.h ****   * @rmtoll CR3          ERFIRQ        LL_PWR_SetRadioIRQTrigger
1322:Drivers/STM32WLxx_HAL_Driver/Inc/stm32wlxx_ll_pwr.h ****   * @param  RadioIRQTrigger This parameter can be one of the following values:
1323:Drivers/STM32WLxx_HAL_Driver/Inc/stm32wlxx_ll_pwr.h ****   *         @arg @ref LL_PWR_RADIO_IRQ_TRIGGER_NONE
1324:Drivers/STM32WLxx_HAL_Driver/Inc/stm32wlxx_ll_pwr.h ****   *         @arg @ref LL_PWR_RADIO_IRQ_TRIGGER_WU_IT
1325:Drivers/STM32WLxx_HAL_Driver/Inc/stm32wlxx_ll_pwr.h ****   * @retval None
1326:Drivers/STM32WLxx_HAL_Driver/Inc/stm32wlxx_ll_pwr.h ****   */
1327:Drivers/STM32WLxx_HAL_Driver/Inc/stm32wlxx_ll_pwr.h **** __STATIC_INLINE void LL_PWR_SetRadioIRQTrigger(uint32_t RadioIRQTrigger)
1328:Drivers/STM32WLxx_HAL_Driver/Inc/stm32wlxx_ll_pwr.h **** {
 314              		.loc 1 1328 1
 315              		.cfi_startproc
 316              		@ args = 0, pretend = 0, frame = 8
 317              		@ frame_needed = 1, uses_anonymous_args = 0
 318              		@ link register save eliminated.
 319 0000 80B4     		push	{r7}
 320              	.LCFI28:
 321              		.cfi_def_cfa_offset 4
 322              		.cfi_offset 7, -4
 323 0002 83B0     		sub	sp, sp, #12
 324              	.LCFI29:
 325              		.cfi_def_cfa_offset 16
 326 0004 00AF     		add	r7, sp, #0
 327              	.LCFI30:
 328              		.cfi_def_cfa_register 7
 329 0006 7860     		str	r0, [r7, #4]
1329:Drivers/STM32WLxx_HAL_Driver/Inc/stm32wlxx_ll_pwr.h ****   MODIFY_REG(PWR->CR3, PWR_CR3_EWRFIRQ, RadioIRQTrigger);
 330              		.loc 1 1329 3
 331 0008 064B     		ldr	r3, .L20
 332 000a 9B68     		ldr	r3, [r3, #8]
 333 000c 23F40052 		bic	r2, r3, #8192
 334 0010 0449     		ldr	r1, .L20
 335 0012 7B68     		ldr	r3, [r7, #4]
 336 0014 1343     		orrs	r3, r3, r2
 337 0016 8B60     		str	r3, [r1, #8]
1330:Drivers/STM32WLxx_HAL_Driver/Inc/stm32wlxx_ll_pwr.h **** }
ARM GAS  C:\Users\Lenovo\AppData\Local\Temp\ccLMdYCa.s 			page 30


 338              		.loc 1 1330 1
 339 0018 00BF     		nop
 340 001a 0C37     		adds	r7, r7, #12
 341              	.LCFI31:
 342              		.cfi_def_cfa_offset 4
 343 001c BD46     		mov	sp, r7
 344              	.LCFI32:
 345              		.cfi_def_cfa_register 13
 346              		@ sp needed
 347 001e 80BC     		pop	{r7}
 348              	.LCFI33:
 349              		.cfi_restore 7
 350              		.cfi_def_cfa_offset 0
 351 0020 7047     		bx	lr
 352              	.L21:
 353 0022 00BF     		.align	2
 354              	.L20:
 355 0024 00040058 		.word	1476396032
 356              		.cfi_endproc
 357              	.LFE364:
 359              		.section	.text.LL_PWR_EnableBootC2,"ax",%progbits
 360              		.align	1
 361              		.syntax unified
 362              		.thumb
 363              		.thumb_func
 365              	LL_PWR_EnableBootC2:
 366              	.LFB375:
1331:Drivers/STM32WLxx_HAL_Driver/Inc/stm32wlxx_ll_pwr.h **** 
1332:Drivers/STM32WLxx_HAL_Driver/Inc/stm32wlxx_ll_pwr.h **** /**
1333:Drivers/STM32WLxx_HAL_Driver/Inc/stm32wlxx_ll_pwr.h ****   * @brief  Get radio IRQ trigger action for CPU1: wake-up from low-power mode
1334:Drivers/STM32WLxx_HAL_Driver/Inc/stm32wlxx_ll_pwr.h ****   *         Standby.
1335:Drivers/STM32WLxx_HAL_Driver/Inc/stm32wlxx_ll_pwr.h ****   * @rmtoll CR3          ERFIRQ        LL_PWR_GetRadioIRQTrigger
1336:Drivers/STM32WLxx_HAL_Driver/Inc/stm32wlxx_ll_pwr.h ****   * @retval Returned value can be one of the following values:
1337:Drivers/STM32WLxx_HAL_Driver/Inc/stm32wlxx_ll_pwr.h ****   *         @arg @ref LL_PWR_RADIO_IRQ_TRIGGER_NONE
1338:Drivers/STM32WLxx_HAL_Driver/Inc/stm32wlxx_ll_pwr.h ****   *         @arg @ref LL_PWR_RADIO_IRQ_TRIGGER_WU_IT
1339:Drivers/STM32WLxx_HAL_Driver/Inc/stm32wlxx_ll_pwr.h ****   */
1340:Drivers/STM32WLxx_HAL_Driver/Inc/stm32wlxx_ll_pwr.h **** __STATIC_INLINE uint32_t LL_PWR_GetRadioIRQTrigger(void)
1341:Drivers/STM32WLxx_HAL_Driver/Inc/stm32wlxx_ll_pwr.h **** {
1342:Drivers/STM32WLxx_HAL_Driver/Inc/stm32wlxx_ll_pwr.h ****   return (uint32_t)(READ_BIT(PWR->CR3, PWR_CR3_EWRFIRQ));
1343:Drivers/STM32WLxx_HAL_Driver/Inc/stm32wlxx_ll_pwr.h **** }
1344:Drivers/STM32WLxx_HAL_Driver/Inc/stm32wlxx_ll_pwr.h **** 
1345:Drivers/STM32WLxx_HAL_Driver/Inc/stm32wlxx_ll_pwr.h **** /**
1346:Drivers/STM32WLxx_HAL_Driver/Inc/stm32wlxx_ll_pwr.h ****   * @brief  Set sub-GHz radio SPI NSS control source
1347:Drivers/STM32WLxx_HAL_Driver/Inc/stm32wlxx_ll_pwr.h ****   * @rmtoll CR1          SUBGHZSPINSSSEL LL_PWR_SetSUBGHZSPI_NSSSource
1348:Drivers/STM32WLxx_HAL_Driver/Inc/stm32wlxx_ll_pwr.h ****   * @param  RadioSPI_NSSSource This parameter can be one of the following values:
1349:Drivers/STM32WLxx_HAL_Driver/Inc/stm32wlxx_ll_pwr.h ****   *         @arg @ref LL_PWR_SUBGHZSPI_NSS_SRC_SW
1350:Drivers/STM32WLxx_HAL_Driver/Inc/stm32wlxx_ll_pwr.h ****   *         @arg @ref LL_PWR_SUBGHZSPI_NSS_SRC_LPTIM3
1351:Drivers/STM32WLxx_HAL_Driver/Inc/stm32wlxx_ll_pwr.h ****   * @retval None
1352:Drivers/STM32WLxx_HAL_Driver/Inc/stm32wlxx_ll_pwr.h ****   */
1353:Drivers/STM32WLxx_HAL_Driver/Inc/stm32wlxx_ll_pwr.h **** __STATIC_INLINE void LL_PWR_SetSUBGHZSPI_NSSSource(uint32_t RadioSPI_NSSSource)
1354:Drivers/STM32WLxx_HAL_Driver/Inc/stm32wlxx_ll_pwr.h **** {
1355:Drivers/STM32WLxx_HAL_Driver/Inc/stm32wlxx_ll_pwr.h ****   MODIFY_REG(PWR->CR1, PWR_CR1_SUBGHZSPINSSSEL, RadioSPI_NSSSource);
1356:Drivers/STM32WLxx_HAL_Driver/Inc/stm32wlxx_ll_pwr.h **** }
1357:Drivers/STM32WLxx_HAL_Driver/Inc/stm32wlxx_ll_pwr.h **** 
1358:Drivers/STM32WLxx_HAL_Driver/Inc/stm32wlxx_ll_pwr.h **** /**
1359:Drivers/STM32WLxx_HAL_Driver/Inc/stm32wlxx_ll_pwr.h ****   * @brief  Get sub-GHz radio SPI NSS control source
1360:Drivers/STM32WLxx_HAL_Driver/Inc/stm32wlxx_ll_pwr.h ****   * @rmtoll CR1          SUBGHZSPINSSSEL LL_PWR_GetSUBGHZSPI_NSSSource
ARM GAS  C:\Users\Lenovo\AppData\Local\Temp\ccLMdYCa.s 			page 31


1361:Drivers/STM32WLxx_HAL_Driver/Inc/stm32wlxx_ll_pwr.h ****   * @retval Returned value can be one of the following values:
1362:Drivers/STM32WLxx_HAL_Driver/Inc/stm32wlxx_ll_pwr.h ****   *         @arg @ref LL_PWR_SUBGHZSPI_NSS_SRC_SW
1363:Drivers/STM32WLxx_HAL_Driver/Inc/stm32wlxx_ll_pwr.h ****   *         @arg @ref LL_PWR_SUBGHZSPI_NSS_SRC_LPTIM3
1364:Drivers/STM32WLxx_HAL_Driver/Inc/stm32wlxx_ll_pwr.h ****   */
1365:Drivers/STM32WLxx_HAL_Driver/Inc/stm32wlxx_ll_pwr.h **** __STATIC_INLINE uint32_t LL_PWR_GetSUBGHZSPI_NSSSource(void)
1366:Drivers/STM32WLxx_HAL_Driver/Inc/stm32wlxx_ll_pwr.h **** {
1367:Drivers/STM32WLxx_HAL_Driver/Inc/stm32wlxx_ll_pwr.h ****   return (uint32_t)(READ_BIT(PWR->CR1, PWR_CR1_SUBGHZSPINSSSEL));
1368:Drivers/STM32WLxx_HAL_Driver/Inc/stm32wlxx_ll_pwr.h **** }
1369:Drivers/STM32WLxx_HAL_Driver/Inc/stm32wlxx_ll_pwr.h **** 
1370:Drivers/STM32WLxx_HAL_Driver/Inc/stm32wlxx_ll_pwr.h **** /**
1371:Drivers/STM32WLxx_HAL_Driver/Inc/stm32wlxx_ll_pwr.h ****   * @brief  Set sub-GHz radio SPI NSS at logical level high.
1372:Drivers/STM32WLxx_HAL_Driver/Inc/stm32wlxx_ll_pwr.h ****   * @rmtoll SUBGHZSPICR  NSS           LL_PWR_UnselectSUBGHZSPI_NSS
1373:Drivers/STM32WLxx_HAL_Driver/Inc/stm32wlxx_ll_pwr.h ****   * @retval None
1374:Drivers/STM32WLxx_HAL_Driver/Inc/stm32wlxx_ll_pwr.h ****   */
1375:Drivers/STM32WLxx_HAL_Driver/Inc/stm32wlxx_ll_pwr.h **** __STATIC_INLINE void LL_PWR_UnselectSUBGHZSPI_NSS(void)
1376:Drivers/STM32WLxx_HAL_Driver/Inc/stm32wlxx_ll_pwr.h **** {
1377:Drivers/STM32WLxx_HAL_Driver/Inc/stm32wlxx_ll_pwr.h ****   SET_BIT(PWR->SUBGHZSPICR, PWR_SUBGHZSPICR_NSS);
1378:Drivers/STM32WLxx_HAL_Driver/Inc/stm32wlxx_ll_pwr.h **** }
1379:Drivers/STM32WLxx_HAL_Driver/Inc/stm32wlxx_ll_pwr.h **** 
1380:Drivers/STM32WLxx_HAL_Driver/Inc/stm32wlxx_ll_pwr.h **** /**
1381:Drivers/STM32WLxx_HAL_Driver/Inc/stm32wlxx_ll_pwr.h ****   * @brief  Set sub-GHz radio SPI NSS at logical level low.
1382:Drivers/STM32WLxx_HAL_Driver/Inc/stm32wlxx_ll_pwr.h ****   * @rmtoll SUBGHZSPICR  NSS           LL_PWR_SelectSUBGHZSPI_NSS
1383:Drivers/STM32WLxx_HAL_Driver/Inc/stm32wlxx_ll_pwr.h ****   * @retval None
1384:Drivers/STM32WLxx_HAL_Driver/Inc/stm32wlxx_ll_pwr.h ****   */
1385:Drivers/STM32WLxx_HAL_Driver/Inc/stm32wlxx_ll_pwr.h **** __STATIC_INLINE void LL_PWR_SelectSUBGHZSPI_NSS(void)
1386:Drivers/STM32WLxx_HAL_Driver/Inc/stm32wlxx_ll_pwr.h **** {
1387:Drivers/STM32WLxx_HAL_Driver/Inc/stm32wlxx_ll_pwr.h ****   CLEAR_BIT(PWR->SUBGHZSPICR, PWR_SUBGHZSPICR_NSS);
1388:Drivers/STM32WLxx_HAL_Driver/Inc/stm32wlxx_ll_pwr.h **** }
1389:Drivers/STM32WLxx_HAL_Driver/Inc/stm32wlxx_ll_pwr.h **** 
1390:Drivers/STM32WLxx_HAL_Driver/Inc/stm32wlxx_ll_pwr.h **** /**
1391:Drivers/STM32WLxx_HAL_Driver/Inc/stm32wlxx_ll_pwr.h ****   * @brief  Check whether sub-GHz radio SPI NSS is at logical level high or low.
1392:Drivers/STM32WLxx_HAL_Driver/Inc/stm32wlxx_ll_pwr.h ****   * @rmtoll SUBGHZSPICR  NSS           LL_PWR_IsSUBGHZSPI_NSS_Selected
1393:Drivers/STM32WLxx_HAL_Driver/Inc/stm32wlxx_ll_pwr.h ****   * @retval State of bit (1 for SUBGHZSPI_NSS selected or 0 for SUBGHZSPI_NSS unselected).
1394:Drivers/STM32WLxx_HAL_Driver/Inc/stm32wlxx_ll_pwr.h ****   */
1395:Drivers/STM32WLxx_HAL_Driver/Inc/stm32wlxx_ll_pwr.h **** __STATIC_INLINE uint32_t LL_PWR_IsSUBGHZSPI_NSS_Selected(void)
1396:Drivers/STM32WLxx_HAL_Driver/Inc/stm32wlxx_ll_pwr.h **** {
1397:Drivers/STM32WLxx_HAL_Driver/Inc/stm32wlxx_ll_pwr.h ****   return ((READ_BIT(PWR->SUBGHZSPICR, PWR_SUBGHZSPICR_NSS) != (PWR_SUBGHZSPICR_NSS)) ? 1UL : 0UL);
1398:Drivers/STM32WLxx_HAL_Driver/Inc/stm32wlxx_ll_pwr.h **** }
1399:Drivers/STM32WLxx_HAL_Driver/Inc/stm32wlxx_ll_pwr.h **** 
1400:Drivers/STM32WLxx_HAL_Driver/Inc/stm32wlxx_ll_pwr.h **** /**
1401:Drivers/STM32WLxx_HAL_Driver/Inc/stm32wlxx_ll_pwr.h ****   * @}
1402:Drivers/STM32WLxx_HAL_Driver/Inc/stm32wlxx_ll_pwr.h ****   */
1403:Drivers/STM32WLxx_HAL_Driver/Inc/stm32wlxx_ll_pwr.h **** 
1404:Drivers/STM32WLxx_HAL_Driver/Inc/stm32wlxx_ll_pwr.h **** #if defined(DUAL_CORE)
1405:Drivers/STM32WLxx_HAL_Driver/Inc/stm32wlxx_ll_pwr.h **** /** @defgroup PWR_LL_EF_Configuration_Radio_CPU2 Configuration of radio for CPU2
1406:Drivers/STM32WLxx_HAL_Driver/Inc/stm32wlxx_ll_pwr.h ****   * @{
1407:Drivers/STM32WLxx_HAL_Driver/Inc/stm32wlxx_ll_pwr.h ****   */
1408:Drivers/STM32WLxx_HAL_Driver/Inc/stm32wlxx_ll_pwr.h **** 
1409:Drivers/STM32WLxx_HAL_Driver/Inc/stm32wlxx_ll_pwr.h **** /**
1410:Drivers/STM32WLxx_HAL_Driver/Inc/stm32wlxx_ll_pwr.h ****   * @brief  Set radio busy trigger action for CPU2: wake-up from low-power mode,
1411:Drivers/STM32WLxx_HAL_Driver/Inc/stm32wlxx_ll_pwr.h ****   *         interruption.
1412:Drivers/STM32WLxx_HAL_Driver/Inc/stm32wlxx_ll_pwr.h ****   * @note   Signal polarity can be configured using function
1413:Drivers/STM32WLxx_HAL_Driver/Inc/stm32wlxx_ll_pwr.h ****   *         @ref LL_PWR_SetRadioBusyPolarity().
1414:Drivers/STM32WLxx_HAL_Driver/Inc/stm32wlxx_ll_pwr.h ****   * @rmtoll C2CR3        ERFBUSY       LL_C2_PWR_SetRadioBusyTrigger
1415:Drivers/STM32WLxx_HAL_Driver/Inc/stm32wlxx_ll_pwr.h ****   * @param  RadioBusyTrigger This parameter can be one of the following values:
1416:Drivers/STM32WLxx_HAL_Driver/Inc/stm32wlxx_ll_pwr.h ****   *         @arg @ref LL_PWR_RADIO_BUSY_TRIGGER_NONE
1417:Drivers/STM32WLxx_HAL_Driver/Inc/stm32wlxx_ll_pwr.h ****   *         @arg @ref LL_PWR_RADIO_BUSY_TRIGGER_WU_IT
ARM GAS  C:\Users\Lenovo\AppData\Local\Temp\ccLMdYCa.s 			page 32


1418:Drivers/STM32WLxx_HAL_Driver/Inc/stm32wlxx_ll_pwr.h ****   * @retval None
1419:Drivers/STM32WLxx_HAL_Driver/Inc/stm32wlxx_ll_pwr.h ****   */
1420:Drivers/STM32WLxx_HAL_Driver/Inc/stm32wlxx_ll_pwr.h **** __STATIC_INLINE void LL_C2_PWR_SetRadioBusyTrigger(uint32_t RadioBusyTrigger)
1421:Drivers/STM32WLxx_HAL_Driver/Inc/stm32wlxx_ll_pwr.h **** {
1422:Drivers/STM32WLxx_HAL_Driver/Inc/stm32wlxx_ll_pwr.h ****   MODIFY_REG(PWR->C2CR3, PWR_C2CR3_EWRFBUSY, RadioBusyTrigger);
1423:Drivers/STM32WLxx_HAL_Driver/Inc/stm32wlxx_ll_pwr.h **** }
1424:Drivers/STM32WLxx_HAL_Driver/Inc/stm32wlxx_ll_pwr.h **** 
1425:Drivers/STM32WLxx_HAL_Driver/Inc/stm32wlxx_ll_pwr.h **** /**
1426:Drivers/STM32WLxx_HAL_Driver/Inc/stm32wlxx_ll_pwr.h ****   * @brief  Get radio busy trigger action for CPU2: wake-up from low-power mode,
1427:Drivers/STM32WLxx_HAL_Driver/Inc/stm32wlxx_ll_pwr.h ****   *         interruption.
1428:Drivers/STM32WLxx_HAL_Driver/Inc/stm32wlxx_ll_pwr.h ****   * @rmtoll C2CR3        ERFBUSY       LL_C2_PWR_GetRadioBusyTrigger
1429:Drivers/STM32WLxx_HAL_Driver/Inc/stm32wlxx_ll_pwr.h ****   * @retval Returned value can be one of the following values:
1430:Drivers/STM32WLxx_HAL_Driver/Inc/stm32wlxx_ll_pwr.h ****   *         @arg @ref LL_PWR_RADIO_BUSY_TRIGGER_NONE
1431:Drivers/STM32WLxx_HAL_Driver/Inc/stm32wlxx_ll_pwr.h ****   *         @arg @ref LL_PWR_RADIO_BUSY_TRIGGER_WU_IT
1432:Drivers/STM32WLxx_HAL_Driver/Inc/stm32wlxx_ll_pwr.h ****   */
1433:Drivers/STM32WLxx_HAL_Driver/Inc/stm32wlxx_ll_pwr.h **** __STATIC_INLINE uint32_t LL_C2_PWR_GetRadioBusyTrigger(void)
1434:Drivers/STM32WLxx_HAL_Driver/Inc/stm32wlxx_ll_pwr.h **** {
1435:Drivers/STM32WLxx_HAL_Driver/Inc/stm32wlxx_ll_pwr.h ****   /* Note: Bit shift performed for literals to be generic between CPU1 and CPU2 */
1436:Drivers/STM32WLxx_HAL_Driver/Inc/stm32wlxx_ll_pwr.h ****   return (uint32_t)(READ_BIT(PWR->C2CR3, PWR_C2CR3_EWRFBUSY));
1437:Drivers/STM32WLxx_HAL_Driver/Inc/stm32wlxx_ll_pwr.h **** }
1438:Drivers/STM32WLxx_HAL_Driver/Inc/stm32wlxx_ll_pwr.h **** 
1439:Drivers/STM32WLxx_HAL_Driver/Inc/stm32wlxx_ll_pwr.h **** /**
1440:Drivers/STM32WLxx_HAL_Driver/Inc/stm32wlxx_ll_pwr.h ****   * @brief  Set radio IRQ trigger action for CPU2: wake-up from low-power mode,
1441:Drivers/STM32WLxx_HAL_Driver/Inc/stm32wlxx_ll_pwr.h ****   *         interruption.
1442:Drivers/STM32WLxx_HAL_Driver/Inc/stm32wlxx_ll_pwr.h ****   * @rmtoll C2CR3        ERFIRQ        LL_C2_PWR_SetRadioIRQTrigger
1443:Drivers/STM32WLxx_HAL_Driver/Inc/stm32wlxx_ll_pwr.h ****   * @param  RadioIRQTrigger This parameter can be one of the following values:
1444:Drivers/STM32WLxx_HAL_Driver/Inc/stm32wlxx_ll_pwr.h ****   *         @arg @ref LL_PWR_RADIO_IRQ_TRIGGER_NONE
1445:Drivers/STM32WLxx_HAL_Driver/Inc/stm32wlxx_ll_pwr.h ****   *         @arg @ref LL_PWR_RADIO_IRQ_TRIGGER_WU_IT
1446:Drivers/STM32WLxx_HAL_Driver/Inc/stm32wlxx_ll_pwr.h ****   * @retval None
1447:Drivers/STM32WLxx_HAL_Driver/Inc/stm32wlxx_ll_pwr.h ****   */
1448:Drivers/STM32WLxx_HAL_Driver/Inc/stm32wlxx_ll_pwr.h **** __STATIC_INLINE void LL_C2_PWR_SetRadioIRQTrigger(uint32_t RadioIRQTrigger)
1449:Drivers/STM32WLxx_HAL_Driver/Inc/stm32wlxx_ll_pwr.h **** {
1450:Drivers/STM32WLxx_HAL_Driver/Inc/stm32wlxx_ll_pwr.h ****   MODIFY_REG(PWR->C2CR3, PWR_C2CR3_EWRFIRQ, RadioIRQTrigger);
1451:Drivers/STM32WLxx_HAL_Driver/Inc/stm32wlxx_ll_pwr.h **** }
1452:Drivers/STM32WLxx_HAL_Driver/Inc/stm32wlxx_ll_pwr.h **** 
1453:Drivers/STM32WLxx_HAL_Driver/Inc/stm32wlxx_ll_pwr.h **** /**
1454:Drivers/STM32WLxx_HAL_Driver/Inc/stm32wlxx_ll_pwr.h ****   * @brief  Get radio IRQ trigger action for CPU2: wake-up from low-power mode,
1455:Drivers/STM32WLxx_HAL_Driver/Inc/stm32wlxx_ll_pwr.h ****   *         interruption.
1456:Drivers/STM32WLxx_HAL_Driver/Inc/stm32wlxx_ll_pwr.h ****   * @rmtoll C2CR3        ERFIRQ        LL_C2_PWR_GetRadioIRQTrigger
1457:Drivers/STM32WLxx_HAL_Driver/Inc/stm32wlxx_ll_pwr.h ****   * @retval Returned value can be one of the following values:
1458:Drivers/STM32WLxx_HAL_Driver/Inc/stm32wlxx_ll_pwr.h ****   *         @arg @ref LL_PWR_RADIO_IRQ_TRIGGER_NONE
1459:Drivers/STM32WLxx_HAL_Driver/Inc/stm32wlxx_ll_pwr.h ****   *         @arg @ref LL_PWR_RADIO_IRQ_TRIGGER_WU_IT
1460:Drivers/STM32WLxx_HAL_Driver/Inc/stm32wlxx_ll_pwr.h ****   */
1461:Drivers/STM32WLxx_HAL_Driver/Inc/stm32wlxx_ll_pwr.h **** __STATIC_INLINE uint32_t LL_C2_PWR_GetRadioIRQTrigger(void)
1462:Drivers/STM32WLxx_HAL_Driver/Inc/stm32wlxx_ll_pwr.h **** {
1463:Drivers/STM32WLxx_HAL_Driver/Inc/stm32wlxx_ll_pwr.h ****   return (uint32_t)(READ_BIT(PWR->C2CR3, PWR_C2CR3_EWRFIRQ));
1464:Drivers/STM32WLxx_HAL_Driver/Inc/stm32wlxx_ll_pwr.h **** }
1465:Drivers/STM32WLxx_HAL_Driver/Inc/stm32wlxx_ll_pwr.h **** 
1466:Drivers/STM32WLxx_HAL_Driver/Inc/stm32wlxx_ll_pwr.h **** /**
1467:Drivers/STM32WLxx_HAL_Driver/Inc/stm32wlxx_ll_pwr.h ****   * @}
1468:Drivers/STM32WLxx_HAL_Driver/Inc/stm32wlxx_ll_pwr.h ****   */
1469:Drivers/STM32WLxx_HAL_Driver/Inc/stm32wlxx_ll_pwr.h **** 
1470:Drivers/STM32WLxx_HAL_Driver/Inc/stm32wlxx_ll_pwr.h **** /** @defgroup PWR_LL_EF_Configuration_Multicore Configuration of multicore, intended to be executed
1471:Drivers/STM32WLxx_HAL_Driver/Inc/stm32wlxx_ll_pwr.h ****   * @{
1472:Drivers/STM32WLxx_HAL_Driver/Inc/stm32wlxx_ll_pwr.h ****   */
1473:Drivers/STM32WLxx_HAL_Driver/Inc/stm32wlxx_ll_pwr.h **** 
1474:Drivers/STM32WLxx_HAL_Driver/Inc/stm32wlxx_ll_pwr.h **** /**
ARM GAS  C:\Users\Lenovo\AppData\Local\Temp\ccLMdYCa.s 			page 33


1475:Drivers/STM32WLxx_HAL_Driver/Inc/stm32wlxx_ll_pwr.h ****   * @brief  Boot CPU2 after reset or wakeup from Stop or Standby modes.
1476:Drivers/STM32WLxx_HAL_Driver/Inc/stm32wlxx_ll_pwr.h ****   * @note   CPU2 can boot from configuration of this function or from
1477:Drivers/STM32WLxx_HAL_Driver/Inc/stm32wlxx_ll_pwr.h ****   *         an illegal access. For information of boot source,
1478:Drivers/STM32WLxx_HAL_Driver/Inc/stm32wlxx_ll_pwr.h ****   *         refer to function @ref LL_PWR_IsActiveFlag_C2BOOTS().
1479:Drivers/STM32WLxx_HAL_Driver/Inc/stm32wlxx_ll_pwr.h ****   * @rmtoll CR4          C2BOOT        LL_PWR_EnableBootC2
1480:Drivers/STM32WLxx_HAL_Driver/Inc/stm32wlxx_ll_pwr.h ****   * @retval None
1481:Drivers/STM32WLxx_HAL_Driver/Inc/stm32wlxx_ll_pwr.h ****   */
1482:Drivers/STM32WLxx_HAL_Driver/Inc/stm32wlxx_ll_pwr.h **** __STATIC_INLINE void LL_PWR_EnableBootC2(void)
1483:Drivers/STM32WLxx_HAL_Driver/Inc/stm32wlxx_ll_pwr.h **** {
 367              		.loc 1 1483 1
 368              		.cfi_startproc
 369              		@ args = 0, pretend = 0, frame = 0
 370              		@ frame_needed = 1, uses_anonymous_args = 0
 371              		@ link register save eliminated.
 372 0000 80B4     		push	{r7}
 373              	.LCFI34:
 374              		.cfi_def_cfa_offset 4
 375              		.cfi_offset 7, -4
 376 0002 00AF     		add	r7, sp, #0
 377              	.LCFI35:
 378              		.cfi_def_cfa_register 7
1484:Drivers/STM32WLxx_HAL_Driver/Inc/stm32wlxx_ll_pwr.h ****   SET_BIT(PWR->CR4, PWR_CR4_C2BOOT);
 379              		.loc 1 1484 3
 380 0004 044B     		ldr	r3, .L23
 381 0006 DB68     		ldr	r3, [r3, #12]
 382 0008 034A     		ldr	r2, .L23
 383 000a 43F40043 		orr	r3, r3, #32768
 384 000e D360     		str	r3, [r2, #12]
1485:Drivers/STM32WLxx_HAL_Driver/Inc/stm32wlxx_ll_pwr.h **** }
 385              		.loc 1 1485 1
 386 0010 00BF     		nop
 387 0012 BD46     		mov	sp, r7
 388              	.LCFI36:
 389              		.cfi_def_cfa_register 13
 390              		@ sp needed
 391 0014 80BC     		pop	{r7}
 392              	.LCFI37:
 393              		.cfi_restore 7
 394              		.cfi_def_cfa_offset 0
 395 0016 7047     		bx	lr
 396              	.L24:
 397              		.align	2
 398              	.L23:
 399 0018 00040058 		.word	1476396032
 400              		.cfi_endproc
 401              	.LFE375:
 403              		.section	.text.LL_PWR_DisableBootC2,"ax",%progbits
 404              		.align	1
 405              		.syntax unified
 406              		.thumb
 407              		.thumb_func
 409              	LL_PWR_DisableBootC2:
 410              	.LFB376:
1486:Drivers/STM32WLxx_HAL_Driver/Inc/stm32wlxx_ll_pwr.h **** 
1487:Drivers/STM32WLxx_HAL_Driver/Inc/stm32wlxx_ll_pwr.h **** /**
1488:Drivers/STM32WLxx_HAL_Driver/Inc/stm32wlxx_ll_pwr.h ****   * @brief  Do not allow CPU2 to boot after reset or wakeup from Stop or Standby
1489:Drivers/STM32WLxx_HAL_Driver/Inc/stm32wlxx_ll_pwr.h ****   *         modes.
ARM GAS  C:\Users\Lenovo\AppData\Local\Temp\ccLMdYCa.s 			page 34


1490:Drivers/STM32WLxx_HAL_Driver/Inc/stm32wlxx_ll_pwr.h ****   * @rmtoll CR4          C2BOOT        LL_PWR_DisableBootC2
1491:Drivers/STM32WLxx_HAL_Driver/Inc/stm32wlxx_ll_pwr.h ****   * @retval None
1492:Drivers/STM32WLxx_HAL_Driver/Inc/stm32wlxx_ll_pwr.h ****   */
1493:Drivers/STM32WLxx_HAL_Driver/Inc/stm32wlxx_ll_pwr.h **** __STATIC_INLINE void LL_PWR_DisableBootC2(void)
1494:Drivers/STM32WLxx_HAL_Driver/Inc/stm32wlxx_ll_pwr.h **** {
 411              		.loc 1 1494 1
 412              		.cfi_startproc
 413              		@ args = 0, pretend = 0, frame = 0
 414              		@ frame_needed = 1, uses_anonymous_args = 0
 415              		@ link register save eliminated.
 416 0000 80B4     		push	{r7}
 417              	.LCFI38:
 418              		.cfi_def_cfa_offset 4
 419              		.cfi_offset 7, -4
 420 0002 00AF     		add	r7, sp, #0
 421              	.LCFI39:
 422              		.cfi_def_cfa_register 7
1495:Drivers/STM32WLxx_HAL_Driver/Inc/stm32wlxx_ll_pwr.h ****   CLEAR_BIT(PWR->CR4, PWR_CR4_C2BOOT);
 423              		.loc 1 1495 3
 424 0004 044B     		ldr	r3, .L26
 425 0006 DB68     		ldr	r3, [r3, #12]
 426 0008 034A     		ldr	r2, .L26
 427 000a 23F40043 		bic	r3, r3, #32768
 428 000e D360     		str	r3, [r2, #12]
1496:Drivers/STM32WLxx_HAL_Driver/Inc/stm32wlxx_ll_pwr.h **** }
 429              		.loc 1 1496 1
 430 0010 00BF     		nop
 431 0012 BD46     		mov	sp, r7
 432              	.LCFI40:
 433              		.cfi_def_cfa_register 13
 434              		@ sp needed
 435 0014 80BC     		pop	{r7}
 436              	.LCFI41:
 437              		.cfi_restore 7
 438              		.cfi_def_cfa_offset 0
 439 0016 7047     		bx	lr
 440              	.L27:
 441              		.align	2
 442              	.L26:
 443 0018 00040058 		.word	1476396032
 444              		.cfi_endproc
 445              	.LFE376:
 447              		.section	.text.LL_EXTI_EnableIT_32_63,"ax",%progbits
 448              		.align	1
 449              		.syntax unified
 450              		.thumb
 451              		.thumb_func
 453              	LL_EXTI_EnableIT_32_63:
 454              	.LFB714:
 455              		.file 2 "Drivers/STM32WLxx_HAL_Driver/Inc/stm32wlxx_ll_exti.h"
   1:Drivers/STM32WLxx_HAL_Driver/Inc/stm32wlxx_ll_exti.h **** /**
   2:Drivers/STM32WLxx_HAL_Driver/Inc/stm32wlxx_ll_exti.h ****   ******************************************************************************
   3:Drivers/STM32WLxx_HAL_Driver/Inc/stm32wlxx_ll_exti.h ****   * @file    stm32wlxx_ll_exti.h
   4:Drivers/STM32WLxx_HAL_Driver/Inc/stm32wlxx_ll_exti.h ****   * @author  MCD Application Team
   5:Drivers/STM32WLxx_HAL_Driver/Inc/stm32wlxx_ll_exti.h ****   * @brief   Header file of EXTI LL module.
   6:Drivers/STM32WLxx_HAL_Driver/Inc/stm32wlxx_ll_exti.h ****   ******************************************************************************
   7:Drivers/STM32WLxx_HAL_Driver/Inc/stm32wlxx_ll_exti.h ****   * @attention
ARM GAS  C:\Users\Lenovo\AppData\Local\Temp\ccLMdYCa.s 			page 35


   8:Drivers/STM32WLxx_HAL_Driver/Inc/stm32wlxx_ll_exti.h ****   *
   9:Drivers/STM32WLxx_HAL_Driver/Inc/stm32wlxx_ll_exti.h ****   * Copyright (c) 2020 STMicroelectronics.
  10:Drivers/STM32WLxx_HAL_Driver/Inc/stm32wlxx_ll_exti.h ****   * All rights reserved.
  11:Drivers/STM32WLxx_HAL_Driver/Inc/stm32wlxx_ll_exti.h ****   *
  12:Drivers/STM32WLxx_HAL_Driver/Inc/stm32wlxx_ll_exti.h ****   * This software is licensed under terms that can be found in the LICENSE file
  13:Drivers/STM32WLxx_HAL_Driver/Inc/stm32wlxx_ll_exti.h ****   * in the root directory of this software component.
  14:Drivers/STM32WLxx_HAL_Driver/Inc/stm32wlxx_ll_exti.h ****   * If no LICENSE file comes with this software, it is provided AS-IS.
  15:Drivers/STM32WLxx_HAL_Driver/Inc/stm32wlxx_ll_exti.h ****   *
  16:Drivers/STM32WLxx_HAL_Driver/Inc/stm32wlxx_ll_exti.h ****   ******************************************************************************
  17:Drivers/STM32WLxx_HAL_Driver/Inc/stm32wlxx_ll_exti.h ****   */
  18:Drivers/STM32WLxx_HAL_Driver/Inc/stm32wlxx_ll_exti.h **** 
  19:Drivers/STM32WLxx_HAL_Driver/Inc/stm32wlxx_ll_exti.h **** /* Define to prevent recursive inclusion -------------------------------------*/
  20:Drivers/STM32WLxx_HAL_Driver/Inc/stm32wlxx_ll_exti.h **** #ifndef __STM32WLxx_LL_EXTI_H
  21:Drivers/STM32WLxx_HAL_Driver/Inc/stm32wlxx_ll_exti.h **** #define __STM32WLxx_LL_EXTI_H
  22:Drivers/STM32WLxx_HAL_Driver/Inc/stm32wlxx_ll_exti.h **** 
  23:Drivers/STM32WLxx_HAL_Driver/Inc/stm32wlxx_ll_exti.h **** #ifdef __cplusplus
  24:Drivers/STM32WLxx_HAL_Driver/Inc/stm32wlxx_ll_exti.h **** extern "C" {
  25:Drivers/STM32WLxx_HAL_Driver/Inc/stm32wlxx_ll_exti.h **** #endif
  26:Drivers/STM32WLxx_HAL_Driver/Inc/stm32wlxx_ll_exti.h **** 
  27:Drivers/STM32WLxx_HAL_Driver/Inc/stm32wlxx_ll_exti.h **** /* Includes ------------------------------------------------------------------*/
  28:Drivers/STM32WLxx_HAL_Driver/Inc/stm32wlxx_ll_exti.h **** #include "stm32wlxx.h"
  29:Drivers/STM32WLxx_HAL_Driver/Inc/stm32wlxx_ll_exti.h **** 
  30:Drivers/STM32WLxx_HAL_Driver/Inc/stm32wlxx_ll_exti.h **** /** @addtogroup STM32WLxx_LL_Driver
  31:Drivers/STM32WLxx_HAL_Driver/Inc/stm32wlxx_ll_exti.h ****   * @{
  32:Drivers/STM32WLxx_HAL_Driver/Inc/stm32wlxx_ll_exti.h ****   */
  33:Drivers/STM32WLxx_HAL_Driver/Inc/stm32wlxx_ll_exti.h **** 
  34:Drivers/STM32WLxx_HAL_Driver/Inc/stm32wlxx_ll_exti.h **** #if defined (EXTI)
  35:Drivers/STM32WLxx_HAL_Driver/Inc/stm32wlxx_ll_exti.h **** 
  36:Drivers/STM32WLxx_HAL_Driver/Inc/stm32wlxx_ll_exti.h **** /** @defgroup EXTI_LL EXTI
  37:Drivers/STM32WLxx_HAL_Driver/Inc/stm32wlxx_ll_exti.h ****   * @{
  38:Drivers/STM32WLxx_HAL_Driver/Inc/stm32wlxx_ll_exti.h ****   */
  39:Drivers/STM32WLxx_HAL_Driver/Inc/stm32wlxx_ll_exti.h **** 
  40:Drivers/STM32WLxx_HAL_Driver/Inc/stm32wlxx_ll_exti.h **** /* Private types -------------------------------------------------------------*/
  41:Drivers/STM32WLxx_HAL_Driver/Inc/stm32wlxx_ll_exti.h **** /* Private variables ---------------------------------------------------------*/
  42:Drivers/STM32WLxx_HAL_Driver/Inc/stm32wlxx_ll_exti.h **** /* Private constants ---------------------------------------------------------*/
  43:Drivers/STM32WLxx_HAL_Driver/Inc/stm32wlxx_ll_exti.h **** /* Private Macros ------------------------------------------------------------*/
  44:Drivers/STM32WLxx_HAL_Driver/Inc/stm32wlxx_ll_exti.h **** #if defined(USE_FULL_LL_DRIVER)
  45:Drivers/STM32WLxx_HAL_Driver/Inc/stm32wlxx_ll_exti.h **** /** @defgroup EXTI_LL_Private_Macros EXTI Private Macros
  46:Drivers/STM32WLxx_HAL_Driver/Inc/stm32wlxx_ll_exti.h ****   * @{
  47:Drivers/STM32WLxx_HAL_Driver/Inc/stm32wlxx_ll_exti.h ****   */
  48:Drivers/STM32WLxx_HAL_Driver/Inc/stm32wlxx_ll_exti.h **** /**
  49:Drivers/STM32WLxx_HAL_Driver/Inc/stm32wlxx_ll_exti.h ****   * @}
  50:Drivers/STM32WLxx_HAL_Driver/Inc/stm32wlxx_ll_exti.h ****   */
  51:Drivers/STM32WLxx_HAL_Driver/Inc/stm32wlxx_ll_exti.h **** #endif /*USE_FULL_LL_DRIVER*/
  52:Drivers/STM32WLxx_HAL_Driver/Inc/stm32wlxx_ll_exti.h **** /* Exported types ------------------------------------------------------------*/
  53:Drivers/STM32WLxx_HAL_Driver/Inc/stm32wlxx_ll_exti.h **** #if defined(USE_FULL_LL_DRIVER)
  54:Drivers/STM32WLxx_HAL_Driver/Inc/stm32wlxx_ll_exti.h **** /** @defgroup EXTI_LL_ES_INIT EXTI Exported Init structure
  55:Drivers/STM32WLxx_HAL_Driver/Inc/stm32wlxx_ll_exti.h ****   * @{
  56:Drivers/STM32WLxx_HAL_Driver/Inc/stm32wlxx_ll_exti.h ****   */
  57:Drivers/STM32WLxx_HAL_Driver/Inc/stm32wlxx_ll_exti.h **** typedef struct
  58:Drivers/STM32WLxx_HAL_Driver/Inc/stm32wlxx_ll_exti.h **** {
  59:Drivers/STM32WLxx_HAL_Driver/Inc/stm32wlxx_ll_exti.h **** 
  60:Drivers/STM32WLxx_HAL_Driver/Inc/stm32wlxx_ll_exti.h ****   uint32_t Line_0_31;           /*!< Specifies the EXTI lines to be enabled or disabled for Lines i
  61:Drivers/STM32WLxx_HAL_Driver/Inc/stm32wlxx_ll_exti.h ****                                      This parameter can be any combination of @ref EXTI_LL_EC_LINE 
  62:Drivers/STM32WLxx_HAL_Driver/Inc/stm32wlxx_ll_exti.h **** 
  63:Drivers/STM32WLxx_HAL_Driver/Inc/stm32wlxx_ll_exti.h ****   uint32_t Line_32_63;          /*!< Specifies the EXTI lines to be enabled or disabled for Lines i
  64:Drivers/STM32WLxx_HAL_Driver/Inc/stm32wlxx_ll_exti.h ****                                      This parameter can be any combination of @ref EXTI_LL_EC_LINE 
ARM GAS  C:\Users\Lenovo\AppData\Local\Temp\ccLMdYCa.s 			page 36


  65:Drivers/STM32WLxx_HAL_Driver/Inc/stm32wlxx_ll_exti.h **** 
  66:Drivers/STM32WLxx_HAL_Driver/Inc/stm32wlxx_ll_exti.h ****   FunctionalState LineCommand;  /*!< Specifies the new state of the selected EXTI lines.
  67:Drivers/STM32WLxx_HAL_Driver/Inc/stm32wlxx_ll_exti.h ****                                      This parameter can be set either to ENABLE or DISABLE */
  68:Drivers/STM32WLxx_HAL_Driver/Inc/stm32wlxx_ll_exti.h **** 
  69:Drivers/STM32WLxx_HAL_Driver/Inc/stm32wlxx_ll_exti.h ****   uint8_t Mode;                 /*!< Specifies the mode for the EXTI lines.
  70:Drivers/STM32WLxx_HAL_Driver/Inc/stm32wlxx_ll_exti.h ****                                      This parameter can be a value of @ref EXTI_LL_EC_MODE. */
  71:Drivers/STM32WLxx_HAL_Driver/Inc/stm32wlxx_ll_exti.h **** 
  72:Drivers/STM32WLxx_HAL_Driver/Inc/stm32wlxx_ll_exti.h ****   uint8_t Trigger;              /*!< Specifies the trigger signal active edge for the EXTI lines.
  73:Drivers/STM32WLxx_HAL_Driver/Inc/stm32wlxx_ll_exti.h ****                                      This parameter can be a value of @ref EXTI_LL_EC_TRIGGER. */
  74:Drivers/STM32WLxx_HAL_Driver/Inc/stm32wlxx_ll_exti.h **** } LL_EXTI_InitTypeDef;
  75:Drivers/STM32WLxx_HAL_Driver/Inc/stm32wlxx_ll_exti.h **** 
  76:Drivers/STM32WLxx_HAL_Driver/Inc/stm32wlxx_ll_exti.h **** /**
  77:Drivers/STM32WLxx_HAL_Driver/Inc/stm32wlxx_ll_exti.h ****   * @}
  78:Drivers/STM32WLxx_HAL_Driver/Inc/stm32wlxx_ll_exti.h ****   */
  79:Drivers/STM32WLxx_HAL_Driver/Inc/stm32wlxx_ll_exti.h **** #endif /*USE_FULL_LL_DRIVER*/
  80:Drivers/STM32WLxx_HAL_Driver/Inc/stm32wlxx_ll_exti.h **** 
  81:Drivers/STM32WLxx_HAL_Driver/Inc/stm32wlxx_ll_exti.h **** /* Exported constants --------------------------------------------------------*/
  82:Drivers/STM32WLxx_HAL_Driver/Inc/stm32wlxx_ll_exti.h **** /** @defgroup EXTI_LL_Exported_Constants EXTI Exported Constants
  83:Drivers/STM32WLxx_HAL_Driver/Inc/stm32wlxx_ll_exti.h ****   * @{
  84:Drivers/STM32WLxx_HAL_Driver/Inc/stm32wlxx_ll_exti.h ****   */
  85:Drivers/STM32WLxx_HAL_Driver/Inc/stm32wlxx_ll_exti.h **** 
  86:Drivers/STM32WLxx_HAL_Driver/Inc/stm32wlxx_ll_exti.h **** /** @defgroup EXTI_LL_EC_LINE LINE
  87:Drivers/STM32WLxx_HAL_Driver/Inc/stm32wlxx_ll_exti.h ****   * @{
  88:Drivers/STM32WLxx_HAL_Driver/Inc/stm32wlxx_ll_exti.h ****   */
  89:Drivers/STM32WLxx_HAL_Driver/Inc/stm32wlxx_ll_exti.h **** #define LL_EXTI_LINE_0                  EXTI_IMR1_IM0    /*!< Extended line 0 */
  90:Drivers/STM32WLxx_HAL_Driver/Inc/stm32wlxx_ll_exti.h **** #define LL_EXTI_LINE_1                  EXTI_IMR1_IM1    /*!< Extended line 1 */
  91:Drivers/STM32WLxx_HAL_Driver/Inc/stm32wlxx_ll_exti.h **** #define LL_EXTI_LINE_2                  EXTI_IMR1_IM2    /*!< Extended line 2 */
  92:Drivers/STM32WLxx_HAL_Driver/Inc/stm32wlxx_ll_exti.h **** #define LL_EXTI_LINE_3                  EXTI_IMR1_IM3    /*!< Extended line 3 */
  93:Drivers/STM32WLxx_HAL_Driver/Inc/stm32wlxx_ll_exti.h **** #define LL_EXTI_LINE_4                  EXTI_IMR1_IM4    /*!< Extended line 4 */
  94:Drivers/STM32WLxx_HAL_Driver/Inc/stm32wlxx_ll_exti.h **** #define LL_EXTI_LINE_5                  EXTI_IMR1_IM5    /*!< Extended line 5 */
  95:Drivers/STM32WLxx_HAL_Driver/Inc/stm32wlxx_ll_exti.h **** #define LL_EXTI_LINE_6                  EXTI_IMR1_IM6    /*!< Extended line 6 */
  96:Drivers/STM32WLxx_HAL_Driver/Inc/stm32wlxx_ll_exti.h **** #define LL_EXTI_LINE_7                  EXTI_IMR1_IM7    /*!< Extended line 7 */
  97:Drivers/STM32WLxx_HAL_Driver/Inc/stm32wlxx_ll_exti.h **** #define LL_EXTI_LINE_8                  EXTI_IMR1_IM8    /*!< Extended line 8 */
  98:Drivers/STM32WLxx_HAL_Driver/Inc/stm32wlxx_ll_exti.h **** #define LL_EXTI_LINE_9                  EXTI_IMR1_IM9    /*!< Extended line 9 */
  99:Drivers/STM32WLxx_HAL_Driver/Inc/stm32wlxx_ll_exti.h **** #define LL_EXTI_LINE_10                 EXTI_IMR1_IM10   /*!< Extended line 10 */
 100:Drivers/STM32WLxx_HAL_Driver/Inc/stm32wlxx_ll_exti.h **** #define LL_EXTI_LINE_11                 EXTI_IMR1_IM11   /*!< Extended line 11 */
 101:Drivers/STM32WLxx_HAL_Driver/Inc/stm32wlxx_ll_exti.h **** #define LL_EXTI_LINE_12                 EXTI_IMR1_IM12   /*!< Extended line 12 */
 102:Drivers/STM32WLxx_HAL_Driver/Inc/stm32wlxx_ll_exti.h **** #define LL_EXTI_LINE_13                 EXTI_IMR1_IM13   /*!< Extended line 13 */
 103:Drivers/STM32WLxx_HAL_Driver/Inc/stm32wlxx_ll_exti.h **** #define LL_EXTI_LINE_14                 EXTI_IMR1_IM14   /*!< Extended line 14 */
 104:Drivers/STM32WLxx_HAL_Driver/Inc/stm32wlxx_ll_exti.h **** #define LL_EXTI_LINE_15                 EXTI_IMR1_IM15   /*!< Extended line 15 */
 105:Drivers/STM32WLxx_HAL_Driver/Inc/stm32wlxx_ll_exti.h **** #define LL_EXTI_LINE_16                 EXTI_IMR1_IM16   /*!< Extended line 16 */
 106:Drivers/STM32WLxx_HAL_Driver/Inc/stm32wlxx_ll_exti.h **** #define LL_EXTI_LINE_17                 EXTI_IMR1_IM17   /*!< Extended line 17 */
 107:Drivers/STM32WLxx_HAL_Driver/Inc/stm32wlxx_ll_exti.h **** #define LL_EXTI_LINE_18                 EXTI_IMR1_IM18   /*!< Extended line 18 */
 108:Drivers/STM32WLxx_HAL_Driver/Inc/stm32wlxx_ll_exti.h **** #define LL_EXTI_LINE_19                 EXTI_IMR1_IM19   /*!< Extended line 19 */
 109:Drivers/STM32WLxx_HAL_Driver/Inc/stm32wlxx_ll_exti.h **** #define LL_EXTI_LINE_20                 EXTI_IMR1_IM20   /*!< Extended line 20 */
 110:Drivers/STM32WLxx_HAL_Driver/Inc/stm32wlxx_ll_exti.h **** #define LL_EXTI_LINE_21                 EXTI_IMR1_IM21   /*!< Extended line 21 */
 111:Drivers/STM32WLxx_HAL_Driver/Inc/stm32wlxx_ll_exti.h **** #define LL_EXTI_LINE_22                 EXTI_IMR1_IM22   /*!< Extended line 22 */
 112:Drivers/STM32WLxx_HAL_Driver/Inc/stm32wlxx_ll_exti.h **** #define LL_EXTI_LINE_23                 EXTI_IMR1_IM23   /*!< Extended line 23 */
 113:Drivers/STM32WLxx_HAL_Driver/Inc/stm32wlxx_ll_exti.h **** #define LL_EXTI_LINE_24                 EXTI_IMR1_IM24   /*!< Extended line 24 */
 114:Drivers/STM32WLxx_HAL_Driver/Inc/stm32wlxx_ll_exti.h **** #define LL_EXTI_LINE_25                 EXTI_IMR1_IM25   /*!< Extended line 25 */
 115:Drivers/STM32WLxx_HAL_Driver/Inc/stm32wlxx_ll_exti.h **** #define LL_EXTI_LINE_26                 EXTI_IMR1_IM26   /*!< Extended line 26 */
 116:Drivers/STM32WLxx_HAL_Driver/Inc/stm32wlxx_ll_exti.h **** #define LL_EXTI_LINE_27                 EXTI_IMR1_IM27   /*!< Extended line 27 */
 117:Drivers/STM32WLxx_HAL_Driver/Inc/stm32wlxx_ll_exti.h **** #define LL_EXTI_LINE_28                 EXTI_IMR1_IM28   /*!< Extended line 28 */
 118:Drivers/STM32WLxx_HAL_Driver/Inc/stm32wlxx_ll_exti.h **** #define LL_EXTI_LINE_29                 EXTI_IMR1_IM29   /*!< Extended line 29 */
 119:Drivers/STM32WLxx_HAL_Driver/Inc/stm32wlxx_ll_exti.h **** #define LL_EXTI_LINE_30                 EXTI_IMR1_IM30   /*!< Extended line 30 */
 120:Drivers/STM32WLxx_HAL_Driver/Inc/stm32wlxx_ll_exti.h **** #define LL_EXTI_LINE_31                 EXTI_IMR1_IM31   /*!< Extended line 31 */
 121:Drivers/STM32WLxx_HAL_Driver/Inc/stm32wlxx_ll_exti.h **** #define LL_EXTI_LINE_ALL_0_31           0xFFFFFFFFU      /*!< All Extended line not reserved*/
ARM GAS  C:\Users\Lenovo\AppData\Local\Temp\ccLMdYCa.s 			page 37


 122:Drivers/STM32WLxx_HAL_Driver/Inc/stm32wlxx_ll_exti.h **** 
 123:Drivers/STM32WLxx_HAL_Driver/Inc/stm32wlxx_ll_exti.h **** #define LL_EXTI_LINE_34                 EXTI_IMR2_IM34   /*!< Extended line 34 */
 124:Drivers/STM32WLxx_HAL_Driver/Inc/stm32wlxx_ll_exti.h **** #if defined(DUAL_CORE)
 125:Drivers/STM32WLxx_HAL_Driver/Inc/stm32wlxx_ll_exti.h **** #define LL_EXTI_LINE_36                 EXTI_IMR2_IM36   /*!< Extended line 36 */
 126:Drivers/STM32WLxx_HAL_Driver/Inc/stm32wlxx_ll_exti.h **** #define LL_EXTI_LINE_37                 EXTI_IMR2_IM37   /*!< Extended line 37 */
 127:Drivers/STM32WLxx_HAL_Driver/Inc/stm32wlxx_ll_exti.h **** #endif /* DUAL_CORE */
 128:Drivers/STM32WLxx_HAL_Driver/Inc/stm32wlxx_ll_exti.h **** #define LL_EXTI_LINE_38                 EXTI_IMR2_IM38   /*!< Extended line 38 */
 129:Drivers/STM32WLxx_HAL_Driver/Inc/stm32wlxx_ll_exti.h **** #if defined(DUAL_CORE)
 130:Drivers/STM32WLxx_HAL_Driver/Inc/stm32wlxx_ll_exti.h **** #define LL_EXTI_LINE_39                 EXTI_IMR2_IM39   /*!< Extended line 39 */
 131:Drivers/STM32WLxx_HAL_Driver/Inc/stm32wlxx_ll_exti.h **** #define LL_EXTI_LINE_40                 EXTI_IMR2_IM40   /*!< Extended line 40 */
 132:Drivers/STM32WLxx_HAL_Driver/Inc/stm32wlxx_ll_exti.h **** #define LL_EXTI_LINE_41                 EXTI_IMR2_IM41   /*!< Extended line 41 */
 133:Drivers/STM32WLxx_HAL_Driver/Inc/stm32wlxx_ll_exti.h **** #endif /* DUAL_CORE */
 134:Drivers/STM32WLxx_HAL_Driver/Inc/stm32wlxx_ll_exti.h **** #define LL_EXTI_LINE_42                 EXTI_IMR2_IM42   /*!< Extended line 42 */
 135:Drivers/STM32WLxx_HAL_Driver/Inc/stm32wlxx_ll_exti.h **** #define LL_EXTI_LINE_43                 EXTI_IMR2_IM43   /*!< Extended line 43 */
 136:Drivers/STM32WLxx_HAL_Driver/Inc/stm32wlxx_ll_exti.h **** #define LL_EXTI_LINE_44                 EXTI_IMR2_IM44   /*!< Extended line 44 */
 137:Drivers/STM32WLxx_HAL_Driver/Inc/stm32wlxx_ll_exti.h **** #define LL_EXTI_LINE_45                 EXTI_IMR2_IM45   /*!< Extended line 45 */
 138:Drivers/STM32WLxx_HAL_Driver/Inc/stm32wlxx_ll_exti.h **** #define LL_EXTI_LINE_46                 EXTI_IMR2_IM46   /*!< Extended line 46 */
 139:Drivers/STM32WLxx_HAL_Driver/Inc/stm32wlxx_ll_exti.h **** #if defined(DUAL_CORE)
 140:Drivers/STM32WLxx_HAL_Driver/Inc/stm32wlxx_ll_exti.h **** #define LL_EXTI_LINE_ALL_32_63          (EXTI_IMR2_IM34 | EXTI_IMR2_IM36 | EXTI_IMR2_IM37 | \
 141:Drivers/STM32WLxx_HAL_Driver/Inc/stm32wlxx_ll_exti.h ****                                          EXTI_IMR2_IM38 | EXTI_IMR2_IM39 | EXTI_IMR2_IM40 |  \
 142:Drivers/STM32WLxx_HAL_Driver/Inc/stm32wlxx_ll_exti.h ****                                          EXTI_IMR2_IM41 | EXTI_IMR2_IM42 | EXTI_IMR2_IM43 |  \
 143:Drivers/STM32WLxx_HAL_Driver/Inc/stm32wlxx_ll_exti.h ****                                          EXTI_IMR2_IM44 | EXTI_IMR2_IM45 | EXTI_IMR2_IM46) /*!< All
 144:Drivers/STM32WLxx_HAL_Driver/Inc/stm32wlxx_ll_exti.h **** #else
 145:Drivers/STM32WLxx_HAL_Driver/Inc/stm32wlxx_ll_exti.h **** #define LL_EXTI_LINE_ALL_32_63          (EXTI_IMR2_IM34 | EXTI_IMR2_IM38 | EXTI_IMR2_IM42 | \
 146:Drivers/STM32WLxx_HAL_Driver/Inc/stm32wlxx_ll_exti.h ****                                          EXTI_IMR2_IM43 | EXTI_IMR2_IM44 | EXTI_IMR2_IM45 |  \
 147:Drivers/STM32WLxx_HAL_Driver/Inc/stm32wlxx_ll_exti.h ****                                          EXTI_IMR2_IM46) /*!< All Extended line not reserved*/
 148:Drivers/STM32WLxx_HAL_Driver/Inc/stm32wlxx_ll_exti.h **** #endif /* DUAL_CORE */
 149:Drivers/STM32WLxx_HAL_Driver/Inc/stm32wlxx_ll_exti.h **** 
 150:Drivers/STM32WLxx_HAL_Driver/Inc/stm32wlxx_ll_exti.h **** #if defined(USE_FULL_LL_DRIVER)
 151:Drivers/STM32WLxx_HAL_Driver/Inc/stm32wlxx_ll_exti.h **** #define LL_EXTI_LINE_NONE              (0x00000000U)  /*!< None Extended line */
 152:Drivers/STM32WLxx_HAL_Driver/Inc/stm32wlxx_ll_exti.h **** #endif /*USE_FULL_LL_DRIVER*/
 153:Drivers/STM32WLxx_HAL_Driver/Inc/stm32wlxx_ll_exti.h **** 
 154:Drivers/STM32WLxx_HAL_Driver/Inc/stm32wlxx_ll_exti.h **** /**
 155:Drivers/STM32WLxx_HAL_Driver/Inc/stm32wlxx_ll_exti.h ****   * @}
 156:Drivers/STM32WLxx_HAL_Driver/Inc/stm32wlxx_ll_exti.h ****   */
 157:Drivers/STM32WLxx_HAL_Driver/Inc/stm32wlxx_ll_exti.h **** #if defined(USE_FULL_LL_DRIVER)
 158:Drivers/STM32WLxx_HAL_Driver/Inc/stm32wlxx_ll_exti.h **** /** @defgroup EXTI_LL_EC_MODE Mode
 159:Drivers/STM32WLxx_HAL_Driver/Inc/stm32wlxx_ll_exti.h ****   * @{
 160:Drivers/STM32WLxx_HAL_Driver/Inc/stm32wlxx_ll_exti.h ****   */
 161:Drivers/STM32WLxx_HAL_Driver/Inc/stm32wlxx_ll_exti.h **** #define LL_EXTI_MODE_IT                 ((uint8_t)0x00U) /*!< Interrupt Mode */
 162:Drivers/STM32WLxx_HAL_Driver/Inc/stm32wlxx_ll_exti.h **** #define LL_EXTI_MODE_EVENT              ((uint8_t)0x01U) /*!< Event Mode */
 163:Drivers/STM32WLxx_HAL_Driver/Inc/stm32wlxx_ll_exti.h **** #define LL_EXTI_MODE_IT_EVENT           ((uint8_t)0x02U) /*!< Interrupt & Event Mode */
 164:Drivers/STM32WLxx_HAL_Driver/Inc/stm32wlxx_ll_exti.h **** /**
 165:Drivers/STM32WLxx_HAL_Driver/Inc/stm32wlxx_ll_exti.h ****   * @}
 166:Drivers/STM32WLxx_HAL_Driver/Inc/stm32wlxx_ll_exti.h ****   */
 167:Drivers/STM32WLxx_HAL_Driver/Inc/stm32wlxx_ll_exti.h **** 
 168:Drivers/STM32WLxx_HAL_Driver/Inc/stm32wlxx_ll_exti.h **** /** @defgroup EXTI_LL_EC_TRIGGER Edge Trigger
 169:Drivers/STM32WLxx_HAL_Driver/Inc/stm32wlxx_ll_exti.h ****   * @{
 170:Drivers/STM32WLxx_HAL_Driver/Inc/stm32wlxx_ll_exti.h ****   */
 171:Drivers/STM32WLxx_HAL_Driver/Inc/stm32wlxx_ll_exti.h **** #define LL_EXTI_TRIGGER_NONE            ((uint8_t)0x00U) /*!< No Trigger Mode */
 172:Drivers/STM32WLxx_HAL_Driver/Inc/stm32wlxx_ll_exti.h **** #define LL_EXTI_TRIGGER_RISING          ((uint8_t)0x01U) /*!< Trigger Rising Mode */
 173:Drivers/STM32WLxx_HAL_Driver/Inc/stm32wlxx_ll_exti.h **** #define LL_EXTI_TRIGGER_FALLING         ((uint8_t)0x02U) /*!< Trigger Falling Mode */
 174:Drivers/STM32WLxx_HAL_Driver/Inc/stm32wlxx_ll_exti.h **** #define LL_EXTI_TRIGGER_RISING_FALLING  ((uint8_t)0x03U) /*!< Trigger Rising & Falling Mode */
 175:Drivers/STM32WLxx_HAL_Driver/Inc/stm32wlxx_ll_exti.h **** /**
 176:Drivers/STM32WLxx_HAL_Driver/Inc/stm32wlxx_ll_exti.h ****   * @}
 177:Drivers/STM32WLxx_HAL_Driver/Inc/stm32wlxx_ll_exti.h ****   */
 178:Drivers/STM32WLxx_HAL_Driver/Inc/stm32wlxx_ll_exti.h **** #endif /*USE_FULL_LL_DRIVER*/
ARM GAS  C:\Users\Lenovo\AppData\Local\Temp\ccLMdYCa.s 			page 38


 179:Drivers/STM32WLxx_HAL_Driver/Inc/stm32wlxx_ll_exti.h **** 
 180:Drivers/STM32WLxx_HAL_Driver/Inc/stm32wlxx_ll_exti.h **** /**
 181:Drivers/STM32WLxx_HAL_Driver/Inc/stm32wlxx_ll_exti.h ****   * @}
 182:Drivers/STM32WLxx_HAL_Driver/Inc/stm32wlxx_ll_exti.h ****   */
 183:Drivers/STM32WLxx_HAL_Driver/Inc/stm32wlxx_ll_exti.h **** 
 184:Drivers/STM32WLxx_HAL_Driver/Inc/stm32wlxx_ll_exti.h **** /* Exported macro ------------------------------------------------------------*/
 185:Drivers/STM32WLxx_HAL_Driver/Inc/stm32wlxx_ll_exti.h **** /** @defgroup EXTI_LL_Exported_Macros EXTI Exported Macros
 186:Drivers/STM32WLxx_HAL_Driver/Inc/stm32wlxx_ll_exti.h ****   * @{
 187:Drivers/STM32WLxx_HAL_Driver/Inc/stm32wlxx_ll_exti.h ****   */
 188:Drivers/STM32WLxx_HAL_Driver/Inc/stm32wlxx_ll_exti.h **** 
 189:Drivers/STM32WLxx_HAL_Driver/Inc/stm32wlxx_ll_exti.h **** /** @defgroup EXTI_LL_EM_WRITE_READ Common Write and read registers Macros
 190:Drivers/STM32WLxx_HAL_Driver/Inc/stm32wlxx_ll_exti.h ****   * @{
 191:Drivers/STM32WLxx_HAL_Driver/Inc/stm32wlxx_ll_exti.h ****   */
 192:Drivers/STM32WLxx_HAL_Driver/Inc/stm32wlxx_ll_exti.h **** 
 193:Drivers/STM32WLxx_HAL_Driver/Inc/stm32wlxx_ll_exti.h **** /**
 194:Drivers/STM32WLxx_HAL_Driver/Inc/stm32wlxx_ll_exti.h ****   * @brief  Write a value in EXTI register
 195:Drivers/STM32WLxx_HAL_Driver/Inc/stm32wlxx_ll_exti.h ****   * @param  __REG__ Register to be written
 196:Drivers/STM32WLxx_HAL_Driver/Inc/stm32wlxx_ll_exti.h ****   * @param  __VALUE__ Value to be written in the register
 197:Drivers/STM32WLxx_HAL_Driver/Inc/stm32wlxx_ll_exti.h ****   * @retval None
 198:Drivers/STM32WLxx_HAL_Driver/Inc/stm32wlxx_ll_exti.h ****   */
 199:Drivers/STM32WLxx_HAL_Driver/Inc/stm32wlxx_ll_exti.h **** #define LL_EXTI_WriteReg(__REG__, __VALUE__) WRITE_REG(EXTI->__REG__, (__VALUE__))
 200:Drivers/STM32WLxx_HAL_Driver/Inc/stm32wlxx_ll_exti.h **** 
 201:Drivers/STM32WLxx_HAL_Driver/Inc/stm32wlxx_ll_exti.h **** /**
 202:Drivers/STM32WLxx_HAL_Driver/Inc/stm32wlxx_ll_exti.h ****   * @brief  Read a value in EXTI register
 203:Drivers/STM32WLxx_HAL_Driver/Inc/stm32wlxx_ll_exti.h ****   * @param  __REG__ Register to be read
 204:Drivers/STM32WLxx_HAL_Driver/Inc/stm32wlxx_ll_exti.h ****   * @retval Register value
 205:Drivers/STM32WLxx_HAL_Driver/Inc/stm32wlxx_ll_exti.h ****   */
 206:Drivers/STM32WLxx_HAL_Driver/Inc/stm32wlxx_ll_exti.h **** #define LL_EXTI_ReadReg(__REG__) READ_REG(EXTI->__REG__)
 207:Drivers/STM32WLxx_HAL_Driver/Inc/stm32wlxx_ll_exti.h **** /**
 208:Drivers/STM32WLxx_HAL_Driver/Inc/stm32wlxx_ll_exti.h ****   * @}
 209:Drivers/STM32WLxx_HAL_Driver/Inc/stm32wlxx_ll_exti.h ****   */
 210:Drivers/STM32WLxx_HAL_Driver/Inc/stm32wlxx_ll_exti.h **** 
 211:Drivers/STM32WLxx_HAL_Driver/Inc/stm32wlxx_ll_exti.h **** 
 212:Drivers/STM32WLxx_HAL_Driver/Inc/stm32wlxx_ll_exti.h **** /**
 213:Drivers/STM32WLxx_HAL_Driver/Inc/stm32wlxx_ll_exti.h ****   * @}
 214:Drivers/STM32WLxx_HAL_Driver/Inc/stm32wlxx_ll_exti.h ****   */
 215:Drivers/STM32WLxx_HAL_Driver/Inc/stm32wlxx_ll_exti.h **** 
 216:Drivers/STM32WLxx_HAL_Driver/Inc/stm32wlxx_ll_exti.h **** 
 217:Drivers/STM32WLxx_HAL_Driver/Inc/stm32wlxx_ll_exti.h **** 
 218:Drivers/STM32WLxx_HAL_Driver/Inc/stm32wlxx_ll_exti.h **** /* Exported functions --------------------------------------------------------*/
 219:Drivers/STM32WLxx_HAL_Driver/Inc/stm32wlxx_ll_exti.h **** /** @defgroup EXTI_LL_Exported_Functions EXTI Exported Functions
 220:Drivers/STM32WLxx_HAL_Driver/Inc/stm32wlxx_ll_exti.h ****   * @{
 221:Drivers/STM32WLxx_HAL_Driver/Inc/stm32wlxx_ll_exti.h ****   */
 222:Drivers/STM32WLxx_HAL_Driver/Inc/stm32wlxx_ll_exti.h **** /** @defgroup EXTI_LL_EF_IT_Management IT_Management
 223:Drivers/STM32WLxx_HAL_Driver/Inc/stm32wlxx_ll_exti.h ****   * @{
 224:Drivers/STM32WLxx_HAL_Driver/Inc/stm32wlxx_ll_exti.h ****   */
 225:Drivers/STM32WLxx_HAL_Driver/Inc/stm32wlxx_ll_exti.h **** 
 226:Drivers/STM32WLxx_HAL_Driver/Inc/stm32wlxx_ll_exti.h **** /**
 227:Drivers/STM32WLxx_HAL_Driver/Inc/stm32wlxx_ll_exti.h ****   * @brief  Enable ExtiLine Interrupt request for Lines in range 0 to 31
 228:Drivers/STM32WLxx_HAL_Driver/Inc/stm32wlxx_ll_exti.h ****   * @rmtoll IMR1         IMx           LL_EXTI_EnableIT_0_31
 229:Drivers/STM32WLxx_HAL_Driver/Inc/stm32wlxx_ll_exti.h ****   * @param  ExtiLine This parameter can be one of the following values:
 230:Drivers/STM32WLxx_HAL_Driver/Inc/stm32wlxx_ll_exti.h ****   *         @arg @ref LL_EXTI_LINE_0
 231:Drivers/STM32WLxx_HAL_Driver/Inc/stm32wlxx_ll_exti.h ****   *         @arg @ref LL_EXTI_LINE_1
 232:Drivers/STM32WLxx_HAL_Driver/Inc/stm32wlxx_ll_exti.h ****   *         @arg @ref LL_EXTI_LINE_2
 233:Drivers/STM32WLxx_HAL_Driver/Inc/stm32wlxx_ll_exti.h ****   *         @arg @ref LL_EXTI_LINE_3
 234:Drivers/STM32WLxx_HAL_Driver/Inc/stm32wlxx_ll_exti.h ****   *         @arg @ref LL_EXTI_LINE_4
 235:Drivers/STM32WLxx_HAL_Driver/Inc/stm32wlxx_ll_exti.h ****   *         @arg @ref LL_EXTI_LINE_5
ARM GAS  C:\Users\Lenovo\AppData\Local\Temp\ccLMdYCa.s 			page 39


 236:Drivers/STM32WLxx_HAL_Driver/Inc/stm32wlxx_ll_exti.h ****   *         @arg @ref LL_EXTI_LINE_6
 237:Drivers/STM32WLxx_HAL_Driver/Inc/stm32wlxx_ll_exti.h ****   *         @arg @ref LL_EXTI_LINE_7
 238:Drivers/STM32WLxx_HAL_Driver/Inc/stm32wlxx_ll_exti.h ****   *         @arg @ref LL_EXTI_LINE_8
 239:Drivers/STM32WLxx_HAL_Driver/Inc/stm32wlxx_ll_exti.h ****   *         @arg @ref LL_EXTI_LINE_9
 240:Drivers/STM32WLxx_HAL_Driver/Inc/stm32wlxx_ll_exti.h ****   *         @arg @ref LL_EXTI_LINE_10
 241:Drivers/STM32WLxx_HAL_Driver/Inc/stm32wlxx_ll_exti.h ****   *         @arg @ref LL_EXTI_LINE_11
 242:Drivers/STM32WLxx_HAL_Driver/Inc/stm32wlxx_ll_exti.h ****   *         @arg @ref LL_EXTI_LINE_12
 243:Drivers/STM32WLxx_HAL_Driver/Inc/stm32wlxx_ll_exti.h ****   *         @arg @ref LL_EXTI_LINE_13
 244:Drivers/STM32WLxx_HAL_Driver/Inc/stm32wlxx_ll_exti.h ****   *         @arg @ref LL_EXTI_LINE_14
 245:Drivers/STM32WLxx_HAL_Driver/Inc/stm32wlxx_ll_exti.h ****   *         @arg @ref LL_EXTI_LINE_15
 246:Drivers/STM32WLxx_HAL_Driver/Inc/stm32wlxx_ll_exti.h ****   *         @arg @ref LL_EXTI_LINE_16
 247:Drivers/STM32WLxx_HAL_Driver/Inc/stm32wlxx_ll_exti.h ****   *         @arg @ref LL_EXTI_LINE_17
 248:Drivers/STM32WLxx_HAL_Driver/Inc/stm32wlxx_ll_exti.h ****   *         @arg @ref LL_EXTI_LINE_18
 249:Drivers/STM32WLxx_HAL_Driver/Inc/stm32wlxx_ll_exti.h ****   *         @arg @ref LL_EXTI_LINE_19
 250:Drivers/STM32WLxx_HAL_Driver/Inc/stm32wlxx_ll_exti.h ****   *         @arg @ref LL_EXTI_LINE_20
 251:Drivers/STM32WLxx_HAL_Driver/Inc/stm32wlxx_ll_exti.h ****   *         @arg @ref LL_EXTI_LINE_21
 252:Drivers/STM32WLxx_HAL_Driver/Inc/stm32wlxx_ll_exti.h ****   *         @arg @ref LL_EXTI_LINE_22
 253:Drivers/STM32WLxx_HAL_Driver/Inc/stm32wlxx_ll_exti.h ****   *         @arg @ref LL_EXTI_LINE_23
 254:Drivers/STM32WLxx_HAL_Driver/Inc/stm32wlxx_ll_exti.h ****   *         @arg @ref LL_EXTI_LINE_24
 255:Drivers/STM32WLxx_HAL_Driver/Inc/stm32wlxx_ll_exti.h ****   *         @arg @ref LL_EXTI_LINE_25
 256:Drivers/STM32WLxx_HAL_Driver/Inc/stm32wlxx_ll_exti.h ****   *         @arg @ref LL_EXTI_LINE_26
 257:Drivers/STM32WLxx_HAL_Driver/Inc/stm32wlxx_ll_exti.h ****   *         @arg @ref LL_EXTI_LINE_27
 258:Drivers/STM32WLxx_HAL_Driver/Inc/stm32wlxx_ll_exti.h ****   *         @arg @ref LL_EXTI_LINE_28
 259:Drivers/STM32WLxx_HAL_Driver/Inc/stm32wlxx_ll_exti.h ****   *         @arg @ref LL_EXTI_LINE_29
 260:Drivers/STM32WLxx_HAL_Driver/Inc/stm32wlxx_ll_exti.h ****   *         @arg @ref LL_EXTI_LINE_30
 261:Drivers/STM32WLxx_HAL_Driver/Inc/stm32wlxx_ll_exti.h ****   *         @arg @ref LL_EXTI_LINE_31
 262:Drivers/STM32WLxx_HAL_Driver/Inc/stm32wlxx_ll_exti.h ****   *         @arg @ref LL_EXTI_LINE_ALL_0_31
 263:Drivers/STM32WLxx_HAL_Driver/Inc/stm32wlxx_ll_exti.h ****   * @retval None
 264:Drivers/STM32WLxx_HAL_Driver/Inc/stm32wlxx_ll_exti.h ****   */
 265:Drivers/STM32WLxx_HAL_Driver/Inc/stm32wlxx_ll_exti.h **** __STATIC_INLINE void LL_EXTI_EnableIT_0_31(uint32_t ExtiLine)
 266:Drivers/STM32WLxx_HAL_Driver/Inc/stm32wlxx_ll_exti.h **** {
 267:Drivers/STM32WLxx_HAL_Driver/Inc/stm32wlxx_ll_exti.h ****   SET_BIT(EXTI->IMR1, ExtiLine);
 268:Drivers/STM32WLxx_HAL_Driver/Inc/stm32wlxx_ll_exti.h **** }
 269:Drivers/STM32WLxx_HAL_Driver/Inc/stm32wlxx_ll_exti.h **** 
 270:Drivers/STM32WLxx_HAL_Driver/Inc/stm32wlxx_ll_exti.h **** #if defined(DUAL_CORE)
 271:Drivers/STM32WLxx_HAL_Driver/Inc/stm32wlxx_ll_exti.h **** /**
 272:Drivers/STM32WLxx_HAL_Driver/Inc/stm32wlxx_ll_exti.h ****   * @brief  Enable ExtiLine Interrupt request for Lines in range 0 to 31 for cpu2
 273:Drivers/STM32WLxx_HAL_Driver/Inc/stm32wlxx_ll_exti.h ****   * @rmtoll C2IMR1         IMx           LL_C2_EXTI_EnableIT_0_31
 274:Drivers/STM32WLxx_HAL_Driver/Inc/stm32wlxx_ll_exti.h ****   * @param  ExtiLine This parameter can be one of the following values:
 275:Drivers/STM32WLxx_HAL_Driver/Inc/stm32wlxx_ll_exti.h ****   *         @arg @ref LL_EXTI_LINE_0
 276:Drivers/STM32WLxx_HAL_Driver/Inc/stm32wlxx_ll_exti.h ****   *         @arg @ref LL_EXTI_LINE_1
 277:Drivers/STM32WLxx_HAL_Driver/Inc/stm32wlxx_ll_exti.h ****   *         @arg @ref LL_EXTI_LINE_2
 278:Drivers/STM32WLxx_HAL_Driver/Inc/stm32wlxx_ll_exti.h ****   *         @arg @ref LL_EXTI_LINE_3
 279:Drivers/STM32WLxx_HAL_Driver/Inc/stm32wlxx_ll_exti.h ****   *         @arg @ref LL_EXTI_LINE_4
 280:Drivers/STM32WLxx_HAL_Driver/Inc/stm32wlxx_ll_exti.h ****   *         @arg @ref LL_EXTI_LINE_5
 281:Drivers/STM32WLxx_HAL_Driver/Inc/stm32wlxx_ll_exti.h ****   *         @arg @ref LL_EXTI_LINE_6
 282:Drivers/STM32WLxx_HAL_Driver/Inc/stm32wlxx_ll_exti.h ****   *         @arg @ref LL_EXTI_LINE_7
 283:Drivers/STM32WLxx_HAL_Driver/Inc/stm32wlxx_ll_exti.h ****   *         @arg @ref LL_EXTI_LINE_8
 284:Drivers/STM32WLxx_HAL_Driver/Inc/stm32wlxx_ll_exti.h ****   *         @arg @ref LL_EXTI_LINE_9
 285:Drivers/STM32WLxx_HAL_Driver/Inc/stm32wlxx_ll_exti.h ****   *         @arg @ref LL_EXTI_LINE_10
 286:Drivers/STM32WLxx_HAL_Driver/Inc/stm32wlxx_ll_exti.h ****   *         @arg @ref LL_EXTI_LINE_11
 287:Drivers/STM32WLxx_HAL_Driver/Inc/stm32wlxx_ll_exti.h ****   *         @arg @ref LL_EXTI_LINE_12
 288:Drivers/STM32WLxx_HAL_Driver/Inc/stm32wlxx_ll_exti.h ****   *         @arg @ref LL_EXTI_LINE_13
 289:Drivers/STM32WLxx_HAL_Driver/Inc/stm32wlxx_ll_exti.h ****   *         @arg @ref LL_EXTI_LINE_14
 290:Drivers/STM32WLxx_HAL_Driver/Inc/stm32wlxx_ll_exti.h ****   *         @arg @ref LL_EXTI_LINE_15
 291:Drivers/STM32WLxx_HAL_Driver/Inc/stm32wlxx_ll_exti.h ****   *         @arg @ref LL_EXTI_LINE_16
 292:Drivers/STM32WLxx_HAL_Driver/Inc/stm32wlxx_ll_exti.h ****   *         @arg @ref LL_EXTI_LINE_17
ARM GAS  C:\Users\Lenovo\AppData\Local\Temp\ccLMdYCa.s 			page 40


 293:Drivers/STM32WLxx_HAL_Driver/Inc/stm32wlxx_ll_exti.h ****   *         @arg @ref LL_EXTI_LINE_18
 294:Drivers/STM32WLxx_HAL_Driver/Inc/stm32wlxx_ll_exti.h ****   *         @arg @ref LL_EXTI_LINE_19
 295:Drivers/STM32WLxx_HAL_Driver/Inc/stm32wlxx_ll_exti.h ****   *         @arg @ref LL_EXTI_LINE_20
 296:Drivers/STM32WLxx_HAL_Driver/Inc/stm32wlxx_ll_exti.h ****   *         @arg @ref LL_EXTI_LINE_21
 297:Drivers/STM32WLxx_HAL_Driver/Inc/stm32wlxx_ll_exti.h ****   *         @arg @ref LL_EXTI_LINE_22
 298:Drivers/STM32WLxx_HAL_Driver/Inc/stm32wlxx_ll_exti.h ****   *         @arg @ref LL_EXTI_LINE_23
 299:Drivers/STM32WLxx_HAL_Driver/Inc/stm32wlxx_ll_exti.h ****   *         @arg @ref LL_EXTI_LINE_24
 300:Drivers/STM32WLxx_HAL_Driver/Inc/stm32wlxx_ll_exti.h ****   *         @arg @ref LL_EXTI_LINE_25
 301:Drivers/STM32WLxx_HAL_Driver/Inc/stm32wlxx_ll_exti.h ****   *         @arg @ref LL_EXTI_LINE_26
 302:Drivers/STM32WLxx_HAL_Driver/Inc/stm32wlxx_ll_exti.h ****   *         @arg @ref LL_EXTI_LINE_27
 303:Drivers/STM32WLxx_HAL_Driver/Inc/stm32wlxx_ll_exti.h ****   *         @arg @ref LL_EXTI_LINE_28
 304:Drivers/STM32WLxx_HAL_Driver/Inc/stm32wlxx_ll_exti.h ****   *         @arg @ref LL_EXTI_LINE_29
 305:Drivers/STM32WLxx_HAL_Driver/Inc/stm32wlxx_ll_exti.h ****   *         @arg @ref LL_EXTI_LINE_30
 306:Drivers/STM32WLxx_HAL_Driver/Inc/stm32wlxx_ll_exti.h ****   *         @arg @ref LL_EXTI_LINE_31
 307:Drivers/STM32WLxx_HAL_Driver/Inc/stm32wlxx_ll_exti.h ****   *         @arg @ref LL_EXTI_LINE_ALL_0_31
 308:Drivers/STM32WLxx_HAL_Driver/Inc/stm32wlxx_ll_exti.h ****   * @retval None
 309:Drivers/STM32WLxx_HAL_Driver/Inc/stm32wlxx_ll_exti.h ****   */
 310:Drivers/STM32WLxx_HAL_Driver/Inc/stm32wlxx_ll_exti.h **** __STATIC_INLINE void LL_C2_EXTI_EnableIT_0_31(uint32_t ExtiLine)
 311:Drivers/STM32WLxx_HAL_Driver/Inc/stm32wlxx_ll_exti.h **** {
 312:Drivers/STM32WLxx_HAL_Driver/Inc/stm32wlxx_ll_exti.h ****   SET_BIT(EXTI->C2IMR1, ExtiLine);
 313:Drivers/STM32WLxx_HAL_Driver/Inc/stm32wlxx_ll_exti.h **** }
 314:Drivers/STM32WLxx_HAL_Driver/Inc/stm32wlxx_ll_exti.h **** #endif /* DUAL_CORE */
 315:Drivers/STM32WLxx_HAL_Driver/Inc/stm32wlxx_ll_exti.h **** 
 316:Drivers/STM32WLxx_HAL_Driver/Inc/stm32wlxx_ll_exti.h **** /**
 317:Drivers/STM32WLxx_HAL_Driver/Inc/stm32wlxx_ll_exti.h ****   * @brief  Enable ExtiLine Interrupt request for Lines in range 32 to 63
 318:Drivers/STM32WLxx_HAL_Driver/Inc/stm32wlxx_ll_exti.h ****   * @rmtoll IMR2         IMx           LL_EXTI_EnableIT_32_63
 319:Drivers/STM32WLxx_HAL_Driver/Inc/stm32wlxx_ll_exti.h ****   * @param  ExtiLine This parameter can be one of the following values:
 320:Drivers/STM32WLxx_HAL_Driver/Inc/stm32wlxx_ll_exti.h ****   *         @arg @ref LL_EXTI_LINE_34
 321:Drivers/STM32WLxx_HAL_Driver/Inc/stm32wlxx_ll_exti.h ****   *         @arg @ref LL_EXTI_LINE_36 (*)
 322:Drivers/STM32WLxx_HAL_Driver/Inc/stm32wlxx_ll_exti.h ****   *         @arg @ref LL_EXTI_LINE_37 (*)
 323:Drivers/STM32WLxx_HAL_Driver/Inc/stm32wlxx_ll_exti.h ****   *         @arg @ref LL_EXTI_LINE_38
 324:Drivers/STM32WLxx_HAL_Driver/Inc/stm32wlxx_ll_exti.h ****   *         @arg @ref LL_EXTI_LINE_39 (*)
 325:Drivers/STM32WLxx_HAL_Driver/Inc/stm32wlxx_ll_exti.h ****   *         @arg @ref LL_EXTI_LINE_40 (*)
 326:Drivers/STM32WLxx_HAL_Driver/Inc/stm32wlxx_ll_exti.h ****   *         @arg @ref LL_EXTI_LINE_41 (*)
 327:Drivers/STM32WLxx_HAL_Driver/Inc/stm32wlxx_ll_exti.h ****   *         @arg @ref LL_EXTI_LINE_42
 328:Drivers/STM32WLxx_HAL_Driver/Inc/stm32wlxx_ll_exti.h ****   *         @arg @ref LL_EXTI_LINE_43
 329:Drivers/STM32WLxx_HAL_Driver/Inc/stm32wlxx_ll_exti.h ****   *         @arg @ref LL_EXTI_LINE_44
 330:Drivers/STM32WLxx_HAL_Driver/Inc/stm32wlxx_ll_exti.h ****   *         @arg @ref LL_EXTI_LINE_45
 331:Drivers/STM32WLxx_HAL_Driver/Inc/stm32wlxx_ll_exti.h ****   *         @arg @ref LL_EXTI_LINE_46
 332:Drivers/STM32WLxx_HAL_Driver/Inc/stm32wlxx_ll_exti.h ****   *         @arg @ref LL_EXTI_LINE_ALL_32_63
 333:Drivers/STM32WLxx_HAL_Driver/Inc/stm32wlxx_ll_exti.h ****   *         (*) value not defined in all devices
 334:Drivers/STM32WLxx_HAL_Driver/Inc/stm32wlxx_ll_exti.h ****   * @retval None
 335:Drivers/STM32WLxx_HAL_Driver/Inc/stm32wlxx_ll_exti.h ****   */
 336:Drivers/STM32WLxx_HAL_Driver/Inc/stm32wlxx_ll_exti.h **** __STATIC_INLINE void LL_EXTI_EnableIT_32_63(uint32_t ExtiLine)
 337:Drivers/STM32WLxx_HAL_Driver/Inc/stm32wlxx_ll_exti.h **** {
 456              		.loc 2 337 1
 457              		.cfi_startproc
 458              		@ args = 0, pretend = 0, frame = 8
 459              		@ frame_needed = 1, uses_anonymous_args = 0
 460              		@ link register save eliminated.
 461 0000 80B4     		push	{r7}
 462              	.LCFI42:
 463              		.cfi_def_cfa_offset 4
 464              		.cfi_offset 7, -4
 465 0002 83B0     		sub	sp, sp, #12
 466              	.LCFI43:
 467              		.cfi_def_cfa_offset 16
ARM GAS  C:\Users\Lenovo\AppData\Local\Temp\ccLMdYCa.s 			page 41


 468 0004 00AF     		add	r7, sp, #0
 469              	.LCFI44:
 470              		.cfi_def_cfa_register 7
 471 0006 7860     		str	r0, [r7, #4]
 338:Drivers/STM32WLxx_HAL_Driver/Inc/stm32wlxx_ll_exti.h ****   SET_BIT(EXTI->IMR2, ExtiLine);
 472              		.loc 2 338 3
 473 0008 064B     		ldr	r3, .L29
 474 000a D3F89020 		ldr	r2, [r3, #144]
 475 000e 0549     		ldr	r1, .L29
 476 0010 7B68     		ldr	r3, [r7, #4]
 477 0012 1343     		orrs	r3, r3, r2
 478 0014 C1F89030 		str	r3, [r1, #144]
 339:Drivers/STM32WLxx_HAL_Driver/Inc/stm32wlxx_ll_exti.h **** }
 479              		.loc 2 339 1
 480 0018 00BF     		nop
 481 001a 0C37     		adds	r7, r7, #12
 482              	.LCFI45:
 483              		.cfi_def_cfa_offset 4
 484 001c BD46     		mov	sp, r7
 485              	.LCFI46:
 486              		.cfi_def_cfa_register 13
 487              		@ sp needed
 488 001e 80BC     		pop	{r7}
 489              	.LCFI47:
 490              		.cfi_restore 7
 491              		.cfi_def_cfa_offset 0
 492 0020 7047     		bx	lr
 493              	.L30:
 494 0022 00BF     		.align	2
 495              	.L29:
 496 0024 00080058 		.word	1476397056
 497              		.cfi_endproc
 498              	.LFE714:
 500              		.section	.text.LL_EXTI_DisableIT_32_63,"ax",%progbits
 501              		.align	1
 502              		.syntax unified
 503              		.thumb
 504              		.thumb_func
 506              	LL_EXTI_DisableIT_32_63:
 507              	.LFB718:
 340:Drivers/STM32WLxx_HAL_Driver/Inc/stm32wlxx_ll_exti.h **** 
 341:Drivers/STM32WLxx_HAL_Driver/Inc/stm32wlxx_ll_exti.h **** #if defined(DUAL_CORE)
 342:Drivers/STM32WLxx_HAL_Driver/Inc/stm32wlxx_ll_exti.h **** /**
 343:Drivers/STM32WLxx_HAL_Driver/Inc/stm32wlxx_ll_exti.h ****   * @brief  Enable ExtiLine Interrupt request for Lines in range 32 to 63 for cpu2
 344:Drivers/STM32WLxx_HAL_Driver/Inc/stm32wlxx_ll_exti.h ****   * @rmtoll C2IMR2         IMx           LL_C2_EXTI_EnableIT_32_63
 345:Drivers/STM32WLxx_HAL_Driver/Inc/stm32wlxx_ll_exti.h ****   * @param  ExtiLine This parameter can be one of the following values:
 346:Drivers/STM32WLxx_HAL_Driver/Inc/stm32wlxx_ll_exti.h ****   *         @arg @ref LL_EXTI_LINE_34
 347:Drivers/STM32WLxx_HAL_Driver/Inc/stm32wlxx_ll_exti.h ****   *         @arg @ref LL_EXTI_LINE_36 (*)
 348:Drivers/STM32WLxx_HAL_Driver/Inc/stm32wlxx_ll_exti.h ****   *         @arg @ref LL_EXTI_LINE_37 (*)
 349:Drivers/STM32WLxx_HAL_Driver/Inc/stm32wlxx_ll_exti.h ****   *         @arg @ref LL_EXTI_LINE_38
 350:Drivers/STM32WLxx_HAL_Driver/Inc/stm32wlxx_ll_exti.h ****   *         @arg @ref LL_EXTI_LINE_39 (*)
 351:Drivers/STM32WLxx_HAL_Driver/Inc/stm32wlxx_ll_exti.h ****   *         @arg @ref LL_EXTI_LINE_40 (*)
 352:Drivers/STM32WLxx_HAL_Driver/Inc/stm32wlxx_ll_exti.h ****   *         @arg @ref LL_EXTI_LINE_41 (*)
 353:Drivers/STM32WLxx_HAL_Driver/Inc/stm32wlxx_ll_exti.h ****   *         @arg @ref LL_EXTI_LINE_42
 354:Drivers/STM32WLxx_HAL_Driver/Inc/stm32wlxx_ll_exti.h ****   *         @arg @ref LL_EXTI_LINE_43
 355:Drivers/STM32WLxx_HAL_Driver/Inc/stm32wlxx_ll_exti.h ****   *         @arg @ref LL_EXTI_LINE_44
 356:Drivers/STM32WLxx_HAL_Driver/Inc/stm32wlxx_ll_exti.h ****   *         @arg @ref LL_EXTI_LINE_45
ARM GAS  C:\Users\Lenovo\AppData\Local\Temp\ccLMdYCa.s 			page 42


 357:Drivers/STM32WLxx_HAL_Driver/Inc/stm32wlxx_ll_exti.h ****   *         @arg @ref LL_EXTI_LINE_46
 358:Drivers/STM32WLxx_HAL_Driver/Inc/stm32wlxx_ll_exti.h ****   *         @arg @ref LL_EXTI_LINE_ALL_32_63
 359:Drivers/STM32WLxx_HAL_Driver/Inc/stm32wlxx_ll_exti.h ****   *         (*) value not defined in all devices
 360:Drivers/STM32WLxx_HAL_Driver/Inc/stm32wlxx_ll_exti.h ****   * @retval None
 361:Drivers/STM32WLxx_HAL_Driver/Inc/stm32wlxx_ll_exti.h ****   */
 362:Drivers/STM32WLxx_HAL_Driver/Inc/stm32wlxx_ll_exti.h **** __STATIC_INLINE void LL_C2_EXTI_EnableIT_32_63(uint32_t ExtiLine)
 363:Drivers/STM32WLxx_HAL_Driver/Inc/stm32wlxx_ll_exti.h **** {
 364:Drivers/STM32WLxx_HAL_Driver/Inc/stm32wlxx_ll_exti.h ****   SET_BIT(EXTI->C2IMR2, ExtiLine);
 365:Drivers/STM32WLxx_HAL_Driver/Inc/stm32wlxx_ll_exti.h **** }
 366:Drivers/STM32WLxx_HAL_Driver/Inc/stm32wlxx_ll_exti.h **** #endif /* DUAL_CORE */
 367:Drivers/STM32WLxx_HAL_Driver/Inc/stm32wlxx_ll_exti.h **** 
 368:Drivers/STM32WLxx_HAL_Driver/Inc/stm32wlxx_ll_exti.h **** /**
 369:Drivers/STM32WLxx_HAL_Driver/Inc/stm32wlxx_ll_exti.h ****   * @brief  Disable ExtiLine Interrupt request for Lines in range 0 to 31
 370:Drivers/STM32WLxx_HAL_Driver/Inc/stm32wlxx_ll_exti.h ****   * @rmtoll IMR1         IMx           LL_EXTI_DisableIT_0_31
 371:Drivers/STM32WLxx_HAL_Driver/Inc/stm32wlxx_ll_exti.h ****   * @param  ExtiLine This parameter can be one of the following values:
 372:Drivers/STM32WLxx_HAL_Driver/Inc/stm32wlxx_ll_exti.h ****   *         @arg @ref LL_EXTI_LINE_0
 373:Drivers/STM32WLxx_HAL_Driver/Inc/stm32wlxx_ll_exti.h ****   *         @arg @ref LL_EXTI_LINE_1
 374:Drivers/STM32WLxx_HAL_Driver/Inc/stm32wlxx_ll_exti.h ****   *         @arg @ref LL_EXTI_LINE_2
 375:Drivers/STM32WLxx_HAL_Driver/Inc/stm32wlxx_ll_exti.h ****   *         @arg @ref LL_EXTI_LINE_3
 376:Drivers/STM32WLxx_HAL_Driver/Inc/stm32wlxx_ll_exti.h ****   *         @arg @ref LL_EXTI_LINE_4
 377:Drivers/STM32WLxx_HAL_Driver/Inc/stm32wlxx_ll_exti.h ****   *         @arg @ref LL_EXTI_LINE_5
 378:Drivers/STM32WLxx_HAL_Driver/Inc/stm32wlxx_ll_exti.h ****   *         @arg @ref LL_EXTI_LINE_6
 379:Drivers/STM32WLxx_HAL_Driver/Inc/stm32wlxx_ll_exti.h ****   *         @arg @ref LL_EXTI_LINE_7
 380:Drivers/STM32WLxx_HAL_Driver/Inc/stm32wlxx_ll_exti.h ****   *         @arg @ref LL_EXTI_LINE_8
 381:Drivers/STM32WLxx_HAL_Driver/Inc/stm32wlxx_ll_exti.h ****   *         @arg @ref LL_EXTI_LINE_9
 382:Drivers/STM32WLxx_HAL_Driver/Inc/stm32wlxx_ll_exti.h ****   *         @arg @ref LL_EXTI_LINE_10
 383:Drivers/STM32WLxx_HAL_Driver/Inc/stm32wlxx_ll_exti.h ****   *         @arg @ref LL_EXTI_LINE_11
 384:Drivers/STM32WLxx_HAL_Driver/Inc/stm32wlxx_ll_exti.h ****   *         @arg @ref LL_EXTI_LINE_12
 385:Drivers/STM32WLxx_HAL_Driver/Inc/stm32wlxx_ll_exti.h ****   *         @arg @ref LL_EXTI_LINE_13
 386:Drivers/STM32WLxx_HAL_Driver/Inc/stm32wlxx_ll_exti.h ****   *         @arg @ref LL_EXTI_LINE_14
 387:Drivers/STM32WLxx_HAL_Driver/Inc/stm32wlxx_ll_exti.h ****   *         @arg @ref LL_EXTI_LINE_15
 388:Drivers/STM32WLxx_HAL_Driver/Inc/stm32wlxx_ll_exti.h ****   *         @arg @ref LL_EXTI_LINE_16
 389:Drivers/STM32WLxx_HAL_Driver/Inc/stm32wlxx_ll_exti.h ****   *         @arg @ref LL_EXTI_LINE_17
 390:Drivers/STM32WLxx_HAL_Driver/Inc/stm32wlxx_ll_exti.h ****   *         @arg @ref LL_EXTI_LINE_18
 391:Drivers/STM32WLxx_HAL_Driver/Inc/stm32wlxx_ll_exti.h ****   *         @arg @ref LL_EXTI_LINE_19
 392:Drivers/STM32WLxx_HAL_Driver/Inc/stm32wlxx_ll_exti.h ****   *         @arg @ref LL_EXTI_LINE_20
 393:Drivers/STM32WLxx_HAL_Driver/Inc/stm32wlxx_ll_exti.h ****   *         @arg @ref LL_EXTI_LINE_21
 394:Drivers/STM32WLxx_HAL_Driver/Inc/stm32wlxx_ll_exti.h ****   *         @arg @ref LL_EXTI_LINE_22
 395:Drivers/STM32WLxx_HAL_Driver/Inc/stm32wlxx_ll_exti.h ****   *         @arg @ref LL_EXTI_LINE_23
 396:Drivers/STM32WLxx_HAL_Driver/Inc/stm32wlxx_ll_exti.h ****   *         @arg @ref LL_EXTI_LINE_24
 397:Drivers/STM32WLxx_HAL_Driver/Inc/stm32wlxx_ll_exti.h ****   *         @arg @ref LL_EXTI_LINE_25
 398:Drivers/STM32WLxx_HAL_Driver/Inc/stm32wlxx_ll_exti.h ****   *         @arg @ref LL_EXTI_LINE_26
 399:Drivers/STM32WLxx_HAL_Driver/Inc/stm32wlxx_ll_exti.h ****   *         @arg @ref LL_EXTI_LINE_27
 400:Drivers/STM32WLxx_HAL_Driver/Inc/stm32wlxx_ll_exti.h ****   *         @arg @ref LL_EXTI_LINE_28
 401:Drivers/STM32WLxx_HAL_Driver/Inc/stm32wlxx_ll_exti.h ****   *         @arg @ref LL_EXTI_LINE_29
 402:Drivers/STM32WLxx_HAL_Driver/Inc/stm32wlxx_ll_exti.h ****   *         @arg @ref LL_EXTI_LINE_30
 403:Drivers/STM32WLxx_HAL_Driver/Inc/stm32wlxx_ll_exti.h ****   *         @arg @ref LL_EXTI_LINE_31
 404:Drivers/STM32WLxx_HAL_Driver/Inc/stm32wlxx_ll_exti.h ****   *         @arg @ref LL_EXTI_LINE_ALL_0_31
 405:Drivers/STM32WLxx_HAL_Driver/Inc/stm32wlxx_ll_exti.h ****   * @retval None
 406:Drivers/STM32WLxx_HAL_Driver/Inc/stm32wlxx_ll_exti.h ****   */
 407:Drivers/STM32WLxx_HAL_Driver/Inc/stm32wlxx_ll_exti.h **** __STATIC_INLINE void LL_EXTI_DisableIT_0_31(uint32_t ExtiLine)
 408:Drivers/STM32WLxx_HAL_Driver/Inc/stm32wlxx_ll_exti.h **** {
 409:Drivers/STM32WLxx_HAL_Driver/Inc/stm32wlxx_ll_exti.h ****   CLEAR_BIT(EXTI->IMR1, ExtiLine);
 410:Drivers/STM32WLxx_HAL_Driver/Inc/stm32wlxx_ll_exti.h **** }
 411:Drivers/STM32WLxx_HAL_Driver/Inc/stm32wlxx_ll_exti.h **** 
 412:Drivers/STM32WLxx_HAL_Driver/Inc/stm32wlxx_ll_exti.h **** #if defined(DUAL_CORE)
 413:Drivers/STM32WLxx_HAL_Driver/Inc/stm32wlxx_ll_exti.h **** /**
ARM GAS  C:\Users\Lenovo\AppData\Local\Temp\ccLMdYCa.s 			page 43


 414:Drivers/STM32WLxx_HAL_Driver/Inc/stm32wlxx_ll_exti.h ****   * @brief  Disable ExtiLine Interrupt request for Lines in range 0 to 31 for cpu2
 415:Drivers/STM32WLxx_HAL_Driver/Inc/stm32wlxx_ll_exti.h ****   * @rmtoll C2IMR1         IMx           LL_C2_EXTI_DisableIT_0_31
 416:Drivers/STM32WLxx_HAL_Driver/Inc/stm32wlxx_ll_exti.h ****   * @param  ExtiLine This parameter can be one of the following values:
 417:Drivers/STM32WLxx_HAL_Driver/Inc/stm32wlxx_ll_exti.h ****   *         @arg @ref LL_EXTI_LINE_0
 418:Drivers/STM32WLxx_HAL_Driver/Inc/stm32wlxx_ll_exti.h ****   *         @arg @ref LL_EXTI_LINE_1
 419:Drivers/STM32WLxx_HAL_Driver/Inc/stm32wlxx_ll_exti.h ****   *         @arg @ref LL_EXTI_LINE_2
 420:Drivers/STM32WLxx_HAL_Driver/Inc/stm32wlxx_ll_exti.h ****   *         @arg @ref LL_EXTI_LINE_3
 421:Drivers/STM32WLxx_HAL_Driver/Inc/stm32wlxx_ll_exti.h ****   *         @arg @ref LL_EXTI_LINE_4
 422:Drivers/STM32WLxx_HAL_Driver/Inc/stm32wlxx_ll_exti.h ****   *         @arg @ref LL_EXTI_LINE_5
 423:Drivers/STM32WLxx_HAL_Driver/Inc/stm32wlxx_ll_exti.h ****   *         @arg @ref LL_EXTI_LINE_6
 424:Drivers/STM32WLxx_HAL_Driver/Inc/stm32wlxx_ll_exti.h ****   *         @arg @ref LL_EXTI_LINE_7
 425:Drivers/STM32WLxx_HAL_Driver/Inc/stm32wlxx_ll_exti.h ****   *         @arg @ref LL_EXTI_LINE_8
 426:Drivers/STM32WLxx_HAL_Driver/Inc/stm32wlxx_ll_exti.h ****   *         @arg @ref LL_EXTI_LINE_9
 427:Drivers/STM32WLxx_HAL_Driver/Inc/stm32wlxx_ll_exti.h ****   *         @arg @ref LL_EXTI_LINE_10
 428:Drivers/STM32WLxx_HAL_Driver/Inc/stm32wlxx_ll_exti.h ****   *         @arg @ref LL_EXTI_LINE_11
 429:Drivers/STM32WLxx_HAL_Driver/Inc/stm32wlxx_ll_exti.h ****   *         @arg @ref LL_EXTI_LINE_12
 430:Drivers/STM32WLxx_HAL_Driver/Inc/stm32wlxx_ll_exti.h ****   *         @arg @ref LL_EXTI_LINE_13
 431:Drivers/STM32WLxx_HAL_Driver/Inc/stm32wlxx_ll_exti.h ****   *         @arg @ref LL_EXTI_LINE_14
 432:Drivers/STM32WLxx_HAL_Driver/Inc/stm32wlxx_ll_exti.h ****   *         @arg @ref LL_EXTI_LINE_15
 433:Drivers/STM32WLxx_HAL_Driver/Inc/stm32wlxx_ll_exti.h ****   *         @arg @ref LL_EXTI_LINE_16
 434:Drivers/STM32WLxx_HAL_Driver/Inc/stm32wlxx_ll_exti.h ****   *         @arg @ref LL_EXTI_LINE_17
 435:Drivers/STM32WLxx_HAL_Driver/Inc/stm32wlxx_ll_exti.h ****   *         @arg @ref LL_EXTI_LINE_18
 436:Drivers/STM32WLxx_HAL_Driver/Inc/stm32wlxx_ll_exti.h ****   *         @arg @ref LL_EXTI_LINE_19
 437:Drivers/STM32WLxx_HAL_Driver/Inc/stm32wlxx_ll_exti.h ****   *         @arg @ref LL_EXTI_LINE_20
 438:Drivers/STM32WLxx_HAL_Driver/Inc/stm32wlxx_ll_exti.h ****   *         @arg @ref LL_EXTI_LINE_21
 439:Drivers/STM32WLxx_HAL_Driver/Inc/stm32wlxx_ll_exti.h ****   *         @arg @ref LL_EXTI_LINE_22
 440:Drivers/STM32WLxx_HAL_Driver/Inc/stm32wlxx_ll_exti.h ****   *         @arg @ref LL_EXTI_LINE_23
 441:Drivers/STM32WLxx_HAL_Driver/Inc/stm32wlxx_ll_exti.h ****   *         @arg @ref LL_EXTI_LINE_24
 442:Drivers/STM32WLxx_HAL_Driver/Inc/stm32wlxx_ll_exti.h ****   *         @arg @ref LL_EXTI_LINE_25
 443:Drivers/STM32WLxx_HAL_Driver/Inc/stm32wlxx_ll_exti.h ****   *         @arg @ref LL_EXTI_LINE_26
 444:Drivers/STM32WLxx_HAL_Driver/Inc/stm32wlxx_ll_exti.h ****   *         @arg @ref LL_EXTI_LINE_27
 445:Drivers/STM32WLxx_HAL_Driver/Inc/stm32wlxx_ll_exti.h ****   *         @arg @ref LL_EXTI_LINE_28
 446:Drivers/STM32WLxx_HAL_Driver/Inc/stm32wlxx_ll_exti.h ****   *         @arg @ref LL_EXTI_LINE_29
 447:Drivers/STM32WLxx_HAL_Driver/Inc/stm32wlxx_ll_exti.h ****   *         @arg @ref LL_EXTI_LINE_30
 448:Drivers/STM32WLxx_HAL_Driver/Inc/stm32wlxx_ll_exti.h ****   *         @arg @ref LL_EXTI_LINE_31
 449:Drivers/STM32WLxx_HAL_Driver/Inc/stm32wlxx_ll_exti.h ****   *         @arg @ref LL_EXTI_LINE_ALL_0_31
 450:Drivers/STM32WLxx_HAL_Driver/Inc/stm32wlxx_ll_exti.h ****   * @retval None
 451:Drivers/STM32WLxx_HAL_Driver/Inc/stm32wlxx_ll_exti.h ****   */
 452:Drivers/STM32WLxx_HAL_Driver/Inc/stm32wlxx_ll_exti.h **** __STATIC_INLINE void LL_C2_EXTI_DisableIT_0_31(uint32_t ExtiLine)
 453:Drivers/STM32WLxx_HAL_Driver/Inc/stm32wlxx_ll_exti.h **** {
 454:Drivers/STM32WLxx_HAL_Driver/Inc/stm32wlxx_ll_exti.h ****   CLEAR_BIT(EXTI->C2IMR1, ExtiLine);
 455:Drivers/STM32WLxx_HAL_Driver/Inc/stm32wlxx_ll_exti.h **** }
 456:Drivers/STM32WLxx_HAL_Driver/Inc/stm32wlxx_ll_exti.h **** #endif /* DUAL_CORE */
 457:Drivers/STM32WLxx_HAL_Driver/Inc/stm32wlxx_ll_exti.h **** 
 458:Drivers/STM32WLxx_HAL_Driver/Inc/stm32wlxx_ll_exti.h **** /**
 459:Drivers/STM32WLxx_HAL_Driver/Inc/stm32wlxx_ll_exti.h ****   * @brief  Disable ExtiLine Interrupt request for Lines in range 32 to 63
 460:Drivers/STM32WLxx_HAL_Driver/Inc/stm32wlxx_ll_exti.h ****   * @rmtoll IMR2         IMx           LL_EXTI_DisableIT_32_63
 461:Drivers/STM32WLxx_HAL_Driver/Inc/stm32wlxx_ll_exti.h ****   * @param  ExtiLine This parameter can be one of the following values:
 462:Drivers/STM32WLxx_HAL_Driver/Inc/stm32wlxx_ll_exti.h ****   *         @arg @ref LL_EXTI_LINE_34
 463:Drivers/STM32WLxx_HAL_Driver/Inc/stm32wlxx_ll_exti.h ****   *         @arg @ref LL_EXTI_LINE_36 (*)
 464:Drivers/STM32WLxx_HAL_Driver/Inc/stm32wlxx_ll_exti.h ****   *         @arg @ref LL_EXTI_LINE_37 (*)
 465:Drivers/STM32WLxx_HAL_Driver/Inc/stm32wlxx_ll_exti.h ****   *         @arg @ref LL_EXTI_LINE_38
 466:Drivers/STM32WLxx_HAL_Driver/Inc/stm32wlxx_ll_exti.h ****   *         @arg @ref LL_EXTI_LINE_39 (*)
 467:Drivers/STM32WLxx_HAL_Driver/Inc/stm32wlxx_ll_exti.h ****   *         @arg @ref LL_EXTI_LINE_40 (*)
 468:Drivers/STM32WLxx_HAL_Driver/Inc/stm32wlxx_ll_exti.h ****   *         @arg @ref LL_EXTI_LINE_41 (*)
 469:Drivers/STM32WLxx_HAL_Driver/Inc/stm32wlxx_ll_exti.h ****   *         @arg @ref LL_EXTI_LINE_42
 470:Drivers/STM32WLxx_HAL_Driver/Inc/stm32wlxx_ll_exti.h ****   *         @arg @ref LL_EXTI_LINE_43
ARM GAS  C:\Users\Lenovo\AppData\Local\Temp\ccLMdYCa.s 			page 44


 471:Drivers/STM32WLxx_HAL_Driver/Inc/stm32wlxx_ll_exti.h ****   *         @arg @ref LL_EXTI_LINE_44
 472:Drivers/STM32WLxx_HAL_Driver/Inc/stm32wlxx_ll_exti.h ****   *         @arg @ref LL_EXTI_LINE_45
 473:Drivers/STM32WLxx_HAL_Driver/Inc/stm32wlxx_ll_exti.h ****   *         @arg @ref LL_EXTI_LINE_46
 474:Drivers/STM32WLxx_HAL_Driver/Inc/stm32wlxx_ll_exti.h ****   *         @arg @ref LL_EXTI_LINE_ALL_32_63
 475:Drivers/STM32WLxx_HAL_Driver/Inc/stm32wlxx_ll_exti.h ****   *         (*) value not defined in all devices
 476:Drivers/STM32WLxx_HAL_Driver/Inc/stm32wlxx_ll_exti.h ****   * @retval None
 477:Drivers/STM32WLxx_HAL_Driver/Inc/stm32wlxx_ll_exti.h ****   */
 478:Drivers/STM32WLxx_HAL_Driver/Inc/stm32wlxx_ll_exti.h **** __STATIC_INLINE void LL_EXTI_DisableIT_32_63(uint32_t ExtiLine)
 479:Drivers/STM32WLxx_HAL_Driver/Inc/stm32wlxx_ll_exti.h **** {
 508              		.loc 2 479 1
 509              		.cfi_startproc
 510              		@ args = 0, pretend = 0, frame = 8
 511              		@ frame_needed = 1, uses_anonymous_args = 0
 512              		@ link register save eliminated.
 513 0000 80B4     		push	{r7}
 514              	.LCFI48:
 515              		.cfi_def_cfa_offset 4
 516              		.cfi_offset 7, -4
 517 0002 83B0     		sub	sp, sp, #12
 518              	.LCFI49:
 519              		.cfi_def_cfa_offset 16
 520 0004 00AF     		add	r7, sp, #0
 521              	.LCFI50:
 522              		.cfi_def_cfa_register 7
 523 0006 7860     		str	r0, [r7, #4]
 480:Drivers/STM32WLxx_HAL_Driver/Inc/stm32wlxx_ll_exti.h ****   CLEAR_BIT(EXTI->IMR2, ExtiLine);
 524              		.loc 2 480 3
 525 0008 064B     		ldr	r3, .L32
 526 000a D3F89020 		ldr	r2, [r3, #144]
 527 000e 7B68     		ldr	r3, [r7, #4]
 528 0010 DB43     		mvns	r3, r3
 529 0012 0449     		ldr	r1, .L32
 530 0014 1340     		ands	r3, r3, r2
 531 0016 C1F89030 		str	r3, [r1, #144]
 481:Drivers/STM32WLxx_HAL_Driver/Inc/stm32wlxx_ll_exti.h **** }
 532              		.loc 2 481 1
 533 001a 00BF     		nop
 534 001c 0C37     		adds	r7, r7, #12
 535              	.LCFI51:
 536              		.cfi_def_cfa_offset 4
 537 001e BD46     		mov	sp, r7
 538              	.LCFI52:
 539              		.cfi_def_cfa_register 13
 540              		@ sp needed
 541 0020 80BC     		pop	{r7}
 542              	.LCFI53:
 543              		.cfi_restore 7
 544              		.cfi_def_cfa_offset 0
 545 0022 7047     		bx	lr
 546              	.L33:
 547              		.align	2
 548              	.L32:
 549 0024 00080058 		.word	1476397056
 550              		.cfi_endproc
 551              	.LFE718:
 553              		.section	.text.LL_EXTI_DisableEvent_32_63,"ax",%progbits
 554              		.align	1
ARM GAS  C:\Users\Lenovo\AppData\Local\Temp\ccLMdYCa.s 			page 45


 555              		.syntax unified
 556              		.thumb
 557              		.thumb_func
 559              	LL_EXTI_DisableEvent_32_63:
 560              	.LFB730:
 482:Drivers/STM32WLxx_HAL_Driver/Inc/stm32wlxx_ll_exti.h **** 
 483:Drivers/STM32WLxx_HAL_Driver/Inc/stm32wlxx_ll_exti.h **** #if defined(DUAL_CORE)
 484:Drivers/STM32WLxx_HAL_Driver/Inc/stm32wlxx_ll_exti.h **** /**
 485:Drivers/STM32WLxx_HAL_Driver/Inc/stm32wlxx_ll_exti.h ****   * @brief  Disable ExtiLine Interrupt request for Lines in range 32 to 63 for cpu2
 486:Drivers/STM32WLxx_HAL_Driver/Inc/stm32wlxx_ll_exti.h ****   * @rmtoll C2IMR2         IMx           LL_C2_EXTI_DisableIT_32_63
 487:Drivers/STM32WLxx_HAL_Driver/Inc/stm32wlxx_ll_exti.h ****   * @param  ExtiLine This parameter can be one of the following values:
 488:Drivers/STM32WLxx_HAL_Driver/Inc/stm32wlxx_ll_exti.h ****   *         @arg @ref LL_EXTI_LINE_34
 489:Drivers/STM32WLxx_HAL_Driver/Inc/stm32wlxx_ll_exti.h ****   *         @arg @ref LL_EXTI_LINE_36 (*)
 490:Drivers/STM32WLxx_HAL_Driver/Inc/stm32wlxx_ll_exti.h ****   *         @arg @ref LL_EXTI_LINE_37 (*)
 491:Drivers/STM32WLxx_HAL_Driver/Inc/stm32wlxx_ll_exti.h ****   *         @arg @ref LL_EXTI_LINE_38
 492:Drivers/STM32WLxx_HAL_Driver/Inc/stm32wlxx_ll_exti.h ****   *         @arg @ref LL_EXTI_LINE_39 (*)
 493:Drivers/STM32WLxx_HAL_Driver/Inc/stm32wlxx_ll_exti.h ****   *         @arg @ref LL_EXTI_LINE_40 (*)
 494:Drivers/STM32WLxx_HAL_Driver/Inc/stm32wlxx_ll_exti.h ****   *         @arg @ref LL_EXTI_LINE_41 (*)
 495:Drivers/STM32WLxx_HAL_Driver/Inc/stm32wlxx_ll_exti.h ****   *         @arg @ref LL_EXTI_LINE_42
 496:Drivers/STM32WLxx_HAL_Driver/Inc/stm32wlxx_ll_exti.h ****   *         @arg @ref LL_EXTI_LINE_43
 497:Drivers/STM32WLxx_HAL_Driver/Inc/stm32wlxx_ll_exti.h ****   *         @arg @ref LL_EXTI_LINE_44
 498:Drivers/STM32WLxx_HAL_Driver/Inc/stm32wlxx_ll_exti.h ****   *         @arg @ref LL_EXTI_LINE_45
 499:Drivers/STM32WLxx_HAL_Driver/Inc/stm32wlxx_ll_exti.h ****   *         @arg @ref LL_EXTI_LINE_46
 500:Drivers/STM32WLxx_HAL_Driver/Inc/stm32wlxx_ll_exti.h ****   *         @arg @ref LL_EXTI_LINE_ALL_32_63
 501:Drivers/STM32WLxx_HAL_Driver/Inc/stm32wlxx_ll_exti.h ****   *         (*) value not defined in all devices
 502:Drivers/STM32WLxx_HAL_Driver/Inc/stm32wlxx_ll_exti.h ****   * @retval None
 503:Drivers/STM32WLxx_HAL_Driver/Inc/stm32wlxx_ll_exti.h ****   */
 504:Drivers/STM32WLxx_HAL_Driver/Inc/stm32wlxx_ll_exti.h **** __STATIC_INLINE void LL_C2_EXTI_DisableIT_32_63(uint32_t ExtiLine)
 505:Drivers/STM32WLxx_HAL_Driver/Inc/stm32wlxx_ll_exti.h **** {
 506:Drivers/STM32WLxx_HAL_Driver/Inc/stm32wlxx_ll_exti.h ****   CLEAR_BIT(EXTI->C2IMR2, ExtiLine);
 507:Drivers/STM32WLxx_HAL_Driver/Inc/stm32wlxx_ll_exti.h **** }
 508:Drivers/STM32WLxx_HAL_Driver/Inc/stm32wlxx_ll_exti.h **** #endif /* DUAL_CORE */
 509:Drivers/STM32WLxx_HAL_Driver/Inc/stm32wlxx_ll_exti.h **** 
 510:Drivers/STM32WLxx_HAL_Driver/Inc/stm32wlxx_ll_exti.h **** /**
 511:Drivers/STM32WLxx_HAL_Driver/Inc/stm32wlxx_ll_exti.h ****   * @brief  Indicate if ExtiLine Interrupt request is enabled for Lines in range 0 to 31
 512:Drivers/STM32WLxx_HAL_Driver/Inc/stm32wlxx_ll_exti.h ****   * @rmtoll IMR1         IMx           LL_EXTI_IsEnabledIT_0_31
 513:Drivers/STM32WLxx_HAL_Driver/Inc/stm32wlxx_ll_exti.h ****   * @param  ExtiLine This parameter can be one of the following values:
 514:Drivers/STM32WLxx_HAL_Driver/Inc/stm32wlxx_ll_exti.h ****   *         @arg @ref LL_EXTI_LINE_0
 515:Drivers/STM32WLxx_HAL_Driver/Inc/stm32wlxx_ll_exti.h ****   *         @arg @ref LL_EXTI_LINE_1
 516:Drivers/STM32WLxx_HAL_Driver/Inc/stm32wlxx_ll_exti.h ****   *         @arg @ref LL_EXTI_LINE_2
 517:Drivers/STM32WLxx_HAL_Driver/Inc/stm32wlxx_ll_exti.h ****   *         @arg @ref LL_EXTI_LINE_3
 518:Drivers/STM32WLxx_HAL_Driver/Inc/stm32wlxx_ll_exti.h ****   *         @arg @ref LL_EXTI_LINE_4
 519:Drivers/STM32WLxx_HAL_Driver/Inc/stm32wlxx_ll_exti.h ****   *         @arg @ref LL_EXTI_LINE_5
 520:Drivers/STM32WLxx_HAL_Driver/Inc/stm32wlxx_ll_exti.h ****   *         @arg @ref LL_EXTI_LINE_6
 521:Drivers/STM32WLxx_HAL_Driver/Inc/stm32wlxx_ll_exti.h ****   *         @arg @ref LL_EXTI_LINE_7
 522:Drivers/STM32WLxx_HAL_Driver/Inc/stm32wlxx_ll_exti.h ****   *         @arg @ref LL_EXTI_LINE_8
 523:Drivers/STM32WLxx_HAL_Driver/Inc/stm32wlxx_ll_exti.h ****   *         @arg @ref LL_EXTI_LINE_9
 524:Drivers/STM32WLxx_HAL_Driver/Inc/stm32wlxx_ll_exti.h ****   *         @arg @ref LL_EXTI_LINE_10
 525:Drivers/STM32WLxx_HAL_Driver/Inc/stm32wlxx_ll_exti.h ****   *         @arg @ref LL_EXTI_LINE_11
 526:Drivers/STM32WLxx_HAL_Driver/Inc/stm32wlxx_ll_exti.h ****   *         @arg @ref LL_EXTI_LINE_12
 527:Drivers/STM32WLxx_HAL_Driver/Inc/stm32wlxx_ll_exti.h ****   *         @arg @ref LL_EXTI_LINE_13
 528:Drivers/STM32WLxx_HAL_Driver/Inc/stm32wlxx_ll_exti.h ****   *         @arg @ref LL_EXTI_LINE_14
 529:Drivers/STM32WLxx_HAL_Driver/Inc/stm32wlxx_ll_exti.h ****   *         @arg @ref LL_EXTI_LINE_15
 530:Drivers/STM32WLxx_HAL_Driver/Inc/stm32wlxx_ll_exti.h ****   *         @arg @ref LL_EXTI_LINE_16
 531:Drivers/STM32WLxx_HAL_Driver/Inc/stm32wlxx_ll_exti.h ****   *         @arg @ref LL_EXTI_LINE_17
 532:Drivers/STM32WLxx_HAL_Driver/Inc/stm32wlxx_ll_exti.h ****   *         @arg @ref LL_EXTI_LINE_18
 533:Drivers/STM32WLxx_HAL_Driver/Inc/stm32wlxx_ll_exti.h ****   *         @arg @ref LL_EXTI_LINE_19
ARM GAS  C:\Users\Lenovo\AppData\Local\Temp\ccLMdYCa.s 			page 46


 534:Drivers/STM32WLxx_HAL_Driver/Inc/stm32wlxx_ll_exti.h ****   *         @arg @ref LL_EXTI_LINE_20
 535:Drivers/STM32WLxx_HAL_Driver/Inc/stm32wlxx_ll_exti.h ****   *         @arg @ref LL_EXTI_LINE_21
 536:Drivers/STM32WLxx_HAL_Driver/Inc/stm32wlxx_ll_exti.h ****   *         @arg @ref LL_EXTI_LINE_22
 537:Drivers/STM32WLxx_HAL_Driver/Inc/stm32wlxx_ll_exti.h ****   *         @arg @ref LL_EXTI_LINE_23
 538:Drivers/STM32WLxx_HAL_Driver/Inc/stm32wlxx_ll_exti.h ****   *         @arg @ref LL_EXTI_LINE_24
 539:Drivers/STM32WLxx_HAL_Driver/Inc/stm32wlxx_ll_exti.h ****   *         @arg @ref LL_EXTI_LINE_25
 540:Drivers/STM32WLxx_HAL_Driver/Inc/stm32wlxx_ll_exti.h ****   *         @arg @ref LL_EXTI_LINE_26
 541:Drivers/STM32WLxx_HAL_Driver/Inc/stm32wlxx_ll_exti.h ****   *         @arg @ref LL_EXTI_LINE_27
 542:Drivers/STM32WLxx_HAL_Driver/Inc/stm32wlxx_ll_exti.h ****   *         @arg @ref LL_EXTI_LINE_28
 543:Drivers/STM32WLxx_HAL_Driver/Inc/stm32wlxx_ll_exti.h ****   *         @arg @ref LL_EXTI_LINE_29
 544:Drivers/STM32WLxx_HAL_Driver/Inc/stm32wlxx_ll_exti.h ****   *         @arg @ref LL_EXTI_LINE_30
 545:Drivers/STM32WLxx_HAL_Driver/Inc/stm32wlxx_ll_exti.h ****   *         @arg @ref LL_EXTI_LINE_31
 546:Drivers/STM32WLxx_HAL_Driver/Inc/stm32wlxx_ll_exti.h ****   *         @arg @ref LL_EXTI_LINE_ALL_0_31
 547:Drivers/STM32WLxx_HAL_Driver/Inc/stm32wlxx_ll_exti.h ****   * @retval State of bit (1 or 0).
 548:Drivers/STM32WLxx_HAL_Driver/Inc/stm32wlxx_ll_exti.h ****   */
 549:Drivers/STM32WLxx_HAL_Driver/Inc/stm32wlxx_ll_exti.h **** __STATIC_INLINE uint32_t LL_EXTI_IsEnabledIT_0_31(uint32_t ExtiLine)
 550:Drivers/STM32WLxx_HAL_Driver/Inc/stm32wlxx_ll_exti.h **** {
 551:Drivers/STM32WLxx_HAL_Driver/Inc/stm32wlxx_ll_exti.h ****   return ((READ_BIT(EXTI->IMR1, ExtiLine) == (ExtiLine)) ? 1UL : 0UL);
 552:Drivers/STM32WLxx_HAL_Driver/Inc/stm32wlxx_ll_exti.h **** }
 553:Drivers/STM32WLxx_HAL_Driver/Inc/stm32wlxx_ll_exti.h **** 
 554:Drivers/STM32WLxx_HAL_Driver/Inc/stm32wlxx_ll_exti.h **** #if defined(DUAL_CORE)
 555:Drivers/STM32WLxx_HAL_Driver/Inc/stm32wlxx_ll_exti.h **** /**
 556:Drivers/STM32WLxx_HAL_Driver/Inc/stm32wlxx_ll_exti.h ****   * @brief  Indicate if ExtiLine Interrupt request is enabled for Lines in range 0 to 31 for cpu2
 557:Drivers/STM32WLxx_HAL_Driver/Inc/stm32wlxx_ll_exti.h ****   * @rmtoll C2IMR1         IMx           LL_C2_EXTI_IsEnabledIT_0_31
 558:Drivers/STM32WLxx_HAL_Driver/Inc/stm32wlxx_ll_exti.h ****   * @param  ExtiLine This parameter can be one of the following values:
 559:Drivers/STM32WLxx_HAL_Driver/Inc/stm32wlxx_ll_exti.h ****   *         @arg @ref LL_EXTI_LINE_0
 560:Drivers/STM32WLxx_HAL_Driver/Inc/stm32wlxx_ll_exti.h ****   *         @arg @ref LL_EXTI_LINE_1
 561:Drivers/STM32WLxx_HAL_Driver/Inc/stm32wlxx_ll_exti.h ****   *         @arg @ref LL_EXTI_LINE_2
 562:Drivers/STM32WLxx_HAL_Driver/Inc/stm32wlxx_ll_exti.h ****   *         @arg @ref LL_EXTI_LINE_3
 563:Drivers/STM32WLxx_HAL_Driver/Inc/stm32wlxx_ll_exti.h ****   *         @arg @ref LL_EXTI_LINE_4
 564:Drivers/STM32WLxx_HAL_Driver/Inc/stm32wlxx_ll_exti.h ****   *         @arg @ref LL_EXTI_LINE_5
 565:Drivers/STM32WLxx_HAL_Driver/Inc/stm32wlxx_ll_exti.h ****   *         @arg @ref LL_EXTI_LINE_6
 566:Drivers/STM32WLxx_HAL_Driver/Inc/stm32wlxx_ll_exti.h ****   *         @arg @ref LL_EXTI_LINE_7
 567:Drivers/STM32WLxx_HAL_Driver/Inc/stm32wlxx_ll_exti.h ****   *         @arg @ref LL_EXTI_LINE_8
 568:Drivers/STM32WLxx_HAL_Driver/Inc/stm32wlxx_ll_exti.h ****   *         @arg @ref LL_EXTI_LINE_9
 569:Drivers/STM32WLxx_HAL_Driver/Inc/stm32wlxx_ll_exti.h ****   *         @arg @ref LL_EXTI_LINE_10
 570:Drivers/STM32WLxx_HAL_Driver/Inc/stm32wlxx_ll_exti.h ****   *         @arg @ref LL_EXTI_LINE_11
 571:Drivers/STM32WLxx_HAL_Driver/Inc/stm32wlxx_ll_exti.h ****   *         @arg @ref LL_EXTI_LINE_12
 572:Drivers/STM32WLxx_HAL_Driver/Inc/stm32wlxx_ll_exti.h ****   *         @arg @ref LL_EXTI_LINE_13
 573:Drivers/STM32WLxx_HAL_Driver/Inc/stm32wlxx_ll_exti.h ****   *         @arg @ref LL_EXTI_LINE_14
 574:Drivers/STM32WLxx_HAL_Driver/Inc/stm32wlxx_ll_exti.h ****   *         @arg @ref LL_EXTI_LINE_15
 575:Drivers/STM32WLxx_HAL_Driver/Inc/stm32wlxx_ll_exti.h ****   *         @arg @ref LL_EXTI_LINE_16
 576:Drivers/STM32WLxx_HAL_Driver/Inc/stm32wlxx_ll_exti.h ****   *         @arg @ref LL_EXTI_LINE_17
 577:Drivers/STM32WLxx_HAL_Driver/Inc/stm32wlxx_ll_exti.h ****   *         @arg @ref LL_EXTI_LINE_18
 578:Drivers/STM32WLxx_HAL_Driver/Inc/stm32wlxx_ll_exti.h ****   *         @arg @ref LL_EXTI_LINE_19
 579:Drivers/STM32WLxx_HAL_Driver/Inc/stm32wlxx_ll_exti.h ****   *         @arg @ref LL_EXTI_LINE_20
 580:Drivers/STM32WLxx_HAL_Driver/Inc/stm32wlxx_ll_exti.h ****   *         @arg @ref LL_EXTI_LINE_21
 581:Drivers/STM32WLxx_HAL_Driver/Inc/stm32wlxx_ll_exti.h ****   *         @arg @ref LL_EXTI_LINE_22
 582:Drivers/STM32WLxx_HAL_Driver/Inc/stm32wlxx_ll_exti.h ****   *         @arg @ref LL_EXTI_LINE_23
 583:Drivers/STM32WLxx_HAL_Driver/Inc/stm32wlxx_ll_exti.h ****   *         @arg @ref LL_EXTI_LINE_24
 584:Drivers/STM32WLxx_HAL_Driver/Inc/stm32wlxx_ll_exti.h ****   *         @arg @ref LL_EXTI_LINE_25
 585:Drivers/STM32WLxx_HAL_Driver/Inc/stm32wlxx_ll_exti.h ****   *         @arg @ref LL_EXTI_LINE_26
 586:Drivers/STM32WLxx_HAL_Driver/Inc/stm32wlxx_ll_exti.h ****   *         @arg @ref LL_EXTI_LINE_27
 587:Drivers/STM32WLxx_HAL_Driver/Inc/stm32wlxx_ll_exti.h ****   *         @arg @ref LL_EXTI_LINE_28
 588:Drivers/STM32WLxx_HAL_Driver/Inc/stm32wlxx_ll_exti.h ****   *         @arg @ref LL_EXTI_LINE_29
 589:Drivers/STM32WLxx_HAL_Driver/Inc/stm32wlxx_ll_exti.h ****   *         @arg @ref LL_EXTI_LINE_30
 590:Drivers/STM32WLxx_HAL_Driver/Inc/stm32wlxx_ll_exti.h ****   *         @arg @ref LL_EXTI_LINE_31
ARM GAS  C:\Users\Lenovo\AppData\Local\Temp\ccLMdYCa.s 			page 47


 591:Drivers/STM32WLxx_HAL_Driver/Inc/stm32wlxx_ll_exti.h ****   *         @arg @ref LL_EXTI_LINE_ALL_0_31
 592:Drivers/STM32WLxx_HAL_Driver/Inc/stm32wlxx_ll_exti.h ****   * @retval State of bit (1 or 0).
 593:Drivers/STM32WLxx_HAL_Driver/Inc/stm32wlxx_ll_exti.h ****   */
 594:Drivers/STM32WLxx_HAL_Driver/Inc/stm32wlxx_ll_exti.h **** __STATIC_INLINE uint32_t LL_C2_EXTI_IsEnabledIT_0_31(uint32_t ExtiLine)
 595:Drivers/STM32WLxx_HAL_Driver/Inc/stm32wlxx_ll_exti.h **** {
 596:Drivers/STM32WLxx_HAL_Driver/Inc/stm32wlxx_ll_exti.h ****   return ((READ_BIT(EXTI->C2IMR1, ExtiLine) == (ExtiLine)) ? 1UL : 0UL);
 597:Drivers/STM32WLxx_HAL_Driver/Inc/stm32wlxx_ll_exti.h **** }
 598:Drivers/STM32WLxx_HAL_Driver/Inc/stm32wlxx_ll_exti.h **** #endif /* DUAL_CORE */
 599:Drivers/STM32WLxx_HAL_Driver/Inc/stm32wlxx_ll_exti.h **** 
 600:Drivers/STM32WLxx_HAL_Driver/Inc/stm32wlxx_ll_exti.h **** /**
 601:Drivers/STM32WLxx_HAL_Driver/Inc/stm32wlxx_ll_exti.h ****   * @brief  Indicate if ExtiLine Interrupt request is enabled for Lines in range 32 to 63
 602:Drivers/STM32WLxx_HAL_Driver/Inc/stm32wlxx_ll_exti.h ****   * @rmtoll IMR2         IMx           LL_EXTI_IsEnabledIT_32_63
 603:Drivers/STM32WLxx_HAL_Driver/Inc/stm32wlxx_ll_exti.h ****   * @param  ExtiLine This parameter can be one of the following values:
 604:Drivers/STM32WLxx_HAL_Driver/Inc/stm32wlxx_ll_exti.h ****   *         @arg @ref LL_EXTI_LINE_34
 605:Drivers/STM32WLxx_HAL_Driver/Inc/stm32wlxx_ll_exti.h ****   *         @arg @ref LL_EXTI_LINE_36 (*)
 606:Drivers/STM32WLxx_HAL_Driver/Inc/stm32wlxx_ll_exti.h ****   *         @arg @ref LL_EXTI_LINE_37 (*)
 607:Drivers/STM32WLxx_HAL_Driver/Inc/stm32wlxx_ll_exti.h ****   *         @arg @ref LL_EXTI_LINE_38
 608:Drivers/STM32WLxx_HAL_Driver/Inc/stm32wlxx_ll_exti.h ****   *         @arg @ref LL_EXTI_LINE_39 (*)
 609:Drivers/STM32WLxx_HAL_Driver/Inc/stm32wlxx_ll_exti.h ****   *         @arg @ref LL_EXTI_LINE_40 (*)
 610:Drivers/STM32WLxx_HAL_Driver/Inc/stm32wlxx_ll_exti.h ****   *         @arg @ref LL_EXTI_LINE_41 (*)
 611:Drivers/STM32WLxx_HAL_Driver/Inc/stm32wlxx_ll_exti.h ****   *         @arg @ref LL_EXTI_LINE_42
 612:Drivers/STM32WLxx_HAL_Driver/Inc/stm32wlxx_ll_exti.h ****   *         @arg @ref LL_EXTI_LINE_43
 613:Drivers/STM32WLxx_HAL_Driver/Inc/stm32wlxx_ll_exti.h ****   *         @arg @ref LL_EXTI_LINE_44
 614:Drivers/STM32WLxx_HAL_Driver/Inc/stm32wlxx_ll_exti.h ****   *         @arg @ref LL_EXTI_LINE_45
 615:Drivers/STM32WLxx_HAL_Driver/Inc/stm32wlxx_ll_exti.h ****   *         @arg @ref LL_EXTI_LINE_46
 616:Drivers/STM32WLxx_HAL_Driver/Inc/stm32wlxx_ll_exti.h ****   *         @arg @ref LL_EXTI_LINE_ALL_32_63
 617:Drivers/STM32WLxx_HAL_Driver/Inc/stm32wlxx_ll_exti.h ****   *         (*) value not defined in all devices
 618:Drivers/STM32WLxx_HAL_Driver/Inc/stm32wlxx_ll_exti.h ****   * @retval State of bit (1 or 0).
 619:Drivers/STM32WLxx_HAL_Driver/Inc/stm32wlxx_ll_exti.h ****   */
 620:Drivers/STM32WLxx_HAL_Driver/Inc/stm32wlxx_ll_exti.h **** __STATIC_INLINE uint32_t LL_EXTI_IsEnabledIT_32_63(uint32_t ExtiLine)
 621:Drivers/STM32WLxx_HAL_Driver/Inc/stm32wlxx_ll_exti.h **** {
 622:Drivers/STM32WLxx_HAL_Driver/Inc/stm32wlxx_ll_exti.h ****   return ((READ_BIT(EXTI->IMR2, ExtiLine) == (ExtiLine)) ? 1UL : 0UL);
 623:Drivers/STM32WLxx_HAL_Driver/Inc/stm32wlxx_ll_exti.h **** }
 624:Drivers/STM32WLxx_HAL_Driver/Inc/stm32wlxx_ll_exti.h **** 
 625:Drivers/STM32WLxx_HAL_Driver/Inc/stm32wlxx_ll_exti.h **** #if defined(DUAL_CORE)
 626:Drivers/STM32WLxx_HAL_Driver/Inc/stm32wlxx_ll_exti.h **** /**
 627:Drivers/STM32WLxx_HAL_Driver/Inc/stm32wlxx_ll_exti.h ****   * @brief  Indicate if ExtiLine Interrupt request is enabled for Lines in range 32 to 63 for cpu2
 628:Drivers/STM32WLxx_HAL_Driver/Inc/stm32wlxx_ll_exti.h ****   * @rmtoll C2IMR2         IMx           LL_C2_EXTI_IsEnabledIT_32_63
 629:Drivers/STM32WLxx_HAL_Driver/Inc/stm32wlxx_ll_exti.h ****   * @param  ExtiLine This parameter can be one of the following values:
 630:Drivers/STM32WLxx_HAL_Driver/Inc/stm32wlxx_ll_exti.h ****   *         @arg @ref LL_EXTI_LINE_34
 631:Drivers/STM32WLxx_HAL_Driver/Inc/stm32wlxx_ll_exti.h ****   *         @arg @ref LL_EXTI_LINE_36 (*)
 632:Drivers/STM32WLxx_HAL_Driver/Inc/stm32wlxx_ll_exti.h ****   *         @arg @ref LL_EXTI_LINE_37 (*)
 633:Drivers/STM32WLxx_HAL_Driver/Inc/stm32wlxx_ll_exti.h ****   *         @arg @ref LL_EXTI_LINE_38
 634:Drivers/STM32WLxx_HAL_Driver/Inc/stm32wlxx_ll_exti.h ****   *         @arg @ref LL_EXTI_LINE_39 (*)
 635:Drivers/STM32WLxx_HAL_Driver/Inc/stm32wlxx_ll_exti.h ****   *         @arg @ref LL_EXTI_LINE_40 (*)
 636:Drivers/STM32WLxx_HAL_Driver/Inc/stm32wlxx_ll_exti.h ****   *         @arg @ref LL_EXTI_LINE_41 (*)
 637:Drivers/STM32WLxx_HAL_Driver/Inc/stm32wlxx_ll_exti.h ****   *         @arg @ref LL_EXTI_LINE_42
 638:Drivers/STM32WLxx_HAL_Driver/Inc/stm32wlxx_ll_exti.h ****   *         @arg @ref LL_EXTI_LINE_43
 639:Drivers/STM32WLxx_HAL_Driver/Inc/stm32wlxx_ll_exti.h ****   *         @arg @ref LL_EXTI_LINE_44
 640:Drivers/STM32WLxx_HAL_Driver/Inc/stm32wlxx_ll_exti.h ****   *         @arg @ref LL_EXTI_LINE_45
 641:Drivers/STM32WLxx_HAL_Driver/Inc/stm32wlxx_ll_exti.h ****   *         @arg @ref LL_EXTI_LINE_46
 642:Drivers/STM32WLxx_HAL_Driver/Inc/stm32wlxx_ll_exti.h ****   *         @arg @ref LL_EXTI_LINE_ALL_32_63
 643:Drivers/STM32WLxx_HAL_Driver/Inc/stm32wlxx_ll_exti.h ****   *         (*) value not defined in all devices
 644:Drivers/STM32WLxx_HAL_Driver/Inc/stm32wlxx_ll_exti.h ****   * @retval State of bit (1 or 0).
 645:Drivers/STM32WLxx_HAL_Driver/Inc/stm32wlxx_ll_exti.h ****   */
 646:Drivers/STM32WLxx_HAL_Driver/Inc/stm32wlxx_ll_exti.h **** __STATIC_INLINE uint32_t LL_C2_EXTI_IsEnabledIT_32_63(uint32_t ExtiLine)
 647:Drivers/STM32WLxx_HAL_Driver/Inc/stm32wlxx_ll_exti.h **** {
ARM GAS  C:\Users\Lenovo\AppData\Local\Temp\ccLMdYCa.s 			page 48


 648:Drivers/STM32WLxx_HAL_Driver/Inc/stm32wlxx_ll_exti.h ****   return ((READ_BIT(EXTI->C2IMR2, ExtiLine) == (ExtiLine)) ? 1UL : 0UL);
 649:Drivers/STM32WLxx_HAL_Driver/Inc/stm32wlxx_ll_exti.h **** }
 650:Drivers/STM32WLxx_HAL_Driver/Inc/stm32wlxx_ll_exti.h **** #endif /* DUAL_CORE */
 651:Drivers/STM32WLxx_HAL_Driver/Inc/stm32wlxx_ll_exti.h **** 
 652:Drivers/STM32WLxx_HAL_Driver/Inc/stm32wlxx_ll_exti.h **** /**
 653:Drivers/STM32WLxx_HAL_Driver/Inc/stm32wlxx_ll_exti.h ****   * @}
 654:Drivers/STM32WLxx_HAL_Driver/Inc/stm32wlxx_ll_exti.h ****   */
 655:Drivers/STM32WLxx_HAL_Driver/Inc/stm32wlxx_ll_exti.h **** 
 656:Drivers/STM32WLxx_HAL_Driver/Inc/stm32wlxx_ll_exti.h **** /** @defgroup EXTI_LL_EF_Event_Management Event_Management
 657:Drivers/STM32WLxx_HAL_Driver/Inc/stm32wlxx_ll_exti.h ****   * @{
 658:Drivers/STM32WLxx_HAL_Driver/Inc/stm32wlxx_ll_exti.h ****   */
 659:Drivers/STM32WLxx_HAL_Driver/Inc/stm32wlxx_ll_exti.h **** 
 660:Drivers/STM32WLxx_HAL_Driver/Inc/stm32wlxx_ll_exti.h **** /**
 661:Drivers/STM32WLxx_HAL_Driver/Inc/stm32wlxx_ll_exti.h ****   * @brief  Enable ExtiLine Event request for Lines in range 0 to 31
 662:Drivers/STM32WLxx_HAL_Driver/Inc/stm32wlxx_ll_exti.h ****   * @rmtoll EMR1         EMx           LL_EXTI_EnableEvent_0_31
 663:Drivers/STM32WLxx_HAL_Driver/Inc/stm32wlxx_ll_exti.h ****   * @param  ExtiLine This parameter can be one of the following values:
 664:Drivers/STM32WLxx_HAL_Driver/Inc/stm32wlxx_ll_exti.h ****   *         @arg @ref LL_EXTI_LINE_0
 665:Drivers/STM32WLxx_HAL_Driver/Inc/stm32wlxx_ll_exti.h ****   *         @arg @ref LL_EXTI_LINE_1
 666:Drivers/STM32WLxx_HAL_Driver/Inc/stm32wlxx_ll_exti.h ****   *         @arg @ref LL_EXTI_LINE_2
 667:Drivers/STM32WLxx_HAL_Driver/Inc/stm32wlxx_ll_exti.h ****   *         @arg @ref LL_EXTI_LINE_3
 668:Drivers/STM32WLxx_HAL_Driver/Inc/stm32wlxx_ll_exti.h ****   *         @arg @ref LL_EXTI_LINE_4
 669:Drivers/STM32WLxx_HAL_Driver/Inc/stm32wlxx_ll_exti.h ****   *         @arg @ref LL_EXTI_LINE_5
 670:Drivers/STM32WLxx_HAL_Driver/Inc/stm32wlxx_ll_exti.h ****   *         @arg @ref LL_EXTI_LINE_6
 671:Drivers/STM32WLxx_HAL_Driver/Inc/stm32wlxx_ll_exti.h ****   *         @arg @ref LL_EXTI_LINE_7
 672:Drivers/STM32WLxx_HAL_Driver/Inc/stm32wlxx_ll_exti.h ****   *         @arg @ref LL_EXTI_LINE_8
 673:Drivers/STM32WLxx_HAL_Driver/Inc/stm32wlxx_ll_exti.h ****   *         @arg @ref LL_EXTI_LINE_9
 674:Drivers/STM32WLxx_HAL_Driver/Inc/stm32wlxx_ll_exti.h ****   *         @arg @ref LL_EXTI_LINE_10
 675:Drivers/STM32WLxx_HAL_Driver/Inc/stm32wlxx_ll_exti.h ****   *         @arg @ref LL_EXTI_LINE_11
 676:Drivers/STM32WLxx_HAL_Driver/Inc/stm32wlxx_ll_exti.h ****   *         @arg @ref LL_EXTI_LINE_12
 677:Drivers/STM32WLxx_HAL_Driver/Inc/stm32wlxx_ll_exti.h ****   *         @arg @ref LL_EXTI_LINE_13
 678:Drivers/STM32WLxx_HAL_Driver/Inc/stm32wlxx_ll_exti.h ****   *         @arg @ref LL_EXTI_LINE_14
 679:Drivers/STM32WLxx_HAL_Driver/Inc/stm32wlxx_ll_exti.h ****   *         @arg @ref LL_EXTI_LINE_15
 680:Drivers/STM32WLxx_HAL_Driver/Inc/stm32wlxx_ll_exti.h ****   *         @arg @ref LL_EXTI_LINE_17
 681:Drivers/STM32WLxx_HAL_Driver/Inc/stm32wlxx_ll_exti.h ****   *         @arg @ref LL_EXTI_LINE_19
 682:Drivers/STM32WLxx_HAL_Driver/Inc/stm32wlxx_ll_exti.h ****   *         @arg @ref LL_EXTI_LINE_20
 683:Drivers/STM32WLxx_HAL_Driver/Inc/stm32wlxx_ll_exti.h ****   *         @arg @ref LL_EXTI_LINE_21
 684:Drivers/STM32WLxx_HAL_Driver/Inc/stm32wlxx_ll_exti.h ****   *         @arg @ref LL_EXTI_LINE_22
 685:Drivers/STM32WLxx_HAL_Driver/Inc/stm32wlxx_ll_exti.h ****   * @retval None
 686:Drivers/STM32WLxx_HAL_Driver/Inc/stm32wlxx_ll_exti.h ****   */
 687:Drivers/STM32WLxx_HAL_Driver/Inc/stm32wlxx_ll_exti.h **** __STATIC_INLINE void LL_EXTI_EnableEvent_0_31(uint32_t ExtiLine)
 688:Drivers/STM32WLxx_HAL_Driver/Inc/stm32wlxx_ll_exti.h **** {
 689:Drivers/STM32WLxx_HAL_Driver/Inc/stm32wlxx_ll_exti.h ****   SET_BIT(EXTI->EMR1, ExtiLine);
 690:Drivers/STM32WLxx_HAL_Driver/Inc/stm32wlxx_ll_exti.h **** }
 691:Drivers/STM32WLxx_HAL_Driver/Inc/stm32wlxx_ll_exti.h **** 
 692:Drivers/STM32WLxx_HAL_Driver/Inc/stm32wlxx_ll_exti.h **** #if defined(DUAL_CORE)
 693:Drivers/STM32WLxx_HAL_Driver/Inc/stm32wlxx_ll_exti.h **** /**
 694:Drivers/STM32WLxx_HAL_Driver/Inc/stm32wlxx_ll_exti.h ****   * @brief  Enable ExtiLine Event request for Lines in range 0 to 31 for cpu2
 695:Drivers/STM32WLxx_HAL_Driver/Inc/stm32wlxx_ll_exti.h ****   * @rmtoll C2EMR1         EMx           LL_C2_EXTI_EnableEvent_0_31
 696:Drivers/STM32WLxx_HAL_Driver/Inc/stm32wlxx_ll_exti.h ****   * @param  ExtiLine This parameter can be one of the following values:
 697:Drivers/STM32WLxx_HAL_Driver/Inc/stm32wlxx_ll_exti.h ****   *         @arg @ref LL_EXTI_LINE_0
 698:Drivers/STM32WLxx_HAL_Driver/Inc/stm32wlxx_ll_exti.h ****   *         @arg @ref LL_EXTI_LINE_1
 699:Drivers/STM32WLxx_HAL_Driver/Inc/stm32wlxx_ll_exti.h ****   *         @arg @ref LL_EXTI_LINE_2
 700:Drivers/STM32WLxx_HAL_Driver/Inc/stm32wlxx_ll_exti.h ****   *         @arg @ref LL_EXTI_LINE_3
 701:Drivers/STM32WLxx_HAL_Driver/Inc/stm32wlxx_ll_exti.h ****   *         @arg @ref LL_EXTI_LINE_4
 702:Drivers/STM32WLxx_HAL_Driver/Inc/stm32wlxx_ll_exti.h ****   *         @arg @ref LL_EXTI_LINE_5
 703:Drivers/STM32WLxx_HAL_Driver/Inc/stm32wlxx_ll_exti.h ****   *         @arg @ref LL_EXTI_LINE_6
 704:Drivers/STM32WLxx_HAL_Driver/Inc/stm32wlxx_ll_exti.h ****   *         @arg @ref LL_EXTI_LINE_7
ARM GAS  C:\Users\Lenovo\AppData\Local\Temp\ccLMdYCa.s 			page 49


 705:Drivers/STM32WLxx_HAL_Driver/Inc/stm32wlxx_ll_exti.h ****   *         @arg @ref LL_EXTI_LINE_8
 706:Drivers/STM32WLxx_HAL_Driver/Inc/stm32wlxx_ll_exti.h ****   *         @arg @ref LL_EXTI_LINE_9
 707:Drivers/STM32WLxx_HAL_Driver/Inc/stm32wlxx_ll_exti.h ****   *         @arg @ref LL_EXTI_LINE_10
 708:Drivers/STM32WLxx_HAL_Driver/Inc/stm32wlxx_ll_exti.h ****   *         @arg @ref LL_EXTI_LINE_11
 709:Drivers/STM32WLxx_HAL_Driver/Inc/stm32wlxx_ll_exti.h ****   *         @arg @ref LL_EXTI_LINE_12
 710:Drivers/STM32WLxx_HAL_Driver/Inc/stm32wlxx_ll_exti.h ****   *         @arg @ref LL_EXTI_LINE_13
 711:Drivers/STM32WLxx_HAL_Driver/Inc/stm32wlxx_ll_exti.h ****   *         @arg @ref LL_EXTI_LINE_14
 712:Drivers/STM32WLxx_HAL_Driver/Inc/stm32wlxx_ll_exti.h ****   *         @arg @ref LL_EXTI_LINE_15
 713:Drivers/STM32WLxx_HAL_Driver/Inc/stm32wlxx_ll_exti.h ****   *         @arg @ref LL_EXTI_LINE_17
 714:Drivers/STM32WLxx_HAL_Driver/Inc/stm32wlxx_ll_exti.h ****   *         @arg @ref LL_EXTI_LINE_19
 715:Drivers/STM32WLxx_HAL_Driver/Inc/stm32wlxx_ll_exti.h ****   *         @arg @ref LL_EXTI_LINE_20
 716:Drivers/STM32WLxx_HAL_Driver/Inc/stm32wlxx_ll_exti.h ****   *         @arg @ref LL_EXTI_LINE_21
 717:Drivers/STM32WLxx_HAL_Driver/Inc/stm32wlxx_ll_exti.h ****   *         @arg @ref LL_EXTI_LINE_22
 718:Drivers/STM32WLxx_HAL_Driver/Inc/stm32wlxx_ll_exti.h ****   * @retval None
 719:Drivers/STM32WLxx_HAL_Driver/Inc/stm32wlxx_ll_exti.h ****   */
 720:Drivers/STM32WLxx_HAL_Driver/Inc/stm32wlxx_ll_exti.h **** __STATIC_INLINE void LL_C2_EXTI_EnableEvent_0_31(uint32_t ExtiLine)
 721:Drivers/STM32WLxx_HAL_Driver/Inc/stm32wlxx_ll_exti.h **** {
 722:Drivers/STM32WLxx_HAL_Driver/Inc/stm32wlxx_ll_exti.h ****   SET_BIT(EXTI->C2EMR1, ExtiLine);
 723:Drivers/STM32WLxx_HAL_Driver/Inc/stm32wlxx_ll_exti.h **** }
 724:Drivers/STM32WLxx_HAL_Driver/Inc/stm32wlxx_ll_exti.h **** #endif /* DUAL_CORE */
 725:Drivers/STM32WLxx_HAL_Driver/Inc/stm32wlxx_ll_exti.h **** 
 726:Drivers/STM32WLxx_HAL_Driver/Inc/stm32wlxx_ll_exti.h **** /**
 727:Drivers/STM32WLxx_HAL_Driver/Inc/stm32wlxx_ll_exti.h ****   * @brief  Enable ExtiLine Event request for Lines in range 32 to 63
 728:Drivers/STM32WLxx_HAL_Driver/Inc/stm32wlxx_ll_exti.h ****   * @rmtoll EMR2         EMx           LL_EXTI_EnableEvent_32_63
 729:Drivers/STM32WLxx_HAL_Driver/Inc/stm32wlxx_ll_exti.h ****   * @param  ExtiLine This parameter can be a combination of the following values:
 730:Drivers/STM32WLxx_HAL_Driver/Inc/stm32wlxx_ll_exti.h ****   *         @arg @ref LL_EXTI_LINE_40 (*)
 731:Drivers/STM32WLxx_HAL_Driver/Inc/stm32wlxx_ll_exti.h ****   *         @arg @ref LL_EXTI_LINE_41 (*)
 732:Drivers/STM32WLxx_HAL_Driver/Inc/stm32wlxx_ll_exti.h ****   *         (*) value not defined in all devices
 733:Drivers/STM32WLxx_HAL_Driver/Inc/stm32wlxx_ll_exti.h ****   * @retval None
 734:Drivers/STM32WLxx_HAL_Driver/Inc/stm32wlxx_ll_exti.h ****   */
 735:Drivers/STM32WLxx_HAL_Driver/Inc/stm32wlxx_ll_exti.h **** __STATIC_INLINE void LL_EXTI_EnableEvent_32_63(uint32_t ExtiLine)
 736:Drivers/STM32WLxx_HAL_Driver/Inc/stm32wlxx_ll_exti.h **** {
 737:Drivers/STM32WLxx_HAL_Driver/Inc/stm32wlxx_ll_exti.h ****   SET_BIT(EXTI->EMR2, ExtiLine);
 738:Drivers/STM32WLxx_HAL_Driver/Inc/stm32wlxx_ll_exti.h **** }
 739:Drivers/STM32WLxx_HAL_Driver/Inc/stm32wlxx_ll_exti.h **** 
 740:Drivers/STM32WLxx_HAL_Driver/Inc/stm32wlxx_ll_exti.h **** #if defined(DUAL_CORE)
 741:Drivers/STM32WLxx_HAL_Driver/Inc/stm32wlxx_ll_exti.h **** /**
 742:Drivers/STM32WLxx_HAL_Driver/Inc/stm32wlxx_ll_exti.h ****   * @brief  Enable ExtiLine Event request for Lines in range 32 to 63 for cpu2
 743:Drivers/STM32WLxx_HAL_Driver/Inc/stm32wlxx_ll_exti.h ****   * @rmtoll C2EMR2         EMx           LL_C2_EXTI_EnableEvent_32_63
 744:Drivers/STM32WLxx_HAL_Driver/Inc/stm32wlxx_ll_exti.h ****   * @param  ExtiLine This parameter can be a combination of the following values:
 745:Drivers/STM32WLxx_HAL_Driver/Inc/stm32wlxx_ll_exti.h ****   *         @arg @ref LL_EXTI_LINE_40 (*)
 746:Drivers/STM32WLxx_HAL_Driver/Inc/stm32wlxx_ll_exti.h ****   *         @arg @ref LL_EXTI_LINE_41 (*)
 747:Drivers/STM32WLxx_HAL_Driver/Inc/stm32wlxx_ll_exti.h ****   *         (*) value not defined in all devices
 748:Drivers/STM32WLxx_HAL_Driver/Inc/stm32wlxx_ll_exti.h ****   * @retval None
 749:Drivers/STM32WLxx_HAL_Driver/Inc/stm32wlxx_ll_exti.h ****   */
 750:Drivers/STM32WLxx_HAL_Driver/Inc/stm32wlxx_ll_exti.h **** __STATIC_INLINE void LL_C2_EXTI_EnableEvent_32_63(uint32_t ExtiLine)
 751:Drivers/STM32WLxx_HAL_Driver/Inc/stm32wlxx_ll_exti.h **** {
 752:Drivers/STM32WLxx_HAL_Driver/Inc/stm32wlxx_ll_exti.h ****   SET_BIT(EXTI->C2EMR2, ExtiLine);
 753:Drivers/STM32WLxx_HAL_Driver/Inc/stm32wlxx_ll_exti.h **** }
 754:Drivers/STM32WLxx_HAL_Driver/Inc/stm32wlxx_ll_exti.h **** #endif /* DUAL_CORE */
 755:Drivers/STM32WLxx_HAL_Driver/Inc/stm32wlxx_ll_exti.h **** 
 756:Drivers/STM32WLxx_HAL_Driver/Inc/stm32wlxx_ll_exti.h **** /**
 757:Drivers/STM32WLxx_HAL_Driver/Inc/stm32wlxx_ll_exti.h ****   * @brief  Disable ExtiLine Event request for Lines in range 0 to 31
 758:Drivers/STM32WLxx_HAL_Driver/Inc/stm32wlxx_ll_exti.h ****   * @rmtoll EMR1         EMx           LL_EXTI_DisableEvent_0_31
 759:Drivers/STM32WLxx_HAL_Driver/Inc/stm32wlxx_ll_exti.h ****   * @param  ExtiLine This parameter can be one of the following values:
 760:Drivers/STM32WLxx_HAL_Driver/Inc/stm32wlxx_ll_exti.h ****   *         @arg @ref LL_EXTI_LINE_0
 761:Drivers/STM32WLxx_HAL_Driver/Inc/stm32wlxx_ll_exti.h ****   *         @arg @ref LL_EXTI_LINE_1
ARM GAS  C:\Users\Lenovo\AppData\Local\Temp\ccLMdYCa.s 			page 50


 762:Drivers/STM32WLxx_HAL_Driver/Inc/stm32wlxx_ll_exti.h ****   *         @arg @ref LL_EXTI_LINE_2
 763:Drivers/STM32WLxx_HAL_Driver/Inc/stm32wlxx_ll_exti.h ****   *         @arg @ref LL_EXTI_LINE_3
 764:Drivers/STM32WLxx_HAL_Driver/Inc/stm32wlxx_ll_exti.h ****   *         @arg @ref LL_EXTI_LINE_4
 765:Drivers/STM32WLxx_HAL_Driver/Inc/stm32wlxx_ll_exti.h ****   *         @arg @ref LL_EXTI_LINE_5
 766:Drivers/STM32WLxx_HAL_Driver/Inc/stm32wlxx_ll_exti.h ****   *         @arg @ref LL_EXTI_LINE_6
 767:Drivers/STM32WLxx_HAL_Driver/Inc/stm32wlxx_ll_exti.h ****   *         @arg @ref LL_EXTI_LINE_7
 768:Drivers/STM32WLxx_HAL_Driver/Inc/stm32wlxx_ll_exti.h ****   *         @arg @ref LL_EXTI_LINE_8
 769:Drivers/STM32WLxx_HAL_Driver/Inc/stm32wlxx_ll_exti.h ****   *         @arg @ref LL_EXTI_LINE_9
 770:Drivers/STM32WLxx_HAL_Driver/Inc/stm32wlxx_ll_exti.h ****   *         @arg @ref LL_EXTI_LINE_10
 771:Drivers/STM32WLxx_HAL_Driver/Inc/stm32wlxx_ll_exti.h ****   *         @arg @ref LL_EXTI_LINE_11
 772:Drivers/STM32WLxx_HAL_Driver/Inc/stm32wlxx_ll_exti.h ****   *         @arg @ref LL_EXTI_LINE_12
 773:Drivers/STM32WLxx_HAL_Driver/Inc/stm32wlxx_ll_exti.h ****   *         @arg @ref LL_EXTI_LINE_13
 774:Drivers/STM32WLxx_HAL_Driver/Inc/stm32wlxx_ll_exti.h ****   *         @arg @ref LL_EXTI_LINE_14
 775:Drivers/STM32WLxx_HAL_Driver/Inc/stm32wlxx_ll_exti.h ****   *         @arg @ref LL_EXTI_LINE_15
 776:Drivers/STM32WLxx_HAL_Driver/Inc/stm32wlxx_ll_exti.h ****   *         @arg @ref LL_EXTI_LINE_17
 777:Drivers/STM32WLxx_HAL_Driver/Inc/stm32wlxx_ll_exti.h ****   *         @arg @ref LL_EXTI_LINE_19
 778:Drivers/STM32WLxx_HAL_Driver/Inc/stm32wlxx_ll_exti.h ****   *         @arg @ref LL_EXTI_LINE_20
 779:Drivers/STM32WLxx_HAL_Driver/Inc/stm32wlxx_ll_exti.h ****   *         @arg @ref LL_EXTI_LINE_21
 780:Drivers/STM32WLxx_HAL_Driver/Inc/stm32wlxx_ll_exti.h ****   *         @arg @ref LL_EXTI_LINE_22
 781:Drivers/STM32WLxx_HAL_Driver/Inc/stm32wlxx_ll_exti.h ****   * @retval None
 782:Drivers/STM32WLxx_HAL_Driver/Inc/stm32wlxx_ll_exti.h ****   */
 783:Drivers/STM32WLxx_HAL_Driver/Inc/stm32wlxx_ll_exti.h **** __STATIC_INLINE void LL_EXTI_DisableEvent_0_31(uint32_t ExtiLine)
 784:Drivers/STM32WLxx_HAL_Driver/Inc/stm32wlxx_ll_exti.h **** {
 785:Drivers/STM32WLxx_HAL_Driver/Inc/stm32wlxx_ll_exti.h ****   CLEAR_BIT(EXTI->EMR1, ExtiLine);
 786:Drivers/STM32WLxx_HAL_Driver/Inc/stm32wlxx_ll_exti.h **** }
 787:Drivers/STM32WLxx_HAL_Driver/Inc/stm32wlxx_ll_exti.h **** 
 788:Drivers/STM32WLxx_HAL_Driver/Inc/stm32wlxx_ll_exti.h **** #if defined(DUAL_CORE)
 789:Drivers/STM32WLxx_HAL_Driver/Inc/stm32wlxx_ll_exti.h **** /**
 790:Drivers/STM32WLxx_HAL_Driver/Inc/stm32wlxx_ll_exti.h ****   * @brief  Disable ExtiLine Event request for Lines in range 0 to 31 for cpu2
 791:Drivers/STM32WLxx_HAL_Driver/Inc/stm32wlxx_ll_exti.h ****   * @rmtoll C2EMR1         EMx           LL_C2_EXTI_DisableEvent_0_31
 792:Drivers/STM32WLxx_HAL_Driver/Inc/stm32wlxx_ll_exti.h ****   * @param  ExtiLine This parameter can be one of the following values:
 793:Drivers/STM32WLxx_HAL_Driver/Inc/stm32wlxx_ll_exti.h ****   *         @arg @ref LL_EXTI_LINE_0
 794:Drivers/STM32WLxx_HAL_Driver/Inc/stm32wlxx_ll_exti.h ****   *         @arg @ref LL_EXTI_LINE_1
 795:Drivers/STM32WLxx_HAL_Driver/Inc/stm32wlxx_ll_exti.h ****   *         @arg @ref LL_EXTI_LINE_2
 796:Drivers/STM32WLxx_HAL_Driver/Inc/stm32wlxx_ll_exti.h ****   *         @arg @ref LL_EXTI_LINE_3
 797:Drivers/STM32WLxx_HAL_Driver/Inc/stm32wlxx_ll_exti.h ****   *         @arg @ref LL_EXTI_LINE_4
 798:Drivers/STM32WLxx_HAL_Driver/Inc/stm32wlxx_ll_exti.h ****   *         @arg @ref LL_EXTI_LINE_5
 799:Drivers/STM32WLxx_HAL_Driver/Inc/stm32wlxx_ll_exti.h ****   *         @arg @ref LL_EXTI_LINE_6
 800:Drivers/STM32WLxx_HAL_Driver/Inc/stm32wlxx_ll_exti.h ****   *         @arg @ref LL_EXTI_LINE_7
 801:Drivers/STM32WLxx_HAL_Driver/Inc/stm32wlxx_ll_exti.h ****   *         @arg @ref LL_EXTI_LINE_8
 802:Drivers/STM32WLxx_HAL_Driver/Inc/stm32wlxx_ll_exti.h ****   *         @arg @ref LL_EXTI_LINE_9
 803:Drivers/STM32WLxx_HAL_Driver/Inc/stm32wlxx_ll_exti.h ****   *         @arg @ref LL_EXTI_LINE_10
 804:Drivers/STM32WLxx_HAL_Driver/Inc/stm32wlxx_ll_exti.h ****   *         @arg @ref LL_EXTI_LINE_11
 805:Drivers/STM32WLxx_HAL_Driver/Inc/stm32wlxx_ll_exti.h ****   *         @arg @ref LL_EXTI_LINE_12
 806:Drivers/STM32WLxx_HAL_Driver/Inc/stm32wlxx_ll_exti.h ****   *         @arg @ref LL_EXTI_LINE_13
 807:Drivers/STM32WLxx_HAL_Driver/Inc/stm32wlxx_ll_exti.h ****   *         @arg @ref LL_EXTI_LINE_14
 808:Drivers/STM32WLxx_HAL_Driver/Inc/stm32wlxx_ll_exti.h ****   *         @arg @ref LL_EXTI_LINE_15
 809:Drivers/STM32WLxx_HAL_Driver/Inc/stm32wlxx_ll_exti.h ****   *         @arg @ref LL_EXTI_LINE_17
 810:Drivers/STM32WLxx_HAL_Driver/Inc/stm32wlxx_ll_exti.h ****   *         @arg @ref LL_EXTI_LINE_19
 811:Drivers/STM32WLxx_HAL_Driver/Inc/stm32wlxx_ll_exti.h ****   *         @arg @ref LL_EXTI_LINE_20
 812:Drivers/STM32WLxx_HAL_Driver/Inc/stm32wlxx_ll_exti.h ****   *         @arg @ref LL_EXTI_LINE_21
 813:Drivers/STM32WLxx_HAL_Driver/Inc/stm32wlxx_ll_exti.h ****   *         @arg @ref LL_EXTI_LINE_22
 814:Drivers/STM32WLxx_HAL_Driver/Inc/stm32wlxx_ll_exti.h ****   * @retval None
 815:Drivers/STM32WLxx_HAL_Driver/Inc/stm32wlxx_ll_exti.h ****   */
 816:Drivers/STM32WLxx_HAL_Driver/Inc/stm32wlxx_ll_exti.h **** __STATIC_INLINE void LL_C2_EXTI_DisableEvent_0_31(uint32_t ExtiLine)
 817:Drivers/STM32WLxx_HAL_Driver/Inc/stm32wlxx_ll_exti.h **** {
 818:Drivers/STM32WLxx_HAL_Driver/Inc/stm32wlxx_ll_exti.h ****   CLEAR_BIT(EXTI->C2EMR1, ExtiLine);
ARM GAS  C:\Users\Lenovo\AppData\Local\Temp\ccLMdYCa.s 			page 51


 819:Drivers/STM32WLxx_HAL_Driver/Inc/stm32wlxx_ll_exti.h **** }
 820:Drivers/STM32WLxx_HAL_Driver/Inc/stm32wlxx_ll_exti.h **** #endif /* DUAL_CORE */
 821:Drivers/STM32WLxx_HAL_Driver/Inc/stm32wlxx_ll_exti.h **** 
