ARM GAS  C:\Users\Lenovo\AppData\Local\Temp\ccRNOCMD.s 			page 1


   1              		.cpu cortex-m4
   2              		.arch armv7e-m
   3              		.fpu softvfp
   4              		.eabi_attribute 20, 1
   5              		.eabi_attribute 21, 1
   6              		.eabi_attribute 23, 3
   7              		.eabi_attribute 24, 1
   8              		.eabi_attribute 25, 1
   9              		.eabi_attribute 26, 1
  10              		.eabi_attribute 30, 6
  11              		.eabi_attribute 34, 1
  12              		.eabi_attribute 18, 4
  13              		.file	"stream_buffer.c"
  14              		.text
  15              	.Ltext0:
  16              		.cfi_sections	.debug_frame
  17              		.section	.text.xStreamBufferGenericCreate,"ax",%progbits
  18              		.align	1
  19              		.global	xStreamBufferGenericCreate
  20              		.syntax unified
  21              		.thumb
  22              		.thumb_func
  24              	xStreamBufferGenericCreate:
  25              	.LFB4:
  26              		.file 1 "Middlewares/Third_Party/FreeRTOS/Source/stream_buffer.c"
   1:Middlewares/Third_Party/FreeRTOS/Source/stream_buffer.c **** /*
   2:Middlewares/Third_Party/FreeRTOS/Source/stream_buffer.c ****  * FreeRTOS Kernel V10.2.1
   3:Middlewares/Third_Party/FreeRTOS/Source/stream_buffer.c ****  * Copyright (C) 2019 Amazon.com, Inc. or its affiliates.  All Rights Reserved.
   4:Middlewares/Third_Party/FreeRTOS/Source/stream_buffer.c ****  *
   5:Middlewares/Third_Party/FreeRTOS/Source/stream_buffer.c ****  * Permission is hereby granted, free of charge, to any person obtaining a copy of
   6:Middlewares/Third_Party/FreeRTOS/Source/stream_buffer.c ****  * this software and associated documentation files (the "Software"), to deal in
   7:Middlewares/Third_Party/FreeRTOS/Source/stream_buffer.c ****  * the Software without restriction, including without limitation the rights to
   8:Middlewares/Third_Party/FreeRTOS/Source/stream_buffer.c ****  * use, copy, modify, merge, publish, distribute, sublicense, and/or sell copies of
   9:Middlewares/Third_Party/FreeRTOS/Source/stream_buffer.c ****  * the Software, and to permit persons to whom the Software is furnished to do so,
  10:Middlewares/Third_Party/FreeRTOS/Source/stream_buffer.c ****  * subject to the following conditions:
  11:Middlewares/Third_Party/FreeRTOS/Source/stream_buffer.c ****  *
  12:Middlewares/Third_Party/FreeRTOS/Source/stream_buffer.c ****  * The above copyright notice and this permission notice shall be included in all
  13:Middlewares/Third_Party/FreeRTOS/Source/stream_buffer.c ****  * copies or substantial portions of the Software.
  14:Middlewares/Third_Party/FreeRTOS/Source/stream_buffer.c ****  *
  15:Middlewares/Third_Party/FreeRTOS/Source/stream_buffer.c ****  * THE SOFTWARE IS PROVIDED "AS IS", WITHOUT WARRANTY OF ANY KIND, EXPRESS OR
  16:Middlewares/Third_Party/FreeRTOS/Source/stream_buffer.c ****  * IMPLIED, INCLUDING BUT NOT LIMITED TO THE WARRANTIES OF MERCHANTABILITY, FITNESS
  17:Middlewares/Third_Party/FreeRTOS/Source/stream_buffer.c ****  * FOR A PARTICULAR PURPOSE AND NONINFRINGEMENT. IN NO EVENT SHALL THE AUTHORS OR
  18:Middlewares/Third_Party/FreeRTOS/Source/stream_buffer.c ****  * COPYRIGHT HOLDERS BE LIABLE FOR ANY CLAIM, DAMAGES OR OTHER LIABILITY, WHETHER
  19:Middlewares/Third_Party/FreeRTOS/Source/stream_buffer.c ****  * IN AN ACTION OF CONTRACT, TORT OR OTHERWISE, ARISING FROM, OUT OF OR IN
  20:Middlewares/Third_Party/FreeRTOS/Source/stream_buffer.c ****  * CONNECTION WITH THE SOFTWARE OR THE USE OR OTHER DEALINGS IN THE SOFTWARE.
  21:Middlewares/Third_Party/FreeRTOS/Source/stream_buffer.c ****  *
  22:Middlewares/Third_Party/FreeRTOS/Source/stream_buffer.c ****  * http://www.FreeRTOS.org
  23:Middlewares/Third_Party/FreeRTOS/Source/stream_buffer.c ****  * http://aws.amazon.com/freertos
  24:Middlewares/Third_Party/FreeRTOS/Source/stream_buffer.c ****  *
  25:Middlewares/Third_Party/FreeRTOS/Source/stream_buffer.c ****  * 1 tab == 4 spaces!
  26:Middlewares/Third_Party/FreeRTOS/Source/stream_buffer.c ****  */
  27:Middlewares/Third_Party/FreeRTOS/Source/stream_buffer.c **** 
  28:Middlewares/Third_Party/FreeRTOS/Source/stream_buffer.c **** /* Standard includes. */
  29:Middlewares/Third_Party/FreeRTOS/Source/stream_buffer.c **** #include <stdint.h>
  30:Middlewares/Third_Party/FreeRTOS/Source/stream_buffer.c **** #include <string.h>
  31:Middlewares/Third_Party/FreeRTOS/Source/stream_buffer.c **** 
  32:Middlewares/Third_Party/FreeRTOS/Source/stream_buffer.c **** /* Defining MPU_WRAPPERS_INCLUDED_FROM_API_FILE prevents task.h from redefining
ARM GAS  C:\Users\Lenovo\AppData\Local\Temp\ccRNOCMD.s 			page 2


  33:Middlewares/Third_Party/FreeRTOS/Source/stream_buffer.c **** all the API functions to use the MPU wrappers.  That should only be done when
  34:Middlewares/Third_Party/FreeRTOS/Source/stream_buffer.c **** task.h is included from an application file. */
  35:Middlewares/Third_Party/FreeRTOS/Source/stream_buffer.c **** #define MPU_WRAPPERS_INCLUDED_FROM_API_FILE
  36:Middlewares/Third_Party/FreeRTOS/Source/stream_buffer.c **** 
  37:Middlewares/Third_Party/FreeRTOS/Source/stream_buffer.c **** /* FreeRTOS includes. */
  38:Middlewares/Third_Party/FreeRTOS/Source/stream_buffer.c **** #include "FreeRTOS.h"
  39:Middlewares/Third_Party/FreeRTOS/Source/stream_buffer.c **** #include "task.h"
  40:Middlewares/Third_Party/FreeRTOS/Source/stream_buffer.c **** #include "stream_buffer.h"
  41:Middlewares/Third_Party/FreeRTOS/Source/stream_buffer.c **** 
  42:Middlewares/Third_Party/FreeRTOS/Source/stream_buffer.c **** #if( configUSE_TASK_NOTIFICATIONS != 1 )
  43:Middlewares/Third_Party/FreeRTOS/Source/stream_buffer.c **** 	#error configUSE_TASK_NOTIFICATIONS must be set to 1 to build stream_buffer.c
  44:Middlewares/Third_Party/FreeRTOS/Source/stream_buffer.c **** #endif
  45:Middlewares/Third_Party/FreeRTOS/Source/stream_buffer.c **** 
  46:Middlewares/Third_Party/FreeRTOS/Source/stream_buffer.c **** /* Lint e961, e9021 and e750 are suppressed as a MISRA exception justified
  47:Middlewares/Third_Party/FreeRTOS/Source/stream_buffer.c **** because the MPU ports require MPU_WRAPPERS_INCLUDED_FROM_API_FILE to be defined
  48:Middlewares/Third_Party/FreeRTOS/Source/stream_buffer.c **** for the header files above, but not in this file, in order to generate the
  49:Middlewares/Third_Party/FreeRTOS/Source/stream_buffer.c **** correct privileged Vs unprivileged linkage and placement. */
  50:Middlewares/Third_Party/FreeRTOS/Source/stream_buffer.c **** #undef MPU_WRAPPERS_INCLUDED_FROM_API_FILE /*lint !e961 !e750 !e9021. */
  51:Middlewares/Third_Party/FreeRTOS/Source/stream_buffer.c **** 
  52:Middlewares/Third_Party/FreeRTOS/Source/stream_buffer.c **** /* If the user has not provided application specific Rx notification macros,
  53:Middlewares/Third_Party/FreeRTOS/Source/stream_buffer.c **** or #defined the notification macros away, them provide default implementations
  54:Middlewares/Third_Party/FreeRTOS/Source/stream_buffer.c **** that uses task notifications. */
  55:Middlewares/Third_Party/FreeRTOS/Source/stream_buffer.c **** /*lint -save -e9026 Function like macros allowed and needed here so they can be overidden. */
  56:Middlewares/Third_Party/FreeRTOS/Source/stream_buffer.c **** #ifndef sbRECEIVE_COMPLETED
  57:Middlewares/Third_Party/FreeRTOS/Source/stream_buffer.c **** 	#define sbRECEIVE_COMPLETED( pxStreamBuffer )										\
  58:Middlewares/Third_Party/FreeRTOS/Source/stream_buffer.c **** 		vTaskSuspendAll();																\
  59:Middlewares/Third_Party/FreeRTOS/Source/stream_buffer.c **** 		{																				\
  60:Middlewares/Third_Party/FreeRTOS/Source/stream_buffer.c **** 			if( ( pxStreamBuffer )->xTaskWaitingToSend != NULL )						\
  61:Middlewares/Third_Party/FreeRTOS/Source/stream_buffer.c **** 			{																			\
  62:Middlewares/Third_Party/FreeRTOS/Source/stream_buffer.c **** 				( void ) xTaskNotify( ( pxStreamBuffer )->xTaskWaitingToSend,			\
  63:Middlewares/Third_Party/FreeRTOS/Source/stream_buffer.c **** 									  ( uint32_t ) 0,									\
  64:Middlewares/Third_Party/FreeRTOS/Source/stream_buffer.c **** 									  eNoAction );										\
  65:Middlewares/Third_Party/FreeRTOS/Source/stream_buffer.c **** 				( pxStreamBuffer )->xTaskWaitingToSend = NULL;							\
  66:Middlewares/Third_Party/FreeRTOS/Source/stream_buffer.c **** 			}																			\
  67:Middlewares/Third_Party/FreeRTOS/Source/stream_buffer.c **** 		}																				\
  68:Middlewares/Third_Party/FreeRTOS/Source/stream_buffer.c **** 		( void ) xTaskResumeAll();
  69:Middlewares/Third_Party/FreeRTOS/Source/stream_buffer.c **** #endif /* sbRECEIVE_COMPLETED */
  70:Middlewares/Third_Party/FreeRTOS/Source/stream_buffer.c **** 
  71:Middlewares/Third_Party/FreeRTOS/Source/stream_buffer.c **** #ifndef sbRECEIVE_COMPLETED_FROM_ISR
  72:Middlewares/Third_Party/FreeRTOS/Source/stream_buffer.c **** 	#define sbRECEIVE_COMPLETED_FROM_ISR( pxStreamBuffer,								\
  73:Middlewares/Third_Party/FreeRTOS/Source/stream_buffer.c **** 										  pxHigherPriorityTaskWoken )					\
  74:Middlewares/Third_Party/FreeRTOS/Source/stream_buffer.c **** 	{																					\
  75:Middlewares/Third_Party/FreeRTOS/Source/stream_buffer.c **** 	UBaseType_t uxSavedInterruptStatus;													\
  76:Middlewares/Third_Party/FreeRTOS/Source/stream_buffer.c **** 																						\
  77:Middlewares/Third_Party/FreeRTOS/Source/stream_buffer.c **** 		uxSavedInterruptStatus = ( UBaseType_t ) portSET_INTERRUPT_MASK_FROM_ISR();		\
  78:Middlewares/Third_Party/FreeRTOS/Source/stream_buffer.c **** 		{																				\
  79:Middlewares/Third_Party/FreeRTOS/Source/stream_buffer.c **** 			if( ( pxStreamBuffer )->xTaskWaitingToSend != NULL )						\
  80:Middlewares/Third_Party/FreeRTOS/Source/stream_buffer.c **** 			{																			\
  81:Middlewares/Third_Party/FreeRTOS/Source/stream_buffer.c **** 				( void ) xTaskNotifyFromISR( ( pxStreamBuffer )->xTaskWaitingToSend,	\
  82:Middlewares/Third_Party/FreeRTOS/Source/stream_buffer.c **** 											 ( uint32_t ) 0,							\
  83:Middlewares/Third_Party/FreeRTOS/Source/stream_buffer.c **** 											 eNoAction,									\
  84:Middlewares/Third_Party/FreeRTOS/Source/stream_buffer.c **** 											 pxHigherPriorityTaskWoken );				\
  85:Middlewares/Third_Party/FreeRTOS/Source/stream_buffer.c **** 				( pxStreamBuffer )->xTaskWaitingToSend = NULL;							\
  86:Middlewares/Third_Party/FreeRTOS/Source/stream_buffer.c **** 			}																			\
  87:Middlewares/Third_Party/FreeRTOS/Source/stream_buffer.c **** 		}																				\
  88:Middlewares/Third_Party/FreeRTOS/Source/stream_buffer.c **** 		portCLEAR_INTERRUPT_MASK_FROM_ISR( uxSavedInterruptStatus );					\
  89:Middlewares/Third_Party/FreeRTOS/Source/stream_buffer.c **** 	}
ARM GAS  C:\Users\Lenovo\AppData\Local\Temp\ccRNOCMD.s 			page 3


  90:Middlewares/Third_Party/FreeRTOS/Source/stream_buffer.c **** #endif /* sbRECEIVE_COMPLETED_FROM_ISR */
  91:Middlewares/Third_Party/FreeRTOS/Source/stream_buffer.c **** 
  92:Middlewares/Third_Party/FreeRTOS/Source/stream_buffer.c **** /* If the user has not provided an application specific Tx notification macro,
  93:Middlewares/Third_Party/FreeRTOS/Source/stream_buffer.c **** or #defined the notification macro away, them provide a default implementation
  94:Middlewares/Third_Party/FreeRTOS/Source/stream_buffer.c **** that uses task notifications. */
  95:Middlewares/Third_Party/FreeRTOS/Source/stream_buffer.c **** #ifndef sbSEND_COMPLETED
  96:Middlewares/Third_Party/FreeRTOS/Source/stream_buffer.c **** 	#define sbSEND_COMPLETED( pxStreamBuffer )											\
  97:Middlewares/Third_Party/FreeRTOS/Source/stream_buffer.c **** 		vTaskSuspendAll();																\
  98:Middlewares/Third_Party/FreeRTOS/Source/stream_buffer.c **** 		{																				\
  99:Middlewares/Third_Party/FreeRTOS/Source/stream_buffer.c **** 			if( ( pxStreamBuffer )->xTaskWaitingToReceive != NULL )						\
 100:Middlewares/Third_Party/FreeRTOS/Source/stream_buffer.c **** 			{																			\
 101:Middlewares/Third_Party/FreeRTOS/Source/stream_buffer.c **** 				( void ) xTaskNotify( ( pxStreamBuffer )->xTaskWaitingToReceive,		\
 102:Middlewares/Third_Party/FreeRTOS/Source/stream_buffer.c **** 									  ( uint32_t ) 0,									\
 103:Middlewares/Third_Party/FreeRTOS/Source/stream_buffer.c **** 									  eNoAction );										\
 104:Middlewares/Third_Party/FreeRTOS/Source/stream_buffer.c **** 				( pxStreamBuffer )->xTaskWaitingToReceive = NULL;						\
 105:Middlewares/Third_Party/FreeRTOS/Source/stream_buffer.c **** 			}																			\
 106:Middlewares/Third_Party/FreeRTOS/Source/stream_buffer.c **** 		}																				\
 107:Middlewares/Third_Party/FreeRTOS/Source/stream_buffer.c **** 		( void ) xTaskResumeAll();
 108:Middlewares/Third_Party/FreeRTOS/Source/stream_buffer.c **** #endif /* sbSEND_COMPLETED */
 109:Middlewares/Third_Party/FreeRTOS/Source/stream_buffer.c **** 
 110:Middlewares/Third_Party/FreeRTOS/Source/stream_buffer.c **** #ifndef sbSEND_COMPLETE_FROM_ISR
 111:Middlewares/Third_Party/FreeRTOS/Source/stream_buffer.c **** 	#define sbSEND_COMPLETE_FROM_ISR( pxStreamBuffer, pxHigherPriorityTaskWoken )		\
 112:Middlewares/Third_Party/FreeRTOS/Source/stream_buffer.c **** 	{																					\
 113:Middlewares/Third_Party/FreeRTOS/Source/stream_buffer.c **** 	UBaseType_t uxSavedInterruptStatus;													\
 114:Middlewares/Third_Party/FreeRTOS/Source/stream_buffer.c **** 																						\
 115:Middlewares/Third_Party/FreeRTOS/Source/stream_buffer.c **** 		uxSavedInterruptStatus = ( UBaseType_t ) portSET_INTERRUPT_MASK_FROM_ISR();		\
 116:Middlewares/Third_Party/FreeRTOS/Source/stream_buffer.c **** 		{																				\
 117:Middlewares/Third_Party/FreeRTOS/Source/stream_buffer.c **** 			if( ( pxStreamBuffer )->xTaskWaitingToReceive != NULL )						\
 118:Middlewares/Third_Party/FreeRTOS/Source/stream_buffer.c **** 			{																			\
 119:Middlewares/Third_Party/FreeRTOS/Source/stream_buffer.c **** 				( void ) xTaskNotifyFromISR( ( pxStreamBuffer )->xTaskWaitingToReceive,	\
 120:Middlewares/Third_Party/FreeRTOS/Source/stream_buffer.c **** 											 ( uint32_t ) 0,							\
 121:Middlewares/Third_Party/FreeRTOS/Source/stream_buffer.c **** 											 eNoAction,									\
 122:Middlewares/Third_Party/FreeRTOS/Source/stream_buffer.c **** 											 pxHigherPriorityTaskWoken );				\
 123:Middlewares/Third_Party/FreeRTOS/Source/stream_buffer.c **** 				( pxStreamBuffer )->xTaskWaitingToReceive = NULL;						\
 124:Middlewares/Third_Party/FreeRTOS/Source/stream_buffer.c **** 			}																			\
 125:Middlewares/Third_Party/FreeRTOS/Source/stream_buffer.c **** 		}																				\
 126:Middlewares/Third_Party/FreeRTOS/Source/stream_buffer.c **** 		portCLEAR_INTERRUPT_MASK_FROM_ISR( uxSavedInterruptStatus );					\
 127:Middlewares/Third_Party/FreeRTOS/Source/stream_buffer.c **** 	}
 128:Middlewares/Third_Party/FreeRTOS/Source/stream_buffer.c **** #endif /* sbSEND_COMPLETE_FROM_ISR */
 129:Middlewares/Third_Party/FreeRTOS/Source/stream_buffer.c **** /*lint -restore (9026) */
 130:Middlewares/Third_Party/FreeRTOS/Source/stream_buffer.c **** 
 131:Middlewares/Third_Party/FreeRTOS/Source/stream_buffer.c **** /* The number of bytes used to hold the length of a message in the buffer. */
 132:Middlewares/Third_Party/FreeRTOS/Source/stream_buffer.c **** #define sbBYTES_TO_STORE_MESSAGE_LENGTH ( sizeof( configMESSAGE_BUFFER_LENGTH_TYPE ) )
 133:Middlewares/Third_Party/FreeRTOS/Source/stream_buffer.c **** 
 134:Middlewares/Third_Party/FreeRTOS/Source/stream_buffer.c **** /* Bits stored in the ucFlags field of the stream buffer. */
 135:Middlewares/Third_Party/FreeRTOS/Source/stream_buffer.c **** #define sbFLAGS_IS_MESSAGE_BUFFER		( ( uint8_t ) 1 ) /* Set if the stream buffer was created as a m
 136:Middlewares/Third_Party/FreeRTOS/Source/stream_buffer.c **** #define sbFLAGS_IS_STATICALLY_ALLOCATED ( ( uint8_t ) 2 ) /* Set if the stream buffer was created u
 137:Middlewares/Third_Party/FreeRTOS/Source/stream_buffer.c **** 
 138:Middlewares/Third_Party/FreeRTOS/Source/stream_buffer.c **** /*-----------------------------------------------------------*/
 139:Middlewares/Third_Party/FreeRTOS/Source/stream_buffer.c **** 
 140:Middlewares/Third_Party/FreeRTOS/Source/stream_buffer.c **** /* Structure that hold state information on the buffer. */
 141:Middlewares/Third_Party/FreeRTOS/Source/stream_buffer.c **** typedef struct StreamBufferDef_t /*lint !e9058 Style convention uses tag. */
 142:Middlewares/Third_Party/FreeRTOS/Source/stream_buffer.c **** {
 143:Middlewares/Third_Party/FreeRTOS/Source/stream_buffer.c **** 	volatile size_t xTail;				/* Index to the next item to read within the buffer. */
 144:Middlewares/Third_Party/FreeRTOS/Source/stream_buffer.c **** 	volatile size_t xHead;				/* Index to the next item to write within the buffer. */
 145:Middlewares/Third_Party/FreeRTOS/Source/stream_buffer.c **** 	size_t xLength;						/* The length of the buffer pointed to by pucBuffer. */
 146:Middlewares/Third_Party/FreeRTOS/Source/stream_buffer.c **** 	size_t xTriggerLevelBytes;			/* The number of bytes that must be in the stream buffer before a tas
ARM GAS  C:\Users\Lenovo\AppData\Local\Temp\ccRNOCMD.s 			page 4


 147:Middlewares/Third_Party/FreeRTOS/Source/stream_buffer.c **** 	volatile TaskHandle_t xTaskWaitingToReceive; /* Holds the handle of a task waiting for data, or NU
 148:Middlewares/Third_Party/FreeRTOS/Source/stream_buffer.c **** 	volatile TaskHandle_t xTaskWaitingToSend;	/* Holds the handle of a task waiting to send data to a 
 149:Middlewares/Third_Party/FreeRTOS/Source/stream_buffer.c **** 	uint8_t *pucBuffer;					/* Points to the buffer itself - that is - the RAM that stores the data pa
 150:Middlewares/Third_Party/FreeRTOS/Source/stream_buffer.c **** 	uint8_t ucFlags;
 151:Middlewares/Third_Party/FreeRTOS/Source/stream_buffer.c **** 
 152:Middlewares/Third_Party/FreeRTOS/Source/stream_buffer.c **** 	#if ( configUSE_TRACE_FACILITY == 1 )
 153:Middlewares/Third_Party/FreeRTOS/Source/stream_buffer.c **** 		UBaseType_t uxStreamBufferNumber;		/* Used for tracing purposes. */
 154:Middlewares/Third_Party/FreeRTOS/Source/stream_buffer.c **** 	#endif
 155:Middlewares/Third_Party/FreeRTOS/Source/stream_buffer.c **** } StreamBuffer_t;
 156:Middlewares/Third_Party/FreeRTOS/Source/stream_buffer.c **** 
 157:Middlewares/Third_Party/FreeRTOS/Source/stream_buffer.c **** /*
 158:Middlewares/Third_Party/FreeRTOS/Source/stream_buffer.c ****  * The number of bytes available to be read from the buffer.
 159:Middlewares/Third_Party/FreeRTOS/Source/stream_buffer.c ****  */
 160:Middlewares/Third_Party/FreeRTOS/Source/stream_buffer.c **** static size_t prvBytesInBuffer( const StreamBuffer_t * const pxStreamBuffer ) PRIVILEGED_FUNCTION;
 161:Middlewares/Third_Party/FreeRTOS/Source/stream_buffer.c **** 
 162:Middlewares/Third_Party/FreeRTOS/Source/stream_buffer.c **** /*
 163:Middlewares/Third_Party/FreeRTOS/Source/stream_buffer.c ****  * Add xCount bytes from pucData into the pxStreamBuffer message buffer.
 164:Middlewares/Third_Party/FreeRTOS/Source/stream_buffer.c ****  * Returns the number of bytes written, which will either equal xCount in the
 165:Middlewares/Third_Party/FreeRTOS/Source/stream_buffer.c ****  * success case, or 0 if there was not enough space in the buffer (in which case
 166:Middlewares/Third_Party/FreeRTOS/Source/stream_buffer.c ****  * no data is written into the buffer).
 167:Middlewares/Third_Party/FreeRTOS/Source/stream_buffer.c ****  */
 168:Middlewares/Third_Party/FreeRTOS/Source/stream_buffer.c **** static size_t prvWriteBytesToBuffer( StreamBuffer_t * const pxStreamBuffer, const uint8_t *pucData,
 169:Middlewares/Third_Party/FreeRTOS/Source/stream_buffer.c **** 
 170:Middlewares/Third_Party/FreeRTOS/Source/stream_buffer.c **** /*
 171:Middlewares/Third_Party/FreeRTOS/Source/stream_buffer.c ****  * If the stream buffer is being used as a message buffer, then reads an entire
 172:Middlewares/Third_Party/FreeRTOS/Source/stream_buffer.c ****  * message out of the buffer.  If the stream buffer is being used as a stream
 173:Middlewares/Third_Party/FreeRTOS/Source/stream_buffer.c ****  * buffer then read as many bytes as possible from the buffer.
 174:Middlewares/Third_Party/FreeRTOS/Source/stream_buffer.c ****  * prvReadBytesFromBuffer() is called to actually extract the bytes from the
 175:Middlewares/Third_Party/FreeRTOS/Source/stream_buffer.c ****  * buffer's data storage area.
 176:Middlewares/Third_Party/FreeRTOS/Source/stream_buffer.c ****  */
 177:Middlewares/Third_Party/FreeRTOS/Source/stream_buffer.c **** static size_t prvReadMessageFromBuffer( StreamBuffer_t *pxStreamBuffer,
 178:Middlewares/Third_Party/FreeRTOS/Source/stream_buffer.c **** 										void *pvRxData,
 179:Middlewares/Third_Party/FreeRTOS/Source/stream_buffer.c **** 										size_t xBufferLengthBytes,
 180:Middlewares/Third_Party/FreeRTOS/Source/stream_buffer.c **** 										size_t xBytesAvailable,
 181:Middlewares/Third_Party/FreeRTOS/Source/stream_buffer.c **** 										size_t xBytesToStoreMessageLength ) PRIVILEGED_FUNCTION;
 182:Middlewares/Third_Party/FreeRTOS/Source/stream_buffer.c **** 
 183:Middlewares/Third_Party/FreeRTOS/Source/stream_buffer.c **** /*
 184:Middlewares/Third_Party/FreeRTOS/Source/stream_buffer.c ****  * If the stream buffer is being used as a message buffer, then writes an entire
 185:Middlewares/Third_Party/FreeRTOS/Source/stream_buffer.c ****  * message to the buffer.  If the stream buffer is being used as a stream
 186:Middlewares/Third_Party/FreeRTOS/Source/stream_buffer.c ****  * buffer then write as many bytes as possible to the buffer.
 187:Middlewares/Third_Party/FreeRTOS/Source/stream_buffer.c ****  * prvWriteBytestoBuffer() is called to actually send the bytes to the buffer's
 188:Middlewares/Third_Party/FreeRTOS/Source/stream_buffer.c ****  * data storage area.
 189:Middlewares/Third_Party/FreeRTOS/Source/stream_buffer.c ****  */
 190:Middlewares/Third_Party/FreeRTOS/Source/stream_buffer.c **** static size_t prvWriteMessageToBuffer(  StreamBuffer_t * const pxStreamBuffer,
 191:Middlewares/Third_Party/FreeRTOS/Source/stream_buffer.c **** 										const void * pvTxData,
 192:Middlewares/Third_Party/FreeRTOS/Source/stream_buffer.c **** 										size_t xDataLengthBytes,
 193:Middlewares/Third_Party/FreeRTOS/Source/stream_buffer.c **** 										size_t xSpace,
 194:Middlewares/Third_Party/FreeRTOS/Source/stream_buffer.c **** 										size_t xRequiredSpace ) PRIVILEGED_FUNCTION;
 195:Middlewares/Third_Party/FreeRTOS/Source/stream_buffer.c **** 
 196:Middlewares/Third_Party/FreeRTOS/Source/stream_buffer.c **** /*
 197:Middlewares/Third_Party/FreeRTOS/Source/stream_buffer.c ****  * Read xMaxCount bytes from the pxStreamBuffer message buffer and write them
 198:Middlewares/Third_Party/FreeRTOS/Source/stream_buffer.c ****  * to pucData.
 199:Middlewares/Third_Party/FreeRTOS/Source/stream_buffer.c ****  */
 200:Middlewares/Third_Party/FreeRTOS/Source/stream_buffer.c **** static size_t prvReadBytesFromBuffer( StreamBuffer_t *pxStreamBuffer,
 201:Middlewares/Third_Party/FreeRTOS/Source/stream_buffer.c **** 									  uint8_t *pucData,
 202:Middlewares/Third_Party/FreeRTOS/Source/stream_buffer.c **** 									  size_t xMaxCount,
 203:Middlewares/Third_Party/FreeRTOS/Source/stream_buffer.c **** 									  size_t xBytesAvailable ) PRIVILEGED_FUNCTION;
ARM GAS  C:\Users\Lenovo\AppData\Local\Temp\ccRNOCMD.s 			page 5


 204:Middlewares/Third_Party/FreeRTOS/Source/stream_buffer.c **** 
 205:Middlewares/Third_Party/FreeRTOS/Source/stream_buffer.c **** /*
 206:Middlewares/Third_Party/FreeRTOS/Source/stream_buffer.c ****  * Called by both pxStreamBufferCreate() and pxStreamBufferCreateStatic() to
 207:Middlewares/Third_Party/FreeRTOS/Source/stream_buffer.c ****  * initialise the members of the newly created stream buffer structure.
 208:Middlewares/Third_Party/FreeRTOS/Source/stream_buffer.c ****  */
 209:Middlewares/Third_Party/FreeRTOS/Source/stream_buffer.c **** static void prvInitialiseNewStreamBuffer( StreamBuffer_t * const pxStreamBuffer,
 210:Middlewares/Third_Party/FreeRTOS/Source/stream_buffer.c **** 										  uint8_t * const pucBuffer,
 211:Middlewares/Third_Party/FreeRTOS/Source/stream_buffer.c **** 										  size_t xBufferSizeBytes,
 212:Middlewares/Third_Party/FreeRTOS/Source/stream_buffer.c **** 										  size_t xTriggerLevelBytes,
 213:Middlewares/Third_Party/FreeRTOS/Source/stream_buffer.c **** 										  uint8_t ucFlags ) PRIVILEGED_FUNCTION;
 214:Middlewares/Third_Party/FreeRTOS/Source/stream_buffer.c **** 
 215:Middlewares/Third_Party/FreeRTOS/Source/stream_buffer.c **** /*-----------------------------------------------------------*/
 216:Middlewares/Third_Party/FreeRTOS/Source/stream_buffer.c **** 
 217:Middlewares/Third_Party/FreeRTOS/Source/stream_buffer.c **** #if( configSUPPORT_DYNAMIC_ALLOCATION == 1 )
 218:Middlewares/Third_Party/FreeRTOS/Source/stream_buffer.c **** 
 219:Middlewares/Third_Party/FreeRTOS/Source/stream_buffer.c **** 	StreamBufferHandle_t xStreamBufferGenericCreate( size_t xBufferSizeBytes, size_t xTriggerLevelByte
 220:Middlewares/Third_Party/FreeRTOS/Source/stream_buffer.c **** 	{
  27              		.loc 1 220 2
  28              		.cfi_startproc
  29              		@ args = 0, pretend = 0, frame = 40
  30              		@ frame_needed = 1, uses_anonymous_args = 0
  31 0000 80B5     		push	{r7, lr}
  32              	.LCFI0:
  33              		.cfi_def_cfa_offset 8
  34              		.cfi_offset 7, -8
  35              		.cfi_offset 14, -4
  36 0002 8CB0     		sub	sp, sp, #48
  37              	.LCFI1:
  38              		.cfi_def_cfa_offset 56
  39 0004 02AF     		add	r7, sp, #8
  40              	.LCFI2:
  41              		.cfi_def_cfa 7, 48
  42 0006 F860     		str	r0, [r7, #12]
  43 0008 B960     		str	r1, [r7, #8]
  44 000a 7A60     		str	r2, [r7, #4]
 221:Middlewares/Third_Party/FreeRTOS/Source/stream_buffer.c **** 	uint8_t *pucAllocatedMemory;
 222:Middlewares/Third_Party/FreeRTOS/Source/stream_buffer.c **** 	uint8_t ucFlags;
 223:Middlewares/Third_Party/FreeRTOS/Source/stream_buffer.c **** 
 224:Middlewares/Third_Party/FreeRTOS/Source/stream_buffer.c **** 		/* In case the stream buffer is going to be used as a message buffer
 225:Middlewares/Third_Party/FreeRTOS/Source/stream_buffer.c **** 		(that is, it will hold discrete messages with a little meta data that
 226:Middlewares/Third_Party/FreeRTOS/Source/stream_buffer.c **** 		says how big the next message is) check the buffer will be large enough
 227:Middlewares/Third_Party/FreeRTOS/Source/stream_buffer.c **** 		to hold at least one message. */
 228:Middlewares/Third_Party/FreeRTOS/Source/stream_buffer.c **** 		if( xIsMessageBuffer == pdTRUE )
  45              		.loc 1 228 5
  46 000c 7B68     		ldr	r3, [r7, #4]
  47 000e 012B     		cmp	r3, #1
  48 0010 10D1     		bne	.L2
 229:Middlewares/Third_Party/FreeRTOS/Source/stream_buffer.c **** 		{
 230:Middlewares/Third_Party/FreeRTOS/Source/stream_buffer.c **** 			/* Is a message buffer but not statically allocated. */
 231:Middlewares/Third_Party/FreeRTOS/Source/stream_buffer.c **** 			ucFlags = sbFLAGS_IS_MESSAGE_BUFFER;
  49              		.loc 1 231 12
  50 0012 0123     		movs	r3, #1
  51 0014 87F82730 		strb	r3, [r7, #39]
 232:Middlewares/Third_Party/FreeRTOS/Source/stream_buffer.c **** 			configASSERT( xBufferSizeBytes > sbBYTES_TO_STORE_MESSAGE_LENGTH );
  52              		.loc 1 232 4
  53 0018 FB68     		ldr	r3, [r7, #12]
  54 001a 042B     		cmp	r3, #4
ARM GAS  C:\Users\Lenovo\AppData\Local\Temp\ccRNOCMD.s 			page 6


  55 001c 1BD8     		bhi	.L3
  56              	.LBB96:
  57              	.LBB97:
  58              		.file 2 "Middlewares/Third_Party/FreeRTOS/Source/portable/GCC/ARM_CM3/portmacro.h"
   1:Middlewares/Third_Party/FreeRTOS/Source/portable/GCC/ARM_CM3/portmacro.h **** /*
   2:Middlewares/Third_Party/FreeRTOS/Source/portable/GCC/ARM_CM3/portmacro.h ****  * FreeRTOS Kernel V10.2.1
   3:Middlewares/Third_Party/FreeRTOS/Source/portable/GCC/ARM_CM3/portmacro.h ****  * Copyright (C) 2019 Amazon.com, Inc. or its affiliates.  All Rights Reserved.
   4:Middlewares/Third_Party/FreeRTOS/Source/portable/GCC/ARM_CM3/portmacro.h ****  *
   5:Middlewares/Third_Party/FreeRTOS/Source/portable/GCC/ARM_CM3/portmacro.h ****  * Permission is hereby granted, free of charge, to any person obtaining a copy of
   6:Middlewares/Third_Party/FreeRTOS/Source/portable/GCC/ARM_CM3/portmacro.h ****  * this software and associated documentation files (the "Software"), to deal in
   7:Middlewares/Third_Party/FreeRTOS/Source/portable/GCC/ARM_CM3/portmacro.h ****  * the Software without restriction, including without limitation the rights to
   8:Middlewares/Third_Party/FreeRTOS/Source/portable/GCC/ARM_CM3/portmacro.h ****  * use, copy, modify, merge, publish, distribute, sublicense, and/or sell copies of
   9:Middlewares/Third_Party/FreeRTOS/Source/portable/GCC/ARM_CM3/portmacro.h ****  * the Software, and to permit persons to whom the Software is furnished to do so,
  10:Middlewares/Third_Party/FreeRTOS/Source/portable/GCC/ARM_CM3/portmacro.h ****  * subject to the following conditions:
  11:Middlewares/Third_Party/FreeRTOS/Source/portable/GCC/ARM_CM3/portmacro.h ****  *
  12:Middlewares/Third_Party/FreeRTOS/Source/portable/GCC/ARM_CM3/portmacro.h ****  * The above copyright notice and this permission notice shall be included in all
  13:Middlewares/Third_Party/FreeRTOS/Source/portable/GCC/ARM_CM3/portmacro.h ****  * copies or substantial portions of the Software.
  14:Middlewares/Third_Party/FreeRTOS/Source/portable/GCC/ARM_CM3/portmacro.h ****  *
  15:Middlewares/Third_Party/FreeRTOS/Source/portable/GCC/ARM_CM3/portmacro.h ****  * THE SOFTWARE IS PROVIDED "AS IS", WITHOUT WARRANTY OF ANY KIND, EXPRESS OR
  16:Middlewares/Third_Party/FreeRTOS/Source/portable/GCC/ARM_CM3/portmacro.h ****  * IMPLIED, INCLUDING BUT NOT LIMITED TO THE WARRANTIES OF MERCHANTABILITY, FITNESS
  17:Middlewares/Third_Party/FreeRTOS/Source/portable/GCC/ARM_CM3/portmacro.h ****  * FOR A PARTICULAR PURPOSE AND NONINFRINGEMENT. IN NO EVENT SHALL THE AUTHORS OR
  18:Middlewares/Third_Party/FreeRTOS/Source/portable/GCC/ARM_CM3/portmacro.h ****  * COPYRIGHT HOLDERS BE LIABLE FOR ANY CLAIM, DAMAGES OR OTHER LIABILITY, WHETHER
  19:Middlewares/Third_Party/FreeRTOS/Source/portable/GCC/ARM_CM3/portmacro.h ****  * IN AN ACTION OF CONTRACT, TORT OR OTHERWISE, ARISING FROM, OUT OF OR IN
  20:Middlewares/Third_Party/FreeRTOS/Source/portable/GCC/ARM_CM3/portmacro.h ****  * CONNECTION WITH THE SOFTWARE OR THE USE OR OTHER DEALINGS IN THE SOFTWARE.
  21:Middlewares/Third_Party/FreeRTOS/Source/portable/GCC/ARM_CM3/portmacro.h ****  *
  22:Middlewares/Third_Party/FreeRTOS/Source/portable/GCC/ARM_CM3/portmacro.h ****  * http://www.FreeRTOS.org
  23:Middlewares/Third_Party/FreeRTOS/Source/portable/GCC/ARM_CM3/portmacro.h ****  * http://aws.amazon.com/freertos
  24:Middlewares/Third_Party/FreeRTOS/Source/portable/GCC/ARM_CM3/portmacro.h ****  *
  25:Middlewares/Third_Party/FreeRTOS/Source/portable/GCC/ARM_CM3/portmacro.h ****  * 1 tab == 4 spaces!
  26:Middlewares/Third_Party/FreeRTOS/Source/portable/GCC/ARM_CM3/portmacro.h ****  */
  27:Middlewares/Third_Party/FreeRTOS/Source/portable/GCC/ARM_CM3/portmacro.h **** 
  28:Middlewares/Third_Party/FreeRTOS/Source/portable/GCC/ARM_CM3/portmacro.h **** 
  29:Middlewares/Third_Party/FreeRTOS/Source/portable/GCC/ARM_CM3/portmacro.h **** #ifndef PORTMACRO_H
  30:Middlewares/Third_Party/FreeRTOS/Source/portable/GCC/ARM_CM3/portmacro.h **** #define PORTMACRO_H
  31:Middlewares/Third_Party/FreeRTOS/Source/portable/GCC/ARM_CM3/portmacro.h **** 
  32:Middlewares/Third_Party/FreeRTOS/Source/portable/GCC/ARM_CM3/portmacro.h **** #ifdef __cplusplus
  33:Middlewares/Third_Party/FreeRTOS/Source/portable/GCC/ARM_CM3/portmacro.h **** extern "C" {
  34:Middlewares/Third_Party/FreeRTOS/Source/portable/GCC/ARM_CM3/portmacro.h **** #endif
  35:Middlewares/Third_Party/FreeRTOS/Source/portable/GCC/ARM_CM3/portmacro.h **** 
  36:Middlewares/Third_Party/FreeRTOS/Source/portable/GCC/ARM_CM3/portmacro.h **** /*-----------------------------------------------------------
  37:Middlewares/Third_Party/FreeRTOS/Source/portable/GCC/ARM_CM3/portmacro.h ****  * Port specific definitions.
  38:Middlewares/Third_Party/FreeRTOS/Source/portable/GCC/ARM_CM3/portmacro.h ****  *
  39:Middlewares/Third_Party/FreeRTOS/Source/portable/GCC/ARM_CM3/portmacro.h ****  * The settings in this file configure FreeRTOS correctly for the
  40:Middlewares/Third_Party/FreeRTOS/Source/portable/GCC/ARM_CM3/portmacro.h ****  * given hardware and compiler.
  41:Middlewares/Third_Party/FreeRTOS/Source/portable/GCC/ARM_CM3/portmacro.h ****  *
  42:Middlewares/Third_Party/FreeRTOS/Source/portable/GCC/ARM_CM3/portmacro.h ****  * These settings should not be altered.
  43:Middlewares/Third_Party/FreeRTOS/Source/portable/GCC/ARM_CM3/portmacro.h ****  *-----------------------------------------------------------
  44:Middlewares/Third_Party/FreeRTOS/Source/portable/GCC/ARM_CM3/portmacro.h ****  */
  45:Middlewares/Third_Party/FreeRTOS/Source/portable/GCC/ARM_CM3/portmacro.h **** 
  46:Middlewares/Third_Party/FreeRTOS/Source/portable/GCC/ARM_CM3/portmacro.h **** /* Type definitions. */
  47:Middlewares/Third_Party/FreeRTOS/Source/portable/GCC/ARM_CM3/portmacro.h **** #define portCHAR		char
  48:Middlewares/Third_Party/FreeRTOS/Source/portable/GCC/ARM_CM3/portmacro.h **** #define portFLOAT		float
  49:Middlewares/Third_Party/FreeRTOS/Source/portable/GCC/ARM_CM3/portmacro.h **** #define portDOUBLE		double
  50:Middlewares/Third_Party/FreeRTOS/Source/portable/GCC/ARM_CM3/portmacro.h **** #define portLONG		long
  51:Middlewares/Third_Party/FreeRTOS/Source/portable/GCC/ARM_CM3/portmacro.h **** #define portSHORT		short
  52:Middlewares/Third_Party/FreeRTOS/Source/portable/GCC/ARM_CM3/portmacro.h **** #define portSTACK_TYPE	uint32_t
  53:Middlewares/Third_Party/FreeRTOS/Source/portable/GCC/ARM_CM3/portmacro.h **** #define portBASE_TYPE	long
ARM GAS  C:\Users\Lenovo\AppData\Local\Temp\ccRNOCMD.s 			page 7


  54:Middlewares/Third_Party/FreeRTOS/Source/portable/GCC/ARM_CM3/portmacro.h **** 
  55:Middlewares/Third_Party/FreeRTOS/Source/portable/GCC/ARM_CM3/portmacro.h **** typedef portSTACK_TYPE StackType_t;
  56:Middlewares/Third_Party/FreeRTOS/Source/portable/GCC/ARM_CM3/portmacro.h **** typedef long BaseType_t;
  57:Middlewares/Third_Party/FreeRTOS/Source/portable/GCC/ARM_CM3/portmacro.h **** typedef unsigned long UBaseType_t;
  58:Middlewares/Third_Party/FreeRTOS/Source/portable/GCC/ARM_CM3/portmacro.h **** 
  59:Middlewares/Third_Party/FreeRTOS/Source/portable/GCC/ARM_CM3/portmacro.h **** #if( configUSE_16_BIT_TICKS == 1 )
  60:Middlewares/Third_Party/FreeRTOS/Source/portable/GCC/ARM_CM3/portmacro.h **** 	typedef uint16_t TickType_t;
  61:Middlewares/Third_Party/FreeRTOS/Source/portable/GCC/ARM_CM3/portmacro.h **** 	#define portMAX_DELAY ( TickType_t ) 0xffff
  62:Middlewares/Third_Party/FreeRTOS/Source/portable/GCC/ARM_CM3/portmacro.h **** #else
  63:Middlewares/Third_Party/FreeRTOS/Source/portable/GCC/ARM_CM3/portmacro.h **** 	typedef uint32_t TickType_t;
  64:Middlewares/Third_Party/FreeRTOS/Source/portable/GCC/ARM_CM3/portmacro.h **** 	#define portMAX_DELAY ( TickType_t ) 0xffffffffUL
  65:Middlewares/Third_Party/FreeRTOS/Source/portable/GCC/ARM_CM3/portmacro.h **** 
  66:Middlewares/Third_Party/FreeRTOS/Source/portable/GCC/ARM_CM3/portmacro.h **** 	/* 32-bit tick type on a 32-bit architecture, so reads of the tick count do
  67:Middlewares/Third_Party/FreeRTOS/Source/portable/GCC/ARM_CM3/portmacro.h **** 	not need to be guarded with a critical section. */
  68:Middlewares/Third_Party/FreeRTOS/Source/portable/GCC/ARM_CM3/portmacro.h **** 	#define portTICK_TYPE_IS_ATOMIC 1
  69:Middlewares/Third_Party/FreeRTOS/Source/portable/GCC/ARM_CM3/portmacro.h **** #endif
  70:Middlewares/Third_Party/FreeRTOS/Source/portable/GCC/ARM_CM3/portmacro.h **** /*-----------------------------------------------------------*/
  71:Middlewares/Third_Party/FreeRTOS/Source/portable/GCC/ARM_CM3/portmacro.h **** 
  72:Middlewares/Third_Party/FreeRTOS/Source/portable/GCC/ARM_CM3/portmacro.h **** /* Architecture specifics. */
  73:Middlewares/Third_Party/FreeRTOS/Source/portable/GCC/ARM_CM3/portmacro.h **** #define portSTACK_GROWTH			( -1 )
  74:Middlewares/Third_Party/FreeRTOS/Source/portable/GCC/ARM_CM3/portmacro.h **** #define portTICK_PERIOD_MS			( ( TickType_t ) 1000 / configTICK_RATE_HZ )
  75:Middlewares/Third_Party/FreeRTOS/Source/portable/GCC/ARM_CM3/portmacro.h **** #define portBYTE_ALIGNMENT			8
  76:Middlewares/Third_Party/FreeRTOS/Source/portable/GCC/ARM_CM3/portmacro.h **** /*-----------------------------------------------------------*/
  77:Middlewares/Third_Party/FreeRTOS/Source/portable/GCC/ARM_CM3/portmacro.h **** 
  78:Middlewares/Third_Party/FreeRTOS/Source/portable/GCC/ARM_CM3/portmacro.h **** /* Scheduler utilities. */
  79:Middlewares/Third_Party/FreeRTOS/Source/portable/GCC/ARM_CM3/portmacro.h **** #define portYIELD() 															\
  80:Middlewares/Third_Party/FreeRTOS/Source/portable/GCC/ARM_CM3/portmacro.h **** {																				\
  81:Middlewares/Third_Party/FreeRTOS/Source/portable/GCC/ARM_CM3/portmacro.h **** 	/* Set a PendSV to request a context switch. */								\
  82:Middlewares/Third_Party/FreeRTOS/Source/portable/GCC/ARM_CM3/portmacro.h **** 	portNVIC_INT_CTRL_REG = portNVIC_PENDSVSET_BIT;								\
  83:Middlewares/Third_Party/FreeRTOS/Source/portable/GCC/ARM_CM3/portmacro.h **** 																				\
  84:Middlewares/Third_Party/FreeRTOS/Source/portable/GCC/ARM_CM3/portmacro.h **** 	/* Barriers are normally not required but do ensure the code is completely	\
  85:Middlewares/Third_Party/FreeRTOS/Source/portable/GCC/ARM_CM3/portmacro.h **** 	within the specified behaviour for the architecture. */						\
  86:Middlewares/Third_Party/FreeRTOS/Source/portable/GCC/ARM_CM3/portmacro.h **** 	__asm volatile( "dsb" ::: "memory" );										\
  87:Middlewares/Third_Party/FreeRTOS/Source/portable/GCC/ARM_CM3/portmacro.h **** 	__asm volatile( "isb" );													\
  88:Middlewares/Third_Party/FreeRTOS/Source/portable/GCC/ARM_CM3/portmacro.h **** }
  89:Middlewares/Third_Party/FreeRTOS/Source/portable/GCC/ARM_CM3/portmacro.h **** 
  90:Middlewares/Third_Party/FreeRTOS/Source/portable/GCC/ARM_CM3/portmacro.h **** #define portNVIC_INT_CTRL_REG		( * ( ( volatile uint32_t * ) 0xe000ed04 ) )
  91:Middlewares/Third_Party/FreeRTOS/Source/portable/GCC/ARM_CM3/portmacro.h **** #define portNVIC_PENDSVSET_BIT		( 1UL << 28UL )
  92:Middlewares/Third_Party/FreeRTOS/Source/portable/GCC/ARM_CM3/portmacro.h **** #define portEND_SWITCHING_ISR( xSwitchRequired ) if( xSwitchRequired != pdFALSE ) portYIELD()
  93:Middlewares/Third_Party/FreeRTOS/Source/portable/GCC/ARM_CM3/portmacro.h **** #define portYIELD_FROM_ISR( x ) portEND_SWITCHING_ISR( x )
  94:Middlewares/Third_Party/FreeRTOS/Source/portable/GCC/ARM_CM3/portmacro.h **** /*-----------------------------------------------------------*/
  95:Middlewares/Third_Party/FreeRTOS/Source/portable/GCC/ARM_CM3/portmacro.h **** 
  96:Middlewares/Third_Party/FreeRTOS/Source/portable/GCC/ARM_CM3/portmacro.h **** /* Critical section management. */
  97:Middlewares/Third_Party/FreeRTOS/Source/portable/GCC/ARM_CM3/portmacro.h **** extern void vPortEnterCritical( void );
  98:Middlewares/Third_Party/FreeRTOS/Source/portable/GCC/ARM_CM3/portmacro.h **** extern void vPortExitCritical( void );
  99:Middlewares/Third_Party/FreeRTOS/Source/portable/GCC/ARM_CM3/portmacro.h **** #define portSET_INTERRUPT_MASK_FROM_ISR()		ulPortRaiseBASEPRI()
 100:Middlewares/Third_Party/FreeRTOS/Source/portable/GCC/ARM_CM3/portmacro.h **** #define portCLEAR_INTERRUPT_MASK_FROM_ISR(x)	vPortSetBASEPRI(x)
 101:Middlewares/Third_Party/FreeRTOS/Source/portable/GCC/ARM_CM3/portmacro.h **** #define portDISABLE_INTERRUPTS()				vPortRaiseBASEPRI()
 102:Middlewares/Third_Party/FreeRTOS/Source/portable/GCC/ARM_CM3/portmacro.h **** #define portENABLE_INTERRUPTS()					vPortSetBASEPRI(0)
 103:Middlewares/Third_Party/FreeRTOS/Source/portable/GCC/ARM_CM3/portmacro.h **** #define portENTER_CRITICAL()					vPortEnterCritical()
 104:Middlewares/Third_Party/FreeRTOS/Source/portable/GCC/ARM_CM3/portmacro.h **** #define portEXIT_CRITICAL()						vPortExitCritical()
 105:Middlewares/Third_Party/FreeRTOS/Source/portable/GCC/ARM_CM3/portmacro.h **** 
 106:Middlewares/Third_Party/FreeRTOS/Source/portable/GCC/ARM_CM3/portmacro.h **** /*-----------------------------------------------------------*/
 107:Middlewares/Third_Party/FreeRTOS/Source/portable/GCC/ARM_CM3/portmacro.h **** 
 108:Middlewares/Third_Party/FreeRTOS/Source/portable/GCC/ARM_CM3/portmacro.h **** /* Task function macros as described on the FreeRTOS.org WEB site.  These are
 109:Middlewares/Third_Party/FreeRTOS/Source/portable/GCC/ARM_CM3/portmacro.h **** not necessary for to use this port.  They are defined so the common demo files
 110:Middlewares/Third_Party/FreeRTOS/Source/portable/GCC/ARM_CM3/portmacro.h **** (which build with all the ports) will build. */
ARM GAS  C:\Users\Lenovo\AppData\Local\Temp\ccRNOCMD.s 			page 8


 111:Middlewares/Third_Party/FreeRTOS/Source/portable/GCC/ARM_CM3/portmacro.h **** #define portTASK_FUNCTION_PROTO( vFunction, pvParameters ) void vFunction( void *pvParameters )
 112:Middlewares/Third_Party/FreeRTOS/Source/portable/GCC/ARM_CM3/portmacro.h **** #define portTASK_FUNCTION( vFunction, pvParameters ) void vFunction( void *pvParameters )
 113:Middlewares/Third_Party/FreeRTOS/Source/portable/GCC/ARM_CM3/portmacro.h **** /*-----------------------------------------------------------*/
 114:Middlewares/Third_Party/FreeRTOS/Source/portable/GCC/ARM_CM3/portmacro.h **** 
 115:Middlewares/Third_Party/FreeRTOS/Source/portable/GCC/ARM_CM3/portmacro.h **** /* Tickless idle/low power functionality. */
 116:Middlewares/Third_Party/FreeRTOS/Source/portable/GCC/ARM_CM3/portmacro.h **** #ifndef portSUPPRESS_TICKS_AND_SLEEP
 117:Middlewares/Third_Party/FreeRTOS/Source/portable/GCC/ARM_CM3/portmacro.h **** 	extern void vPortSuppressTicksAndSleep( TickType_t xExpectedIdleTime );
 118:Middlewares/Third_Party/FreeRTOS/Source/portable/GCC/ARM_CM3/portmacro.h **** 	#define portSUPPRESS_TICKS_AND_SLEEP( xExpectedIdleTime ) vPortSuppressTicksAndSleep( xExpectedIdl
 119:Middlewares/Third_Party/FreeRTOS/Source/portable/GCC/ARM_CM3/portmacro.h **** #endif
 120:Middlewares/Third_Party/FreeRTOS/Source/portable/GCC/ARM_CM3/portmacro.h **** /*-----------------------------------------------------------*/
 121:Middlewares/Third_Party/FreeRTOS/Source/portable/GCC/ARM_CM3/portmacro.h **** 
 122:Middlewares/Third_Party/FreeRTOS/Source/portable/GCC/ARM_CM3/portmacro.h **** /* Architecture specific optimisations. */
 123:Middlewares/Third_Party/FreeRTOS/Source/portable/GCC/ARM_CM3/portmacro.h **** #ifndef configUSE_PORT_OPTIMISED_TASK_SELECTION
 124:Middlewares/Third_Party/FreeRTOS/Source/portable/GCC/ARM_CM3/portmacro.h **** 	#define configUSE_PORT_OPTIMISED_TASK_SELECTION 1
 125:Middlewares/Third_Party/FreeRTOS/Source/portable/GCC/ARM_CM3/portmacro.h **** #endif
 126:Middlewares/Third_Party/FreeRTOS/Source/portable/GCC/ARM_CM3/portmacro.h **** 
 127:Middlewares/Third_Party/FreeRTOS/Source/portable/GCC/ARM_CM3/portmacro.h **** #if configUSE_PORT_OPTIMISED_TASK_SELECTION == 1
 128:Middlewares/Third_Party/FreeRTOS/Source/portable/GCC/ARM_CM3/portmacro.h **** 
 129:Middlewares/Third_Party/FreeRTOS/Source/portable/GCC/ARM_CM3/portmacro.h **** 	/* Generic helper function. */
 130:Middlewares/Third_Party/FreeRTOS/Source/portable/GCC/ARM_CM3/portmacro.h **** 	__attribute__( ( always_inline ) ) static inline uint8_t ucPortCountLeadingZeros( uint32_t ulBitma
 131:Middlewares/Third_Party/FreeRTOS/Source/portable/GCC/ARM_CM3/portmacro.h **** 	{
 132:Middlewares/Third_Party/FreeRTOS/Source/portable/GCC/ARM_CM3/portmacro.h **** 	uint8_t ucReturn;
 133:Middlewares/Third_Party/FreeRTOS/Source/portable/GCC/ARM_CM3/portmacro.h **** 
 134:Middlewares/Third_Party/FreeRTOS/Source/portable/GCC/ARM_CM3/portmacro.h **** 		__asm volatile ( "clz %0, %1" : "=r" ( ucReturn ) : "r" ( ulBitmap ) : "memory" );
 135:Middlewares/Third_Party/FreeRTOS/Source/portable/GCC/ARM_CM3/portmacro.h **** 		return ucReturn;
 136:Middlewares/Third_Party/FreeRTOS/Source/portable/GCC/ARM_CM3/portmacro.h **** 	}
 137:Middlewares/Third_Party/FreeRTOS/Source/portable/GCC/ARM_CM3/portmacro.h **** 
 138:Middlewares/Third_Party/FreeRTOS/Source/portable/GCC/ARM_CM3/portmacro.h **** 	/* Check the configuration. */
 139:Middlewares/Third_Party/FreeRTOS/Source/portable/GCC/ARM_CM3/portmacro.h **** 	#if( configMAX_PRIORITIES > 32 )
 140:Middlewares/Third_Party/FreeRTOS/Source/portable/GCC/ARM_CM3/portmacro.h **** 		#error configUSE_PORT_OPTIMISED_TASK_SELECTION can only be set to 1 when configMAX_PRIORITIES is 
 141:Middlewares/Third_Party/FreeRTOS/Source/portable/GCC/ARM_CM3/portmacro.h **** 	#endif
 142:Middlewares/Third_Party/FreeRTOS/Source/portable/GCC/ARM_CM3/portmacro.h **** 
 143:Middlewares/Third_Party/FreeRTOS/Source/portable/GCC/ARM_CM3/portmacro.h **** 	/* Store/clear the ready priorities in a bit map. */
 144:Middlewares/Third_Party/FreeRTOS/Source/portable/GCC/ARM_CM3/portmacro.h **** 	#define portRECORD_READY_PRIORITY( uxPriority, uxReadyPriorities ) ( uxReadyPriorities ) |= ( 1UL 
 145:Middlewares/Third_Party/FreeRTOS/Source/portable/GCC/ARM_CM3/portmacro.h **** 	#define portRESET_READY_PRIORITY( uxPriority, uxReadyPriorities ) ( uxReadyPriorities ) &= ~( 1UL 
 146:Middlewares/Third_Party/FreeRTOS/Source/portable/GCC/ARM_CM3/portmacro.h **** 
 147:Middlewares/Third_Party/FreeRTOS/Source/portable/GCC/ARM_CM3/portmacro.h **** 	/*-----------------------------------------------------------*/
 148:Middlewares/Third_Party/FreeRTOS/Source/portable/GCC/ARM_CM3/portmacro.h **** 
 149:Middlewares/Third_Party/FreeRTOS/Source/portable/GCC/ARM_CM3/portmacro.h **** 	#define portGET_HIGHEST_PRIORITY( uxTopPriority, uxReadyPriorities ) uxTopPriority = ( 31UL - ( ui
 150:Middlewares/Third_Party/FreeRTOS/Source/portable/GCC/ARM_CM3/portmacro.h **** 
 151:Middlewares/Third_Party/FreeRTOS/Source/portable/GCC/ARM_CM3/portmacro.h **** #endif /* configUSE_PORT_OPTIMISED_TASK_SELECTION */
 152:Middlewares/Third_Party/FreeRTOS/Source/portable/GCC/ARM_CM3/portmacro.h **** 
 153:Middlewares/Third_Party/FreeRTOS/Source/portable/GCC/ARM_CM3/portmacro.h **** /*-----------------------------------------------------------*/
 154:Middlewares/Third_Party/FreeRTOS/Source/portable/GCC/ARM_CM3/portmacro.h **** 
 155:Middlewares/Third_Party/FreeRTOS/Source/portable/GCC/ARM_CM3/portmacro.h **** #ifdef configASSERT
 156:Middlewares/Third_Party/FreeRTOS/Source/portable/GCC/ARM_CM3/portmacro.h **** 	void vPortValidateInterruptPriority( void );
 157:Middlewares/Third_Party/FreeRTOS/Source/portable/GCC/ARM_CM3/portmacro.h **** 	#define portASSERT_IF_INTERRUPT_PRIORITY_INVALID() 	vPortValidateInterruptPriority()
 158:Middlewares/Third_Party/FreeRTOS/Source/portable/GCC/ARM_CM3/portmacro.h **** #endif
 159:Middlewares/Third_Party/FreeRTOS/Source/portable/GCC/ARM_CM3/portmacro.h **** 
 160:Middlewares/Third_Party/FreeRTOS/Source/portable/GCC/ARM_CM3/portmacro.h **** /* portNOP() is not required by this port. */
 161:Middlewares/Third_Party/FreeRTOS/Source/portable/GCC/ARM_CM3/portmacro.h **** #define portNOP()
 162:Middlewares/Third_Party/FreeRTOS/Source/portable/GCC/ARM_CM3/portmacro.h **** 
 163:Middlewares/Third_Party/FreeRTOS/Source/portable/GCC/ARM_CM3/portmacro.h **** #define portINLINE	__inline
 164:Middlewares/Third_Party/FreeRTOS/Source/portable/GCC/ARM_CM3/portmacro.h **** 
 165:Middlewares/Third_Party/FreeRTOS/Source/portable/GCC/ARM_CM3/portmacro.h **** #ifndef portFORCE_INLINE
 166:Middlewares/Third_Party/FreeRTOS/Source/portable/GCC/ARM_CM3/portmacro.h **** 	#define portFORCE_INLINE inline __attribute__(( always_inline))
 167:Middlewares/Third_Party/FreeRTOS/Source/portable/GCC/ARM_CM3/portmacro.h **** #endif
ARM GAS  C:\Users\Lenovo\AppData\Local\Temp\ccRNOCMD.s 			page 9


 168:Middlewares/Third_Party/FreeRTOS/Source/portable/GCC/ARM_CM3/portmacro.h **** 
 169:Middlewares/Third_Party/FreeRTOS/Source/portable/GCC/ARM_CM3/portmacro.h **** portFORCE_INLINE static BaseType_t xPortIsInsideInterrupt( void )
 170:Middlewares/Third_Party/FreeRTOS/Source/portable/GCC/ARM_CM3/portmacro.h **** {
 171:Middlewares/Third_Party/FreeRTOS/Source/portable/GCC/ARM_CM3/portmacro.h **** uint32_t ulCurrentInterrupt;
 172:Middlewares/Third_Party/FreeRTOS/Source/portable/GCC/ARM_CM3/portmacro.h **** BaseType_t xReturn;
 173:Middlewares/Third_Party/FreeRTOS/Source/portable/GCC/ARM_CM3/portmacro.h **** 
 174:Middlewares/Third_Party/FreeRTOS/Source/portable/GCC/ARM_CM3/portmacro.h **** 	/* Obtain the number of the currently executing interrupt. */
 175:Middlewares/Third_Party/FreeRTOS/Source/portable/GCC/ARM_CM3/portmacro.h **** 	__asm volatile( "mrs %0, ipsr" : "=r"( ulCurrentInterrupt ) :: "memory" );
 176:Middlewares/Third_Party/FreeRTOS/Source/portable/GCC/ARM_CM3/portmacro.h **** 
 177:Middlewares/Third_Party/FreeRTOS/Source/portable/GCC/ARM_CM3/portmacro.h **** 	if( ulCurrentInterrupt == 0 )
 178:Middlewares/Third_Party/FreeRTOS/Source/portable/GCC/ARM_CM3/portmacro.h **** 	{
 179:Middlewares/Third_Party/FreeRTOS/Source/portable/GCC/ARM_CM3/portmacro.h **** 		xReturn = pdFALSE;
 180:Middlewares/Third_Party/FreeRTOS/Source/portable/GCC/ARM_CM3/portmacro.h **** 	}
 181:Middlewares/Third_Party/FreeRTOS/Source/portable/GCC/ARM_CM3/portmacro.h **** 	else
 182:Middlewares/Third_Party/FreeRTOS/Source/portable/GCC/ARM_CM3/portmacro.h **** 	{
 183:Middlewares/Third_Party/FreeRTOS/Source/portable/GCC/ARM_CM3/portmacro.h **** 		xReturn = pdTRUE;
 184:Middlewares/Third_Party/FreeRTOS/Source/portable/GCC/ARM_CM3/portmacro.h **** 	}
 185:Middlewares/Third_Party/FreeRTOS/Source/portable/GCC/ARM_CM3/portmacro.h **** 
 186:Middlewares/Third_Party/FreeRTOS/Source/portable/GCC/ARM_CM3/portmacro.h **** 	return xReturn;
 187:Middlewares/Third_Party/FreeRTOS/Source/portable/GCC/ARM_CM3/portmacro.h **** }
 188:Middlewares/Third_Party/FreeRTOS/Source/portable/GCC/ARM_CM3/portmacro.h **** 
 189:Middlewares/Third_Party/FreeRTOS/Source/portable/GCC/ARM_CM3/portmacro.h **** /*-----------------------------------------------------------*/
 190:Middlewares/Third_Party/FreeRTOS/Source/portable/GCC/ARM_CM3/portmacro.h **** 
 191:Middlewares/Third_Party/FreeRTOS/Source/portable/GCC/ARM_CM3/portmacro.h **** portFORCE_INLINE static void vPortRaiseBASEPRI( void )
 192:Middlewares/Third_Party/FreeRTOS/Source/portable/GCC/ARM_CM3/portmacro.h **** {
 193:Middlewares/Third_Party/FreeRTOS/Source/portable/GCC/ARM_CM3/portmacro.h **** uint32_t ulNewBASEPRI;
 194:Middlewares/Third_Party/FreeRTOS/Source/portable/GCC/ARM_CM3/portmacro.h **** 
 195:Middlewares/Third_Party/FreeRTOS/Source/portable/GCC/ARM_CM3/portmacro.h **** 	__asm volatile
  59              		.loc 2 195 2
  60              		.syntax unified
  61              	@ 195 "Middlewares/Third_Party/FreeRTOS/Source/portable/GCC/ARM_CM3/portmacro.h" 1
  62 001e 4FF05003 			mov r3, #80												
  63 0022 83F31188 		msr basepri, r3											
  64 0026 BFF36F8F 		isb														
  65 002a BFF34F8F 		dsb														
  66              	
  67              	@ 0 "" 2
  68              		.thumb
  69              		.syntax unified
  70 002e FB61     		str	r3, [r7, #28]
 196:Middlewares/Third_Party/FreeRTOS/Source/portable/GCC/ARM_CM3/portmacro.h **** 	(
 197:Middlewares/Third_Party/FreeRTOS/Source/portable/GCC/ARM_CM3/portmacro.h **** 		"	mov %0, %1												\n" \
 198:Middlewares/Third_Party/FreeRTOS/Source/portable/GCC/ARM_CM3/portmacro.h **** 		"	msr basepri, %0											\n" \
 199:Middlewares/Third_Party/FreeRTOS/Source/portable/GCC/ARM_CM3/portmacro.h **** 		"	isb														\n" \
 200:Middlewares/Third_Party/FreeRTOS/Source/portable/GCC/ARM_CM3/portmacro.h **** 		"	dsb														\n" \
 201:Middlewares/Third_Party/FreeRTOS/Source/portable/GCC/ARM_CM3/portmacro.h **** 		:"=r" (ulNewBASEPRI) : "i" ( configMAX_SYSCALL_INTERRUPT_PRIORITY ) : "memory"
 202:Middlewares/Third_Party/FreeRTOS/Source/portable/GCC/ARM_CM3/portmacro.h **** 	);
 203:Middlewares/Third_Party/FreeRTOS/Source/portable/GCC/ARM_CM3/portmacro.h **** }
  71              		.loc 2 203 1
  72 0030 00BF     		nop
  73              	.L4:
  74              	.LBE97:
  75              	.LBE96:
  76              		.loc 1 232 4 discriminator 1
  77 0032 FEE7     		b	.L4
  78              	.L2:
 233:Middlewares/Third_Party/FreeRTOS/Source/stream_buffer.c **** 		}
ARM GAS  C:\Users\Lenovo\AppData\Local\Temp\ccRNOCMD.s 			page 10


 234:Middlewares/Third_Party/FreeRTOS/Source/stream_buffer.c **** 		else
 235:Middlewares/Third_Party/FreeRTOS/Source/stream_buffer.c **** 		{
 236:Middlewares/Third_Party/FreeRTOS/Source/stream_buffer.c **** 			/* Not a message buffer and not statically allocated. */
 237:Middlewares/Third_Party/FreeRTOS/Source/stream_buffer.c **** 			ucFlags = 0;
  79              		.loc 1 237 12
  80 0034 0023     		movs	r3, #0
  81 0036 87F82730 		strb	r3, [r7, #39]
 238:Middlewares/Third_Party/FreeRTOS/Source/stream_buffer.c **** 			configASSERT( xBufferSizeBytes > 0 );
  82              		.loc 1 238 4
  83 003a FB68     		ldr	r3, [r7, #12]
  84 003c 002B     		cmp	r3, #0
  85 003e 0AD1     		bne	.L3
  86              	.LBB98:
  87              	.LBB99:
 195:Middlewares/Third_Party/FreeRTOS/Source/portable/GCC/ARM_CM3/portmacro.h **** 	(
  88              		.loc 2 195 2
  89              		.syntax unified
  90              	@ 195 "Middlewares/Third_Party/FreeRTOS/Source/portable/GCC/ARM_CM3/portmacro.h" 1
  91 0040 4FF05003 			mov r3, #80												
  92 0044 83F31188 		msr basepri, r3											
  93 0048 BFF36F8F 		isb														
  94 004c BFF34F8F 		dsb														
  95              	
  96              	@ 0 "" 2
  97              		.thumb
  98              		.syntax unified
  99 0050 BB61     		str	r3, [r7, #24]
 100              		.loc 2 203 1
 101 0052 00BF     		nop
 102              	.L5:
 103              	.LBE99:
 104              	.LBE98:
 105              		.loc 1 238 4 discriminator 2
 106 0054 FEE7     		b	.L5
 107              	.L3:
 239:Middlewares/Third_Party/FreeRTOS/Source/stream_buffer.c **** 		}
 240:Middlewares/Third_Party/FreeRTOS/Source/stream_buffer.c **** 		configASSERT( xTriggerLevelBytes <= xBufferSizeBytes );
 108              		.loc 1 240 3
 109 0056 BA68     		ldr	r2, [r7, #8]
 110 0058 FB68     		ldr	r3, [r7, #12]
 111 005a 9A42     		cmp	r2, r3
 112 005c 0AD9     		bls	.L6
 113              	.LBB100:
 114              	.LBB101:
 195:Middlewares/Third_Party/FreeRTOS/Source/portable/GCC/ARM_CM3/portmacro.h **** 	(
 115              		.loc 2 195 2
 116              		.syntax unified
 117              	@ 195 "Middlewares/Third_Party/FreeRTOS/Source/portable/GCC/ARM_CM3/portmacro.h" 1
 118 005e 4FF05003 			mov r3, #80												
 119 0062 83F31188 		msr basepri, r3											
 120 0066 BFF36F8F 		isb														
 121 006a BFF34F8F 		dsb														
 122              	
 123              	@ 0 "" 2
 124              		.thumb
 125              		.syntax unified
 126 006e 7B61     		str	r3, [r7, #20]
ARM GAS  C:\Users\Lenovo\AppData\Local\Temp\ccRNOCMD.s 			page 11


 127              		.loc 2 203 1
 128 0070 00BF     		nop
 129              	.L7:
 130              	.LBE101:
 131              	.LBE100:
 132              		.loc 1 240 3 discriminator 3
 133 0072 FEE7     		b	.L7
 134              	.L6:
 241:Middlewares/Third_Party/FreeRTOS/Source/stream_buffer.c **** 
 242:Middlewares/Third_Party/FreeRTOS/Source/stream_buffer.c **** 		/* A trigger level of 0 would cause a waiting task to unblock even when
 243:Middlewares/Third_Party/FreeRTOS/Source/stream_buffer.c **** 		the buffer was empty. */
 244:Middlewares/Third_Party/FreeRTOS/Source/stream_buffer.c **** 		if( xTriggerLevelBytes == ( size_t ) 0 )
 135              		.loc 1 244 5
 136 0074 BB68     		ldr	r3, [r7, #8]
 137 0076 002B     		cmp	r3, #0
 138 0078 01D1     		bne	.L8
 245:Middlewares/Third_Party/FreeRTOS/Source/stream_buffer.c **** 		{
 246:Middlewares/Third_Party/FreeRTOS/Source/stream_buffer.c **** 			xTriggerLevelBytes = ( size_t ) 1;
 139              		.loc 1 246 23
 140 007a 0123     		movs	r3, #1
 141 007c BB60     		str	r3, [r7, #8]
 142              	.L8:
 247:Middlewares/Third_Party/FreeRTOS/Source/stream_buffer.c **** 		}
 248:Middlewares/Third_Party/FreeRTOS/Source/stream_buffer.c **** 
 249:Middlewares/Third_Party/FreeRTOS/Source/stream_buffer.c **** 		/* A stream buffer requires a StreamBuffer_t structure and a buffer.
 250:Middlewares/Third_Party/FreeRTOS/Source/stream_buffer.c **** 		Both are allocated in a single call to pvPortMalloc().  The
 251:Middlewares/Third_Party/FreeRTOS/Source/stream_buffer.c **** 		StreamBuffer_t structure is placed at the start of the allocated memory
 252:Middlewares/Third_Party/FreeRTOS/Source/stream_buffer.c **** 		and the buffer follows immediately after.  The requested size is
 253:Middlewares/Third_Party/FreeRTOS/Source/stream_buffer.c **** 		incremented so the free space is returned as the user would expect -
 254:Middlewares/Third_Party/FreeRTOS/Source/stream_buffer.c **** 		this is a quirk of the implementation that means otherwise the free
 255:Middlewares/Third_Party/FreeRTOS/Source/stream_buffer.c **** 		space would be reported as one byte smaller than would be logically
 256:Middlewares/Third_Party/FreeRTOS/Source/stream_buffer.c **** 		expected. */
 257:Middlewares/Third_Party/FreeRTOS/Source/stream_buffer.c **** 		xBufferSizeBytes++;
 143              		.loc 1 257 19
 144 007e FB68     		ldr	r3, [r7, #12]
 145 0080 0133     		adds	r3, r3, #1
 146 0082 FB60     		str	r3, [r7, #12]
 258:Middlewares/Third_Party/FreeRTOS/Source/stream_buffer.c **** 		pucAllocatedMemory = ( uint8_t * ) pvPortMalloc( xBufferSizeBytes + sizeof( StreamBuffer_t ) ); /
 147              		.loc 1 258 38
 148 0084 FB68     		ldr	r3, [r7, #12]
 149 0086 2433     		adds	r3, r3, #36
 150 0088 1846     		mov	r0, r3
 151 008a FFF7FEFF 		bl	pvPortMalloc
 152 008e 3862     		str	r0, [r7, #32]
 259:Middlewares/Third_Party/FreeRTOS/Source/stream_buffer.c **** 
 260:Middlewares/Third_Party/FreeRTOS/Source/stream_buffer.c **** 		if( pucAllocatedMemory != NULL )
 153              		.loc 1 260 5
 154 0090 3B6A     		ldr	r3, [r7, #32]
 155 0092 002B     		cmp	r3, #0
 156 0094 0AD0     		beq	.L9
 261:Middlewares/Third_Party/FreeRTOS/Source/stream_buffer.c **** 		{
 262:Middlewares/Third_Party/FreeRTOS/Source/stream_buffer.c **** 			prvInitialiseNewStreamBuffer( ( StreamBuffer_t * ) pucAllocatedMemory, /* Structure at the start
 157              		.loc 1 262 4
 158 0096 3B6A     		ldr	r3, [r7, #32]
 159 0098 03F12401 		add	r1, r3, #36
 160 009c 97F82730 		ldrb	r3, [r7, #39]	@ zero_extendqisi2
 161 00a0 0093     		str	r3, [sp]
ARM GAS  C:\Users\Lenovo\AppData\Local\Temp\ccRNOCMD.s 			page 12


 162 00a2 BB68     		ldr	r3, [r7, #8]
 163 00a4 FA68     		ldr	r2, [r7, #12]
 164 00a6 386A     		ldr	r0, [r7, #32]
 165 00a8 FFF7FEFF 		bl	prvInitialiseNewStreamBuffer
 166              	.L9:
 263:Middlewares/Third_Party/FreeRTOS/Source/stream_buffer.c **** 										   pucAllocatedMemory + sizeof( StreamBuffer_t ),  /* Storage area follows. */ /*lint !e9
 264:Middlewares/Third_Party/FreeRTOS/Source/stream_buffer.c **** 										   xBufferSizeBytes,
 265:Middlewares/Third_Party/FreeRTOS/Source/stream_buffer.c **** 										   xTriggerLevelBytes,
 266:Middlewares/Third_Party/FreeRTOS/Source/stream_buffer.c **** 										   ucFlags );
 267:Middlewares/Third_Party/FreeRTOS/Source/stream_buffer.c **** 
 268:Middlewares/Third_Party/FreeRTOS/Source/stream_buffer.c **** 			traceSTREAM_BUFFER_CREATE( ( ( StreamBuffer_t * ) pucAllocatedMemory ), xIsMessageBuffer );
 269:Middlewares/Third_Party/FreeRTOS/Source/stream_buffer.c **** 		}
 270:Middlewares/Third_Party/FreeRTOS/Source/stream_buffer.c **** 		else
 271:Middlewares/Third_Party/FreeRTOS/Source/stream_buffer.c **** 		{
 272:Middlewares/Third_Party/FreeRTOS/Source/stream_buffer.c **** 			traceSTREAM_BUFFER_CREATE_FAILED( xIsMessageBuffer );
 273:Middlewares/Third_Party/FreeRTOS/Source/stream_buffer.c **** 		}
 274:Middlewares/Third_Party/FreeRTOS/Source/stream_buffer.c **** 
 275:Middlewares/Third_Party/FreeRTOS/Source/stream_buffer.c **** 		return ( StreamBufferHandle_t ) pucAllocatedMemory; /*lint !e9087 !e826 Safe cast as allocated me
 167              		.loc 1 275 10
 168 00ac 3B6A     		ldr	r3, [r7, #32]
 276:Middlewares/Third_Party/FreeRTOS/Source/stream_buffer.c **** 	}
 169              		.loc 1 276 2
 170 00ae 1846     		mov	r0, r3
 171 00b0 2837     		adds	r7, r7, #40
 172              	.LCFI3:
 173              		.cfi_def_cfa_offset 8
 174 00b2 BD46     		mov	sp, r7
 175              	.LCFI4:
 176              		.cfi_def_cfa_register 13
 177              		@ sp needed
 178 00b4 80BD     		pop	{r7, pc}
 179              		.cfi_endproc
 180              	.LFE4:
 182              		.section	.text.xStreamBufferGenericCreateStatic,"ax",%progbits
 183              		.align	1
 184              		.global	xStreamBufferGenericCreateStatic
 185              		.syntax unified
 186              		.thumb
 187              		.thumb_func
 189              	xStreamBufferGenericCreateStatic:
 190              	.LFB5:
 277:Middlewares/Third_Party/FreeRTOS/Source/stream_buffer.c **** 
 278:Middlewares/Third_Party/FreeRTOS/Source/stream_buffer.c **** #endif /* configSUPPORT_DYNAMIC_ALLOCATION */
 279:Middlewares/Third_Party/FreeRTOS/Source/stream_buffer.c **** /*-----------------------------------------------------------*/
 280:Middlewares/Third_Party/FreeRTOS/Source/stream_buffer.c **** 
 281:Middlewares/Third_Party/FreeRTOS/Source/stream_buffer.c **** #if( configSUPPORT_STATIC_ALLOCATION == 1 )
 282:Middlewares/Third_Party/FreeRTOS/Source/stream_buffer.c **** 
 283:Middlewares/Third_Party/FreeRTOS/Source/stream_buffer.c **** 	StreamBufferHandle_t xStreamBufferGenericCreateStatic( size_t xBufferSizeBytes,
 284:Middlewares/Third_Party/FreeRTOS/Source/stream_buffer.c **** 														   size_t xTriggerLevelBytes,
 285:Middlewares/Third_Party/FreeRTOS/Source/stream_buffer.c **** 														   BaseType_t xIsMessageBuffer,
 286:Middlewares/Third_Party/FreeRTOS/Source/stream_buffer.c **** 														   uint8_t * const pucStreamBufferStorageArea,
 287:Middlewares/Third_Party/FreeRTOS/Source/stream_buffer.c **** 														   StaticStreamBuffer_t * const pxStaticStreamBuffer )
 288:Middlewares/Third_Party/FreeRTOS/Source/stream_buffer.c **** 	{
 191              		.loc 1 288 2
 192              		.cfi_startproc
 193              		@ args = 4, pretend = 0, frame = 56
 194              		@ frame_needed = 1, uses_anonymous_args = 0
ARM GAS  C:\Users\Lenovo\AppData\Local\Temp\ccRNOCMD.s 			page 13


 195 0000 80B5     		push	{r7, lr}
 196              	.LCFI5:
 197              		.cfi_def_cfa_offset 8
 198              		.cfi_offset 7, -8
 199              		.cfi_offset 14, -4
 200 0002 90B0     		sub	sp, sp, #64
 201              	.LCFI6:
 202              		.cfi_def_cfa_offset 72
 203 0004 02AF     		add	r7, sp, #8
 204              	.LCFI7:
 205              		.cfi_def_cfa 7, 64
 206 0006 F860     		str	r0, [r7, #12]
 207 0008 B960     		str	r1, [r7, #8]
 208 000a 7A60     		str	r2, [r7, #4]
 209 000c 3B60     		str	r3, [r7]
 289:Middlewares/Third_Party/FreeRTOS/Source/stream_buffer.c **** 	StreamBuffer_t * const pxStreamBuffer = ( StreamBuffer_t * ) pxStaticStreamBuffer; /*lint !e740 !e
 210              		.loc 1 289 25
 211 000e 3B6C     		ldr	r3, [r7, #64]
 212 0010 FB62     		str	r3, [r7, #44]
 290:Middlewares/Third_Party/FreeRTOS/Source/stream_buffer.c **** 	StreamBufferHandle_t xReturn;
 291:Middlewares/Third_Party/FreeRTOS/Source/stream_buffer.c **** 	uint8_t ucFlags;
 292:Middlewares/Third_Party/FreeRTOS/Source/stream_buffer.c **** 
 293:Middlewares/Third_Party/FreeRTOS/Source/stream_buffer.c **** 		configASSERT( pucStreamBufferStorageArea );
 213              		.loc 1 293 3
 214 0012 3B68     		ldr	r3, [r7]
 215 0014 002B     		cmp	r3, #0
 216 0016 0AD1     		bne	.L12
 217              	.LBB102:
 218              	.LBB103:
 195:Middlewares/Third_Party/FreeRTOS/Source/portable/GCC/ARM_CM3/portmacro.h **** 	(
 219              		.loc 2 195 2
 220              		.syntax unified
 221              	@ 195 "Middlewares/Third_Party/FreeRTOS/Source/portable/GCC/ARM_CM3/portmacro.h" 1
 222 0018 4FF05003 			mov r3, #80												
 223 001c 83F31188 		msr basepri, r3											
 224 0020 BFF36F8F 		isb														
 225 0024 BFF34F8F 		dsb														
 226              	
 227              	@ 0 "" 2
 228              		.thumb
 229              		.syntax unified
 230 0028 BB62     		str	r3, [r7, #40]
 231              		.loc 2 203 1
 232 002a 00BF     		nop
 233              	.L13:
 234              	.LBE103:
 235              	.LBE102:
 236              		.loc 1 293 3 discriminator 1
 237 002c FEE7     		b	.L13
 238              	.L12:
 294:Middlewares/Third_Party/FreeRTOS/Source/stream_buffer.c **** 		configASSERT( pxStaticStreamBuffer );
 239              		.loc 1 294 3
 240 002e 3B6C     		ldr	r3, [r7, #64]
 241 0030 002B     		cmp	r3, #0
 242 0032 0AD1     		bne	.L14
 243              	.LBB104:
 244              	.LBB105:
ARM GAS  C:\Users\Lenovo\AppData\Local\Temp\ccRNOCMD.s 			page 14


 195:Middlewares/Third_Party/FreeRTOS/Source/portable/GCC/ARM_CM3/portmacro.h **** 	(
 245              		.loc 2 195 2
 246              		.syntax unified
 247              	@ 195 "Middlewares/Third_Party/FreeRTOS/Source/portable/GCC/ARM_CM3/portmacro.h" 1
 248 0034 4FF05003 			mov r3, #80												
 249 0038 83F31188 		msr basepri, r3											
 250 003c BFF36F8F 		isb														
 251 0040 BFF34F8F 		dsb														
 252              	
 253              	@ 0 "" 2
 254              		.thumb
 255              		.syntax unified
 256 0044 7B62     		str	r3, [r7, #36]
 257              		.loc 2 203 1
 258 0046 00BF     		nop
 259              	.L15:
 260              	.LBE105:
 261              	.LBE104:
 262              		.loc 1 294 3 discriminator 2
 263 0048 FEE7     		b	.L15
 264              	.L14:
 295:Middlewares/Third_Party/FreeRTOS/Source/stream_buffer.c **** 		configASSERT( xTriggerLevelBytes <= xBufferSizeBytes );
 265              		.loc 1 295 3
 266 004a BA68     		ldr	r2, [r7, #8]
 267 004c FB68     		ldr	r3, [r7, #12]
 268 004e 9A42     		cmp	r2, r3
 269 0050 0AD9     		bls	.L16
 270              	.LBB106:
 271              	.LBB107:
 195:Middlewares/Third_Party/FreeRTOS/Source/portable/GCC/ARM_CM3/portmacro.h **** 	(
 272              		.loc 2 195 2
 273              		.syntax unified
 274              	@ 195 "Middlewares/Third_Party/FreeRTOS/Source/portable/GCC/ARM_CM3/portmacro.h" 1
 275 0052 4FF05003 			mov r3, #80												
 276 0056 83F31188 		msr basepri, r3											
 277 005a BFF36F8F 		isb														
 278 005e BFF34F8F 		dsb														
 279              	
 280              	@ 0 "" 2
 281              		.thumb
 282              		.syntax unified
 283 0062 3B62     		str	r3, [r7, #32]
 284              		.loc 2 203 1
 285 0064 00BF     		nop
 286              	.L17:
 287              	.LBE107:
 288              	.LBE106:
 289              		.loc 1 295 3 discriminator 3
 290 0066 FEE7     		b	.L17
 291              	.L16:
 296:Middlewares/Third_Party/FreeRTOS/Source/stream_buffer.c **** 
 297:Middlewares/Third_Party/FreeRTOS/Source/stream_buffer.c **** 		/* A trigger level of 0 would cause a waiting task to unblock even when
 298:Middlewares/Third_Party/FreeRTOS/Source/stream_buffer.c **** 		the buffer was empty. */
 299:Middlewares/Third_Party/FreeRTOS/Source/stream_buffer.c **** 		if( xTriggerLevelBytes == ( size_t ) 0 )
 292              		.loc 1 299 5
 293 0068 BB68     		ldr	r3, [r7, #8]
 294 006a 002B     		cmp	r3, #0
ARM GAS  C:\Users\Lenovo\AppData\Local\Temp\ccRNOCMD.s 			page 15


 295 006c 01D1     		bne	.L18
 300:Middlewares/Third_Party/FreeRTOS/Source/stream_buffer.c **** 		{
 301:Middlewares/Third_Party/FreeRTOS/Source/stream_buffer.c **** 			xTriggerLevelBytes = ( size_t ) 1;
 296              		.loc 1 301 23
 297 006e 0123     		movs	r3, #1
 298 0070 BB60     		str	r3, [r7, #8]
 299              	.L18:
 302:Middlewares/Third_Party/FreeRTOS/Source/stream_buffer.c **** 		}
 303:Middlewares/Third_Party/FreeRTOS/Source/stream_buffer.c **** 
 304:Middlewares/Third_Party/FreeRTOS/Source/stream_buffer.c **** 		if( xIsMessageBuffer != pdFALSE )
 300              		.loc 1 304 5
 301 0072 7B68     		ldr	r3, [r7, #4]
 302 0074 002B     		cmp	r3, #0
 303 0076 03D0     		beq	.L19
 305:Middlewares/Third_Party/FreeRTOS/Source/stream_buffer.c **** 		{
 306:Middlewares/Third_Party/FreeRTOS/Source/stream_buffer.c **** 			/* Statically allocated message buffer. */
 307:Middlewares/Third_Party/FreeRTOS/Source/stream_buffer.c **** 			ucFlags = sbFLAGS_IS_MESSAGE_BUFFER | sbFLAGS_IS_STATICALLY_ALLOCATED;
 304              		.loc 1 307 12
 305 0078 0323     		movs	r3, #3
 306 007a 87F83330 		strb	r3, [r7, #51]
 307 007e 02E0     		b	.L20
 308              	.L19:
 308:Middlewares/Third_Party/FreeRTOS/Source/stream_buffer.c **** 		}
 309:Middlewares/Third_Party/FreeRTOS/Source/stream_buffer.c **** 		else
 310:Middlewares/Third_Party/FreeRTOS/Source/stream_buffer.c **** 		{
 311:Middlewares/Third_Party/FreeRTOS/Source/stream_buffer.c **** 			/* Statically allocated stream buffer. */
 312:Middlewares/Third_Party/FreeRTOS/Source/stream_buffer.c **** 			ucFlags = sbFLAGS_IS_STATICALLY_ALLOCATED;
 309              		.loc 1 312 12
 310 0080 0223     		movs	r3, #2
 311 0082 87F83330 		strb	r3, [r7, #51]
 312              	.L20:
 313:Middlewares/Third_Party/FreeRTOS/Source/stream_buffer.c **** 		}
 314:Middlewares/Third_Party/FreeRTOS/Source/stream_buffer.c **** 
 315:Middlewares/Third_Party/FreeRTOS/Source/stream_buffer.c **** 		/* In case the stream buffer is going to be used as a message buffer
 316:Middlewares/Third_Party/FreeRTOS/Source/stream_buffer.c **** 		(that is, it will hold discrete messages with a little meta data that
 317:Middlewares/Third_Party/FreeRTOS/Source/stream_buffer.c **** 		says how big the next message is) check the buffer will be large enough
 318:Middlewares/Third_Party/FreeRTOS/Source/stream_buffer.c **** 		to hold at least one message. */
 319:Middlewares/Third_Party/FreeRTOS/Source/stream_buffer.c **** 		configASSERT( xBufferSizeBytes > sbBYTES_TO_STORE_MESSAGE_LENGTH );
 313              		.loc 1 319 3
 314 0086 FB68     		ldr	r3, [r7, #12]
 315 0088 042B     		cmp	r3, #4
 316 008a 0AD8     		bhi	.L21
 317              	.LBB108:
 318              	.LBB109:
 195:Middlewares/Third_Party/FreeRTOS/Source/portable/GCC/ARM_CM3/portmacro.h **** 	(
 319              		.loc 2 195 2
 320              		.syntax unified
 321              	@ 195 "Middlewares/Third_Party/FreeRTOS/Source/portable/GCC/ARM_CM3/portmacro.h" 1
 322 008c 4FF05003 			mov r3, #80												
 323 0090 83F31188 		msr basepri, r3											
 324 0094 BFF36F8F 		isb														
 325 0098 BFF34F8F 		dsb														
 326              	
 327              	@ 0 "" 2
 328              		.thumb
 329              		.syntax unified
 330 009c FB61     		str	r3, [r7, #28]
ARM GAS  C:\Users\Lenovo\AppData\Local\Temp\ccRNOCMD.s 			page 16


 331              		.loc 2 203 1
 332 009e 00BF     		nop
 333              	.L22:
 334              	.LBE109:
 335              	.LBE108:
 336              		.loc 1 319 3 discriminator 4
 337 00a0 FEE7     		b	.L22
 338              	.L21:
 339              	.LBB110:
 320:Middlewares/Third_Party/FreeRTOS/Source/stream_buffer.c **** 
 321:Middlewares/Third_Party/FreeRTOS/Source/stream_buffer.c **** 		#if( configASSERT_DEFINED == 1 )
 322:Middlewares/Third_Party/FreeRTOS/Source/stream_buffer.c **** 		{
 323:Middlewares/Third_Party/FreeRTOS/Source/stream_buffer.c **** 			/* Sanity check that the size of the structure used to declare a
 324:Middlewares/Third_Party/FreeRTOS/Source/stream_buffer.c **** 			variable of type StaticStreamBuffer_t equals the size of the real
 325:Middlewares/Third_Party/FreeRTOS/Source/stream_buffer.c **** 			message buffer structure. */
 326:Middlewares/Third_Party/FreeRTOS/Source/stream_buffer.c **** 			volatile size_t xSize = sizeof( StaticStreamBuffer_t );
 340              		.loc 1 326 20
 341 00a2 2423     		movs	r3, #36
 342 00a4 7B61     		str	r3, [r7, #20]
 327:Middlewares/Third_Party/FreeRTOS/Source/stream_buffer.c **** 			configASSERT( xSize == sizeof( StreamBuffer_t ) );
 343              		.loc 1 327 4
 344 00a6 7B69     		ldr	r3, [r7, #20]
 345 00a8 242B     		cmp	r3, #36
 346 00aa 0AD0     		beq	.L23
 347              	.LBB111:
 348              	.LBB112:
 195:Middlewares/Third_Party/FreeRTOS/Source/portable/GCC/ARM_CM3/portmacro.h **** 	(
 349              		.loc 2 195 2
 350              		.syntax unified
 351              	@ 195 "Middlewares/Third_Party/FreeRTOS/Source/portable/GCC/ARM_CM3/portmacro.h" 1
 352 00ac 4FF05003 			mov r3, #80												
 353 00b0 83F31188 		msr basepri, r3											
 354 00b4 BFF36F8F 		isb														
 355 00b8 BFF34F8F 		dsb														
 356              	
 357              	@ 0 "" 2
 358              		.thumb
 359              		.syntax unified
 360 00bc BB61     		str	r3, [r7, #24]
 361              		.loc 2 203 1
 362 00be 00BF     		nop
 363              	.L24:
 364              	.LBE112:
 365              	.LBE111:
 366              		.loc 1 327 4 discriminator 5
 367 00c0 FEE7     		b	.L24
 368              	.L23:
 369              	.LBE110:
 328:Middlewares/Third_Party/FreeRTOS/Source/stream_buffer.c **** 		} /*lint !e529 xSize is referenced is configASSERT() is defined. */
 329:Middlewares/Third_Party/FreeRTOS/Source/stream_buffer.c **** 		#endif /* configASSERT_DEFINED */
 330:Middlewares/Third_Party/FreeRTOS/Source/stream_buffer.c **** 
 331:Middlewares/Third_Party/FreeRTOS/Source/stream_buffer.c **** 		if( ( pucStreamBufferStorageArea != NULL ) && ( pxStaticStreamBuffer != NULL ) )
 370              		.loc 1 331 5
 371 00c2 3B68     		ldr	r3, [r7]
 372 00c4 002B     		cmp	r3, #0
 373 00c6 15D0     		beq	.L25
 374              		.loc 1 331 46 discriminator 1
ARM GAS  C:\Users\Lenovo\AppData\Local\Temp\ccRNOCMD.s 			page 17


 375 00c8 3B6C     		ldr	r3, [r7, #64]
 376 00ca 002B     		cmp	r3, #0
 377 00cc 12D0     		beq	.L25
 332:Middlewares/Third_Party/FreeRTOS/Source/stream_buffer.c **** 		{
 333:Middlewares/Third_Party/FreeRTOS/Source/stream_buffer.c **** 			prvInitialiseNewStreamBuffer( pxStreamBuffer,
 378              		.loc 1 333 4
 379 00ce 97F83330 		ldrb	r3, [r7, #51]	@ zero_extendqisi2
 380 00d2 0093     		str	r3, [sp]
 381 00d4 BB68     		ldr	r3, [r7, #8]
 382 00d6 FA68     		ldr	r2, [r7, #12]
 383 00d8 3968     		ldr	r1, [r7]
 384 00da F86A     		ldr	r0, [r7, #44]
 385 00dc FFF7FEFF 		bl	prvInitialiseNewStreamBuffer
 334:Middlewares/Third_Party/FreeRTOS/Source/stream_buffer.c **** 										  pucStreamBufferStorageArea,
 335:Middlewares/Third_Party/FreeRTOS/Source/stream_buffer.c **** 										  xBufferSizeBytes,
 336:Middlewares/Third_Party/FreeRTOS/Source/stream_buffer.c **** 										  xTriggerLevelBytes,
 337:Middlewares/Third_Party/FreeRTOS/Source/stream_buffer.c **** 										  ucFlags );
 338:Middlewares/Third_Party/FreeRTOS/Source/stream_buffer.c **** 
 339:Middlewares/Third_Party/FreeRTOS/Source/stream_buffer.c **** 			/* Remember this was statically allocated in case it is ever deleted
 340:Middlewares/Third_Party/FreeRTOS/Source/stream_buffer.c **** 			again. */
 341:Middlewares/Third_Party/FreeRTOS/Source/stream_buffer.c **** 			pxStreamBuffer->ucFlags |= sbFLAGS_IS_STATICALLY_ALLOCATED;
 386              		.loc 1 341 28
 387 00e0 FB6A     		ldr	r3, [r7, #44]
 388 00e2 1B7F     		ldrb	r3, [r3, #28]	@ zero_extendqisi2
 389 00e4 43F00203 		orr	r3, r3, #2
 390 00e8 DAB2     		uxtb	r2, r3
 391 00ea FB6A     		ldr	r3, [r7, #44]
 392 00ec 1A77     		strb	r2, [r3, #28]
 342:Middlewares/Third_Party/FreeRTOS/Source/stream_buffer.c **** 
 343:Middlewares/Third_Party/FreeRTOS/Source/stream_buffer.c **** 			traceSTREAM_BUFFER_CREATE( pxStreamBuffer, xIsMessageBuffer );
 344:Middlewares/Third_Party/FreeRTOS/Source/stream_buffer.c **** 
 345:Middlewares/Third_Party/FreeRTOS/Source/stream_buffer.c **** 			xReturn = ( StreamBufferHandle_t ) pxStaticStreamBuffer; /*lint !e9087 Data hiding requires cast
 393              		.loc 1 345 12
 394 00ee 3B6C     		ldr	r3, [r7, #64]
 395 00f0 7B63     		str	r3, [r7, #52]
 396 00f2 01E0     		b	.L26
 397              	.L25:
 346:Middlewares/Third_Party/FreeRTOS/Source/stream_buffer.c **** 		}
 347:Middlewares/Third_Party/FreeRTOS/Source/stream_buffer.c **** 		else
 348:Middlewares/Third_Party/FreeRTOS/Source/stream_buffer.c **** 		{
 349:Middlewares/Third_Party/FreeRTOS/Source/stream_buffer.c **** 			xReturn = NULL;
 398              		.loc 1 349 12
 399 00f4 0023     		movs	r3, #0
 400 00f6 7B63     		str	r3, [r7, #52]
 401              	.L26:
 350:Middlewares/Third_Party/FreeRTOS/Source/stream_buffer.c **** 			traceSTREAM_BUFFER_CREATE_STATIC_FAILED( xReturn, xIsMessageBuffer );
 351:Middlewares/Third_Party/FreeRTOS/Source/stream_buffer.c **** 		}
 352:Middlewares/Third_Party/FreeRTOS/Source/stream_buffer.c **** 
 353:Middlewares/Third_Party/FreeRTOS/Source/stream_buffer.c **** 		return xReturn;
 402              		.loc 1 353 10
 403 00f8 7B6B     		ldr	r3, [r7, #52]
 354:Middlewares/Third_Party/FreeRTOS/Source/stream_buffer.c **** 	}
 404              		.loc 1 354 2
 405 00fa 1846     		mov	r0, r3
 406 00fc 3837     		adds	r7, r7, #56
 407              	.LCFI8:
 408              		.cfi_def_cfa_offset 8
ARM GAS  C:\Users\Lenovo\AppData\Local\Temp\ccRNOCMD.s 			page 18


 409 00fe BD46     		mov	sp, r7
 410              	.LCFI9:
 411              		.cfi_def_cfa_register 13
 412              		@ sp needed
 413 0100 80BD     		pop	{r7, pc}
 414              		.cfi_endproc
 415              	.LFE5:
 417              		.section	.text.vStreamBufferDelete,"ax",%progbits
 418              		.align	1
 419              		.global	vStreamBufferDelete
 420              		.syntax unified
 421              		.thumb
 422              		.thumb_func
 424              	vStreamBufferDelete:
 425              	.LFB6:
 355:Middlewares/Third_Party/FreeRTOS/Source/stream_buffer.c **** 
 356:Middlewares/Third_Party/FreeRTOS/Source/stream_buffer.c **** #endif /* ( configSUPPORT_STATIC_ALLOCATION == 1 ) */
 357:Middlewares/Third_Party/FreeRTOS/Source/stream_buffer.c **** /*-----------------------------------------------------------*/
 358:Middlewares/Third_Party/FreeRTOS/Source/stream_buffer.c **** 
 359:Middlewares/Third_Party/FreeRTOS/Source/stream_buffer.c **** void vStreamBufferDelete( StreamBufferHandle_t xStreamBuffer )
 360:Middlewares/Third_Party/FreeRTOS/Source/stream_buffer.c **** {
 426              		.loc 1 360 1
 427              		.cfi_startproc
 428              		@ args = 0, pretend = 0, frame = 16
 429              		@ frame_needed = 1, uses_anonymous_args = 0
 430 0000 80B5     		push	{r7, lr}
 431              	.LCFI10:
 432              		.cfi_def_cfa_offset 8
 433              		.cfi_offset 7, -8
 434              		.cfi_offset 14, -4
 435 0002 84B0     		sub	sp, sp, #16
 436              	.LCFI11:
 437              		.cfi_def_cfa_offset 24
 438 0004 00AF     		add	r7, sp, #0
 439              	.LCFI12:
 440              		.cfi_def_cfa_register 7
 441 0006 7860     		str	r0, [r7, #4]
 361:Middlewares/Third_Party/FreeRTOS/Source/stream_buffer.c **** StreamBuffer_t * pxStreamBuffer = xStreamBuffer;
 442              		.loc 1 361 18
 443 0008 7B68     		ldr	r3, [r7, #4]
 444 000a FB60     		str	r3, [r7, #12]
 362:Middlewares/Third_Party/FreeRTOS/Source/stream_buffer.c **** 
 363:Middlewares/Third_Party/FreeRTOS/Source/stream_buffer.c **** 	configASSERT( pxStreamBuffer );
 445              		.loc 1 363 2
 446 000c FB68     		ldr	r3, [r7, #12]
 447 000e 002B     		cmp	r3, #0
 448 0010 0AD1     		bne	.L29
 449              	.LBB113:
 450              	.LBB114:
 195:Middlewares/Third_Party/FreeRTOS/Source/portable/GCC/ARM_CM3/portmacro.h **** 	(
 451              		.loc 2 195 2
 452              		.syntax unified
 453              	@ 195 "Middlewares/Third_Party/FreeRTOS/Source/portable/GCC/ARM_CM3/portmacro.h" 1
 454 0012 4FF05003 			mov r3, #80												
 455 0016 83F31188 		msr basepri, r3											
 456 001a BFF36F8F 		isb														
 457 001e BFF34F8F 		dsb														
ARM GAS  C:\Users\Lenovo\AppData\Local\Temp\ccRNOCMD.s 			page 19


 458              	
 459              	@ 0 "" 2
 460              		.thumb
 461              		.syntax unified
 462 0022 BB60     		str	r3, [r7, #8]
 463              		.loc 2 203 1
 464 0024 00BF     		nop
 465              	.L30:
 466              	.LBE114:
 467              	.LBE113:
 468              		.loc 1 363 2 discriminator 1
 469 0026 FEE7     		b	.L30
 470              	.L29:
 364:Middlewares/Third_Party/FreeRTOS/Source/stream_buffer.c **** 
 365:Middlewares/Third_Party/FreeRTOS/Source/stream_buffer.c **** 	traceSTREAM_BUFFER_DELETE( xStreamBuffer );
 366:Middlewares/Third_Party/FreeRTOS/Source/stream_buffer.c **** 
 367:Middlewares/Third_Party/FreeRTOS/Source/stream_buffer.c **** 	if( ( pxStreamBuffer->ucFlags & sbFLAGS_IS_STATICALLY_ALLOCATED ) == ( uint8_t ) pdFALSE )
 471              		.loc 1 367 22
 472 0028 FB68     		ldr	r3, [r7, #12]
 473 002a 1B7F     		ldrb	r3, [r3, #28]	@ zero_extendqisi2
 474              		.loc 1 367 32
 475 002c 03F00203 		and	r3, r3, #2
 476              		.loc 1 367 4
 477 0030 002B     		cmp	r3, #0
 478 0032 03D1     		bne	.L31
 368:Middlewares/Third_Party/FreeRTOS/Source/stream_buffer.c **** 	{
 369:Middlewares/Third_Party/FreeRTOS/Source/stream_buffer.c **** 		#if( configSUPPORT_DYNAMIC_ALLOCATION == 1 )
 370:Middlewares/Third_Party/FreeRTOS/Source/stream_buffer.c **** 		{
 371:Middlewares/Third_Party/FreeRTOS/Source/stream_buffer.c **** 			/* Both the structure and the buffer were allocated using a single call
 372:Middlewares/Third_Party/FreeRTOS/Source/stream_buffer.c **** 			to pvPortMalloc(), hence only one call to vPortFree() is required. */
 373:Middlewares/Third_Party/FreeRTOS/Source/stream_buffer.c **** 			vPortFree( ( void * ) pxStreamBuffer ); /*lint !e9087 Standard free() semantics require void *, 
 479              		.loc 1 373 4
 480 0034 F868     		ldr	r0, [r7, #12]
 481 0036 FFF7FEFF 		bl	vPortFree
 374:Middlewares/Third_Party/FreeRTOS/Source/stream_buffer.c **** 		}
 375:Middlewares/Third_Party/FreeRTOS/Source/stream_buffer.c **** 		#else
 376:Middlewares/Third_Party/FreeRTOS/Source/stream_buffer.c **** 		{
 377:Middlewares/Third_Party/FreeRTOS/Source/stream_buffer.c **** 			/* Should not be possible to get here, ucFlags must be corrupt.
 378:Middlewares/Third_Party/FreeRTOS/Source/stream_buffer.c **** 			Force an assert. */
 379:Middlewares/Third_Party/FreeRTOS/Source/stream_buffer.c **** 			configASSERT( xStreamBuffer == ( StreamBufferHandle_t ) ~0 );
 380:Middlewares/Third_Party/FreeRTOS/Source/stream_buffer.c **** 		}
 381:Middlewares/Third_Party/FreeRTOS/Source/stream_buffer.c **** 		#endif
 382:Middlewares/Third_Party/FreeRTOS/Source/stream_buffer.c **** 	}
 383:Middlewares/Third_Party/FreeRTOS/Source/stream_buffer.c **** 	else
 384:Middlewares/Third_Party/FreeRTOS/Source/stream_buffer.c **** 	{
 385:Middlewares/Third_Party/FreeRTOS/Source/stream_buffer.c **** 		/* The structure and buffer were not allocated dynamically and cannot be
 386:Middlewares/Third_Party/FreeRTOS/Source/stream_buffer.c **** 		freed - just scrub the structure so future use will assert. */
 387:Middlewares/Third_Party/FreeRTOS/Source/stream_buffer.c **** 		( void ) memset( pxStreamBuffer, 0x00, sizeof( StreamBuffer_t ) );
 388:Middlewares/Third_Party/FreeRTOS/Source/stream_buffer.c **** 	}
 389:Middlewares/Third_Party/FreeRTOS/Source/stream_buffer.c **** }
 482              		.loc 1 389 1
 483 003a 04E0     		b	.L33
 484              	.L31:
 387:Middlewares/Third_Party/FreeRTOS/Source/stream_buffer.c **** 	}
 485              		.loc 1 387 12
 486 003c 2422     		movs	r2, #36
 487 003e 0021     		movs	r1, #0
ARM GAS  C:\Users\Lenovo\AppData\Local\Temp\ccRNOCMD.s 			page 20


 488 0040 F868     		ldr	r0, [r7, #12]
 489 0042 FFF7FEFF 		bl	memset
 490              	.L33:
 491              		.loc 1 389 1
 492 0046 00BF     		nop
 493 0048 1037     		adds	r7, r7, #16
 494              	.LCFI13:
 495              		.cfi_def_cfa_offset 8
 496 004a BD46     		mov	sp, r7
 497              	.LCFI14:
 498              		.cfi_def_cfa_register 13
 499              		@ sp needed
 500 004c 80BD     		pop	{r7, pc}
 501              		.cfi_endproc
 502              	.LFE6:
 504              		.section	.text.xStreamBufferReset,"ax",%progbits
 505              		.align	1
 506              		.global	xStreamBufferReset
 507              		.syntax unified
 508              		.thumb
 509              		.thumb_func
 511              	xStreamBufferReset:
 512              	.LFB7:
 390:Middlewares/Third_Party/FreeRTOS/Source/stream_buffer.c **** /*-----------------------------------------------------------*/
 391:Middlewares/Third_Party/FreeRTOS/Source/stream_buffer.c **** 
 392:Middlewares/Third_Party/FreeRTOS/Source/stream_buffer.c **** BaseType_t xStreamBufferReset( StreamBufferHandle_t xStreamBuffer )
 393:Middlewares/Third_Party/FreeRTOS/Source/stream_buffer.c **** {
 513              		.loc 1 393 1
 514              		.cfi_startproc
 515              		@ args = 0, pretend = 0, frame = 24
 516              		@ frame_needed = 1, uses_anonymous_args = 0
 517 0000 80B5     		push	{r7, lr}
 518              	.LCFI15:
 519              		.cfi_def_cfa_offset 8
 520              		.cfi_offset 7, -8
 521              		.cfi_offset 14, -4
 522 0002 88B0     		sub	sp, sp, #32
 523              	.LCFI16:
 524              		.cfi_def_cfa_offset 40
 525 0004 02AF     		add	r7, sp, #8
 526              	.LCFI17:
 527              		.cfi_def_cfa 7, 32
 528 0006 7860     		str	r0, [r7, #4]
 394:Middlewares/Third_Party/FreeRTOS/Source/stream_buffer.c **** StreamBuffer_t * const pxStreamBuffer = xStreamBuffer;
 529              		.loc 1 394 24
 530 0008 7B68     		ldr	r3, [r7, #4]
 531 000a 3B61     		str	r3, [r7, #16]
 395:Middlewares/Third_Party/FreeRTOS/Source/stream_buffer.c **** BaseType_t xReturn = pdFAIL;
 532              		.loc 1 395 12
 533 000c 0023     		movs	r3, #0
 534 000e 7B61     		str	r3, [r7, #20]
 396:Middlewares/Third_Party/FreeRTOS/Source/stream_buffer.c **** 
 397:Middlewares/Third_Party/FreeRTOS/Source/stream_buffer.c **** #if( configUSE_TRACE_FACILITY == 1 )
 398:Middlewares/Third_Party/FreeRTOS/Source/stream_buffer.c **** 	UBaseType_t uxStreamBufferNumber;
 399:Middlewares/Third_Party/FreeRTOS/Source/stream_buffer.c **** #endif
 400:Middlewares/Third_Party/FreeRTOS/Source/stream_buffer.c **** 
 401:Middlewares/Third_Party/FreeRTOS/Source/stream_buffer.c **** 	configASSERT( pxStreamBuffer );
ARM GAS  C:\Users\Lenovo\AppData\Local\Temp\ccRNOCMD.s 			page 21


 535              		.loc 1 401 2
 536 0010 3B69     		ldr	r3, [r7, #16]
 537 0012 002B     		cmp	r3, #0
 538 0014 0AD1     		bne	.L35
 539              	.LBB115:
 540              	.LBB116:
 195:Middlewares/Third_Party/FreeRTOS/Source/portable/GCC/ARM_CM3/portmacro.h **** 	(
 541              		.loc 2 195 2
 542              		.syntax unified
 543              	@ 195 "Middlewares/Third_Party/FreeRTOS/Source/portable/GCC/ARM_CM3/portmacro.h" 1
 544 0016 4FF05003 			mov r3, #80												
 545 001a 83F31188 		msr basepri, r3											
 546 001e BFF36F8F 		isb														
 547 0022 BFF34F8F 		dsb														
 548              	
 549              	@ 0 "" 2
 550              		.thumb
 551              		.syntax unified
 552 0026 BB60     		str	r3, [r7, #8]
 553              		.loc 2 203 1
 554 0028 00BF     		nop
 555              	.L36:
 556              	.LBE116:
 557              	.LBE115:
 558              		.loc 1 401 2 discriminator 1
 559 002a FEE7     		b	.L36
 560              	.L35:
 402:Middlewares/Third_Party/FreeRTOS/Source/stream_buffer.c **** 
 403:Middlewares/Third_Party/FreeRTOS/Source/stream_buffer.c **** 	#if( configUSE_TRACE_FACILITY == 1 )
 404:Middlewares/Third_Party/FreeRTOS/Source/stream_buffer.c **** 	{
 405:Middlewares/Third_Party/FreeRTOS/Source/stream_buffer.c **** 		/* Store the stream buffer number so it can be restored after the
 406:Middlewares/Third_Party/FreeRTOS/Source/stream_buffer.c **** 		reset. */
 407:Middlewares/Third_Party/FreeRTOS/Source/stream_buffer.c **** 		uxStreamBufferNumber = pxStreamBuffer->uxStreamBufferNumber;
 561              		.loc 1 407 24
 562 002c 3B69     		ldr	r3, [r7, #16]
 563 002e 1B6A     		ldr	r3, [r3, #32]
 564 0030 FB60     		str	r3, [r7, #12]
 408:Middlewares/Third_Party/FreeRTOS/Source/stream_buffer.c **** 	}
 409:Middlewares/Third_Party/FreeRTOS/Source/stream_buffer.c **** 	#endif
 410:Middlewares/Third_Party/FreeRTOS/Source/stream_buffer.c **** 
 411:Middlewares/Third_Party/FreeRTOS/Source/stream_buffer.c **** 	/* Can only reset a message buffer if there are no tasks blocked on it. */
 412:Middlewares/Third_Party/FreeRTOS/Source/stream_buffer.c **** 	taskENTER_CRITICAL();
 565              		.loc 1 412 2
 566 0032 FFF7FEFF 		bl	vPortEnterCritical
 413:Middlewares/Third_Party/FreeRTOS/Source/stream_buffer.c **** 	{
 414:Middlewares/Third_Party/FreeRTOS/Source/stream_buffer.c **** 		if( pxStreamBuffer->xTaskWaitingToReceive == NULL )
 567              		.loc 1 414 21
 568 0036 3B69     		ldr	r3, [r7, #16]
 569 0038 1B69     		ldr	r3, [r3, #16]
 570              		.loc 1 414 5
 571 003a 002B     		cmp	r3, #0
 572 003c 15D1     		bne	.L37
 415:Middlewares/Third_Party/FreeRTOS/Source/stream_buffer.c **** 		{
 416:Middlewares/Third_Party/FreeRTOS/Source/stream_buffer.c **** 			if( pxStreamBuffer->xTaskWaitingToSend == NULL )
 573              		.loc 1 416 22
 574 003e 3B69     		ldr	r3, [r7, #16]
 575 0040 5B69     		ldr	r3, [r3, #20]
ARM GAS  C:\Users\Lenovo\AppData\Local\Temp\ccRNOCMD.s 			page 22


 576              		.loc 1 416 6
 577 0042 002B     		cmp	r3, #0
 578 0044 11D1     		bne	.L37
 417:Middlewares/Third_Party/FreeRTOS/Source/stream_buffer.c **** 			{
 418:Middlewares/Third_Party/FreeRTOS/Source/stream_buffer.c **** 				prvInitialiseNewStreamBuffer( pxStreamBuffer,
 579              		.loc 1 418 5
 580 0046 3B69     		ldr	r3, [r7, #16]
 581 0048 9969     		ldr	r1, [r3, #24]
 582 004a 3B69     		ldr	r3, [r7, #16]
 583 004c 9A68     		ldr	r2, [r3, #8]
 584 004e 3B69     		ldr	r3, [r7, #16]
 585 0050 D868     		ldr	r0, [r3, #12]
 586 0052 3B69     		ldr	r3, [r7, #16]
 587 0054 1B7F     		ldrb	r3, [r3, #28]	@ zero_extendqisi2
 588 0056 0093     		str	r3, [sp]
 589 0058 0346     		mov	r3, r0
 590 005a 3869     		ldr	r0, [r7, #16]
 591 005c FFF7FEFF 		bl	prvInitialiseNewStreamBuffer
 419:Middlewares/Third_Party/FreeRTOS/Source/stream_buffer.c **** 											  pxStreamBuffer->pucBuffer,
 420:Middlewares/Third_Party/FreeRTOS/Source/stream_buffer.c **** 											  pxStreamBuffer->xLength,
 421:Middlewares/Third_Party/FreeRTOS/Source/stream_buffer.c **** 											  pxStreamBuffer->xTriggerLevelBytes,
 422:Middlewares/Third_Party/FreeRTOS/Source/stream_buffer.c **** 											  pxStreamBuffer->ucFlags );
 423:Middlewares/Third_Party/FreeRTOS/Source/stream_buffer.c **** 				xReturn = pdPASS;
 592              		.loc 1 423 13
 593 0060 0123     		movs	r3, #1
 594 0062 7B61     		str	r3, [r7, #20]
 424:Middlewares/Third_Party/FreeRTOS/Source/stream_buffer.c **** 
 425:Middlewares/Third_Party/FreeRTOS/Source/stream_buffer.c **** 				#if( configUSE_TRACE_FACILITY == 1 )
 426:Middlewares/Third_Party/FreeRTOS/Source/stream_buffer.c **** 				{
 427:Middlewares/Third_Party/FreeRTOS/Source/stream_buffer.c **** 					pxStreamBuffer->uxStreamBufferNumber = uxStreamBufferNumber;
 595              		.loc 1 427 43
 596 0064 3B69     		ldr	r3, [r7, #16]
 597 0066 FA68     		ldr	r2, [r7, #12]
 598 0068 1A62     		str	r2, [r3, #32]
 599              	.L37:
 428:Middlewares/Third_Party/FreeRTOS/Source/stream_buffer.c **** 				}
 429:Middlewares/Third_Party/FreeRTOS/Source/stream_buffer.c **** 				#endif
 430:Middlewares/Third_Party/FreeRTOS/Source/stream_buffer.c **** 
 431:Middlewares/Third_Party/FreeRTOS/Source/stream_buffer.c **** 				traceSTREAM_BUFFER_RESET( xStreamBuffer );
 432:Middlewares/Third_Party/FreeRTOS/Source/stream_buffer.c **** 			}
 433:Middlewares/Third_Party/FreeRTOS/Source/stream_buffer.c **** 		}
 434:Middlewares/Third_Party/FreeRTOS/Source/stream_buffer.c **** 	}
 435:Middlewares/Third_Party/FreeRTOS/Source/stream_buffer.c **** 	taskEXIT_CRITICAL();
 600              		.loc 1 435 2
 601 006a FFF7FEFF 		bl	vPortExitCritical
 436:Middlewares/Third_Party/FreeRTOS/Source/stream_buffer.c **** 
 437:Middlewares/Third_Party/FreeRTOS/Source/stream_buffer.c **** 	return xReturn;
 602              		.loc 1 437 9
 603 006e 7B69     		ldr	r3, [r7, #20]
 438:Middlewares/Third_Party/FreeRTOS/Source/stream_buffer.c **** }
 604              		.loc 1 438 1
 605 0070 1846     		mov	r0, r3
 606 0072 1837     		adds	r7, r7, #24
 607              	.LCFI18:
 608              		.cfi_def_cfa_offset 8
 609 0074 BD46     		mov	sp, r7
 610              	.LCFI19:
ARM GAS  C:\Users\Lenovo\AppData\Local\Temp\ccRNOCMD.s 			page 23


 611              		.cfi_def_cfa_register 13
 612              		@ sp needed
 613 0076 80BD     		pop	{r7, pc}
 614              		.cfi_endproc
 615              	.LFE7:
 617              		.section	.text.xStreamBufferSetTriggerLevel,"ax",%progbits
 618              		.align	1
 619              		.global	xStreamBufferSetTriggerLevel
 620              		.syntax unified
 621              		.thumb
 622              		.thumb_func
 624              	xStreamBufferSetTriggerLevel:
 625              	.LFB8:
 439:Middlewares/Third_Party/FreeRTOS/Source/stream_buffer.c **** /*-----------------------------------------------------------*/
 440:Middlewares/Third_Party/FreeRTOS/Source/stream_buffer.c **** 
 441:Middlewares/Third_Party/FreeRTOS/Source/stream_buffer.c **** BaseType_t xStreamBufferSetTriggerLevel( StreamBufferHandle_t xStreamBuffer, size_t xTriggerLevel )
 442:Middlewares/Third_Party/FreeRTOS/Source/stream_buffer.c **** {
 626              		.loc 1 442 1
 627              		.cfi_startproc
 628              		@ args = 0, pretend = 0, frame = 24
 629              		@ frame_needed = 1, uses_anonymous_args = 0
 630              		@ link register save eliminated.
 631 0000 80B4     		push	{r7}
 632              	.LCFI20:
 633              		.cfi_def_cfa_offset 4
 634              		.cfi_offset 7, -4
 635 0002 87B0     		sub	sp, sp, #28
 636              	.LCFI21:
 637              		.cfi_def_cfa_offset 32
 638 0004 00AF     		add	r7, sp, #0
 639              	.LCFI22:
 640              		.cfi_def_cfa_register 7
 641 0006 7860     		str	r0, [r7, #4]
 642 0008 3960     		str	r1, [r7]
 443:Middlewares/Third_Party/FreeRTOS/Source/stream_buffer.c **** StreamBuffer_t * const pxStreamBuffer = xStreamBuffer;
 643              		.loc 1 443 24
 644 000a 7B68     		ldr	r3, [r7, #4]
 645 000c 3B61     		str	r3, [r7, #16]
 444:Middlewares/Third_Party/FreeRTOS/Source/stream_buffer.c **** BaseType_t xReturn;
 445:Middlewares/Third_Party/FreeRTOS/Source/stream_buffer.c **** 
 446:Middlewares/Third_Party/FreeRTOS/Source/stream_buffer.c **** 	configASSERT( pxStreamBuffer );
 646              		.loc 1 446 2
 647 000e 3B69     		ldr	r3, [r7, #16]
 648 0010 002B     		cmp	r3, #0
 649 0012 0AD1     		bne	.L40
 650              	.LBB117:
 651              	.LBB118:
 195:Middlewares/Third_Party/FreeRTOS/Source/portable/GCC/ARM_CM3/portmacro.h **** 	(
 652              		.loc 2 195 2
 653              		.syntax unified
 654              	@ 195 "Middlewares/Third_Party/FreeRTOS/Source/portable/GCC/ARM_CM3/portmacro.h" 1
 655 0014 4FF05003 			mov r3, #80												
 656 0018 83F31188 		msr basepri, r3											
 657 001c BFF36F8F 		isb														
 658 0020 BFF34F8F 		dsb														
 659              	
 660              	@ 0 "" 2
ARM GAS  C:\Users\Lenovo\AppData\Local\Temp\ccRNOCMD.s 			page 24


 661              		.thumb
 662              		.syntax unified
 663 0024 FB60     		str	r3, [r7, #12]
 664              		.loc 2 203 1
 665 0026 00BF     		nop
 666              	.L41:
 667              	.LBE118:
 668              	.LBE117:
 669              		.loc 1 446 2 discriminator 1
 670 0028 FEE7     		b	.L41
 671              	.L40:
 447:Middlewares/Third_Party/FreeRTOS/Source/stream_buffer.c **** 
 448:Middlewares/Third_Party/FreeRTOS/Source/stream_buffer.c **** 	/* It is not valid for the trigger level to be 0. */
 449:Middlewares/Third_Party/FreeRTOS/Source/stream_buffer.c **** 	if( xTriggerLevel == ( size_t ) 0 )
 672              		.loc 1 449 4
 673 002a 3B68     		ldr	r3, [r7]
 674 002c 002B     		cmp	r3, #0
 675 002e 01D1     		bne	.L42
 450:Middlewares/Third_Party/FreeRTOS/Source/stream_buffer.c **** 	{
 451:Middlewares/Third_Party/FreeRTOS/Source/stream_buffer.c **** 		xTriggerLevel = ( size_t ) 1;
 676              		.loc 1 451 17
 677 0030 0123     		movs	r3, #1
 678 0032 3B60     		str	r3, [r7]
 679              	.L42:
 452:Middlewares/Third_Party/FreeRTOS/Source/stream_buffer.c **** 	}
 453:Middlewares/Third_Party/FreeRTOS/Source/stream_buffer.c **** 
 454:Middlewares/Third_Party/FreeRTOS/Source/stream_buffer.c **** 	/* The trigger level is the number of bytes that must be in the stream
 455:Middlewares/Third_Party/FreeRTOS/Source/stream_buffer.c **** 	buffer before a task that is waiting for data is unblocked. */
 456:Middlewares/Third_Party/FreeRTOS/Source/stream_buffer.c **** 	if( xTriggerLevel <= pxStreamBuffer->xLength )
 680              		.loc 1 456 37
 681 0034 3B69     		ldr	r3, [r7, #16]
 682 0036 9B68     		ldr	r3, [r3, #8]
 683              		.loc 1 456 4
 684 0038 3A68     		ldr	r2, [r7]
 685 003a 9A42     		cmp	r2, r3
 686 003c 05D8     		bhi	.L43
 457:Middlewares/Third_Party/FreeRTOS/Source/stream_buffer.c **** 	{
 458:Middlewares/Third_Party/FreeRTOS/Source/stream_buffer.c **** 		pxStreamBuffer->xTriggerLevelBytes = xTriggerLevel;
 687              		.loc 1 458 38
 688 003e 3B69     		ldr	r3, [r7, #16]
 689 0040 3A68     		ldr	r2, [r7]
 690 0042 DA60     		str	r2, [r3, #12]
 459:Middlewares/Third_Party/FreeRTOS/Source/stream_buffer.c **** 		xReturn = pdPASS;
 691              		.loc 1 459 11
 692 0044 0123     		movs	r3, #1
 693 0046 7B61     		str	r3, [r7, #20]
 694 0048 01E0     		b	.L44
 695              	.L43:
 460:Middlewares/Third_Party/FreeRTOS/Source/stream_buffer.c **** 	}
 461:Middlewares/Third_Party/FreeRTOS/Source/stream_buffer.c **** 	else
 462:Middlewares/Third_Party/FreeRTOS/Source/stream_buffer.c **** 	{
 463:Middlewares/Third_Party/FreeRTOS/Source/stream_buffer.c **** 		xReturn = pdFALSE;
 696              		.loc 1 463 11
 697 004a 0023     		movs	r3, #0
 698 004c 7B61     		str	r3, [r7, #20]
 699              	.L44:
 464:Middlewares/Third_Party/FreeRTOS/Source/stream_buffer.c **** 	}
ARM GAS  C:\Users\Lenovo\AppData\Local\Temp\ccRNOCMD.s 			page 25


 465:Middlewares/Third_Party/FreeRTOS/Source/stream_buffer.c **** 
 466:Middlewares/Third_Party/FreeRTOS/Source/stream_buffer.c **** 	return xReturn;
 700              		.loc 1 466 9
 701 004e 7B69     		ldr	r3, [r7, #20]
 467:Middlewares/Third_Party/FreeRTOS/Source/stream_buffer.c **** }
 702              		.loc 1 467 1
 703 0050 1846     		mov	r0, r3
 704 0052 1C37     		adds	r7, r7, #28
 705              	.LCFI23:
 706              		.cfi_def_cfa_offset 4
 707 0054 BD46     		mov	sp, r7
 708              	.LCFI24:
 709              		.cfi_def_cfa_register 13
 710              		@ sp needed
 711 0056 80BC     		pop	{r7}
 712              	.LCFI25:
 713              		.cfi_restore 7
 714              		.cfi_def_cfa_offset 0
 715 0058 7047     		bx	lr
 716              		.cfi_endproc
 717              	.LFE8:
 719              		.section	.text.xStreamBufferSpacesAvailable,"ax",%progbits
 720              		.align	1
 721              		.global	xStreamBufferSpacesAvailable
 722              		.syntax unified
 723              		.thumb
 724              		.thumb_func
 726              	xStreamBufferSpacesAvailable:
 727              	.LFB9:
 468:Middlewares/Third_Party/FreeRTOS/Source/stream_buffer.c **** /*-----------------------------------------------------------*/
 469:Middlewares/Third_Party/FreeRTOS/Source/stream_buffer.c **** 
 470:Middlewares/Third_Party/FreeRTOS/Source/stream_buffer.c **** size_t xStreamBufferSpacesAvailable( StreamBufferHandle_t xStreamBuffer )
 471:Middlewares/Third_Party/FreeRTOS/Source/stream_buffer.c **** {
 728              		.loc 1 471 1
 729              		.cfi_startproc
 730              		@ args = 0, pretend = 0, frame = 24
 731              		@ frame_needed = 1, uses_anonymous_args = 0
 732              		@ link register save eliminated.
 733 0000 80B4     		push	{r7}
 734              	.LCFI26:
 735              		.cfi_def_cfa_offset 4
 736              		.cfi_offset 7, -4
 737 0002 87B0     		sub	sp, sp, #28
 738              	.LCFI27:
 739              		.cfi_def_cfa_offset 32
 740 0004 00AF     		add	r7, sp, #0
 741              	.LCFI28:
 742              		.cfi_def_cfa_register 7
 743 0006 7860     		str	r0, [r7, #4]
 472:Middlewares/Third_Party/FreeRTOS/Source/stream_buffer.c **** const StreamBuffer_t * const pxStreamBuffer = xStreamBuffer;
 744              		.loc 1 472 30
 745 0008 7B68     		ldr	r3, [r7, #4]
 746 000a 3B61     		str	r3, [r7, #16]
 473:Middlewares/Third_Party/FreeRTOS/Source/stream_buffer.c **** size_t xSpace;
 474:Middlewares/Third_Party/FreeRTOS/Source/stream_buffer.c **** 
 475:Middlewares/Third_Party/FreeRTOS/Source/stream_buffer.c **** 	configASSERT( pxStreamBuffer );
 747              		.loc 1 475 2
ARM GAS  C:\Users\Lenovo\AppData\Local\Temp\ccRNOCMD.s 			page 26


 748 000c 3B69     		ldr	r3, [r7, #16]
 749 000e 002B     		cmp	r3, #0
 750 0010 0AD1     		bne	.L47
 751              	.LBB119:
 752              	.LBB120:
 195:Middlewares/Third_Party/FreeRTOS/Source/portable/GCC/ARM_CM3/portmacro.h **** 	(
 753              		.loc 2 195 2
 754              		.syntax unified
 755              	@ 195 "Middlewares/Third_Party/FreeRTOS/Source/portable/GCC/ARM_CM3/portmacro.h" 1
 756 0012 4FF05003 			mov r3, #80												
 757 0016 83F31188 		msr basepri, r3											
 758 001a BFF36F8F 		isb														
 759 001e BFF34F8F 		dsb														
 760              	
 761              	@ 0 "" 2
 762              		.thumb
 763              		.syntax unified
 764 0022 FB60     		str	r3, [r7, #12]
 765              		.loc 2 203 1
 766 0024 00BF     		nop
 767              	.L48:
 768              	.LBE120:
 769              	.LBE119:
 770              		.loc 1 475 2 discriminator 1
 771 0026 FEE7     		b	.L48
 772              	.L47:
 476:Middlewares/Third_Party/FreeRTOS/Source/stream_buffer.c **** 
 477:Middlewares/Third_Party/FreeRTOS/Source/stream_buffer.c **** 	xSpace = pxStreamBuffer->xLength + pxStreamBuffer->xTail;
 773              		.loc 1 477 25
 774 0028 3B69     		ldr	r3, [r7, #16]
 775 002a 9A68     		ldr	r2, [r3, #8]
 776              		.loc 1 477 51
 777 002c 3B69     		ldr	r3, [r7, #16]
 778 002e 1B68     		ldr	r3, [r3]
 779              		.loc 1 477 9
 780 0030 1344     		add	r3, r3, r2
 781 0032 7B61     		str	r3, [r7, #20]
 478:Middlewares/Third_Party/FreeRTOS/Source/stream_buffer.c **** 	xSpace -= pxStreamBuffer->xHead;
 782              		.loc 1 478 26
 783 0034 3B69     		ldr	r3, [r7, #16]
 784 0036 5B68     		ldr	r3, [r3, #4]
 785              		.loc 1 478 9
 786 0038 7A69     		ldr	r2, [r7, #20]
 787 003a D31A     		subs	r3, r2, r3
 788 003c 7B61     		str	r3, [r7, #20]
 479:Middlewares/Third_Party/FreeRTOS/Source/stream_buffer.c **** 	xSpace -= ( size_t ) 1;
 789              		.loc 1 479 9
 790 003e 7B69     		ldr	r3, [r7, #20]
 791 0040 013B     		subs	r3, r3, #1
 792 0042 7B61     		str	r3, [r7, #20]
 480:Middlewares/Third_Party/FreeRTOS/Source/stream_buffer.c **** 
 481:Middlewares/Third_Party/FreeRTOS/Source/stream_buffer.c **** 	if( xSpace >= pxStreamBuffer->xLength )
 793              		.loc 1 481 30
 794 0044 3B69     		ldr	r3, [r7, #16]
 795 0046 9B68     		ldr	r3, [r3, #8]
 796              		.loc 1 481 4
 797 0048 7A69     		ldr	r2, [r7, #20]
ARM GAS  C:\Users\Lenovo\AppData\Local\Temp\ccRNOCMD.s 			page 27


 798 004a 9A42     		cmp	r2, r3
 799 004c 04D3     		bcc	.L49
 482:Middlewares/Third_Party/FreeRTOS/Source/stream_buffer.c **** 	{
 483:Middlewares/Third_Party/FreeRTOS/Source/stream_buffer.c **** 		xSpace -= pxStreamBuffer->xLength;
 800              		.loc 1 483 27
 801 004e 3B69     		ldr	r3, [r7, #16]
 802 0050 9B68     		ldr	r3, [r3, #8]
 803              		.loc 1 483 10
 804 0052 7A69     		ldr	r2, [r7, #20]
 805 0054 D31A     		subs	r3, r2, r3
 806 0056 7B61     		str	r3, [r7, #20]
 807              	.L49:
 484:Middlewares/Third_Party/FreeRTOS/Source/stream_buffer.c **** 	}
 485:Middlewares/Third_Party/FreeRTOS/Source/stream_buffer.c **** 	else
 486:Middlewares/Third_Party/FreeRTOS/Source/stream_buffer.c **** 	{
 487:Middlewares/Third_Party/FreeRTOS/Source/stream_buffer.c **** 		mtCOVERAGE_TEST_MARKER();
 488:Middlewares/Third_Party/FreeRTOS/Source/stream_buffer.c **** 	}
 489:Middlewares/Third_Party/FreeRTOS/Source/stream_buffer.c **** 
 490:Middlewares/Third_Party/FreeRTOS/Source/stream_buffer.c **** 	return xSpace;
 808              		.loc 1 490 9
 809 0058 7B69     		ldr	r3, [r7, #20]
 491:Middlewares/Third_Party/FreeRTOS/Source/stream_buffer.c **** }
 810              		.loc 1 491 1
 811 005a 1846     		mov	r0, r3
 812 005c 1C37     		adds	r7, r7, #28
 813              	.LCFI29:
 814              		.cfi_def_cfa_offset 4
 815 005e BD46     		mov	sp, r7
 816              	.LCFI30:
 817              		.cfi_def_cfa_register 13
 818              		@ sp needed
 819 0060 80BC     		pop	{r7}
 820              	.LCFI31:
 821              		.cfi_restore 7
 822              		.cfi_def_cfa_offset 0
 823 0062 7047     		bx	lr
 824              		.cfi_endproc
 825              	.LFE9:
 827              		.section	.text.xStreamBufferBytesAvailable,"ax",%progbits
 828              		.align	1
 829              		.global	xStreamBufferBytesAvailable
 830              		.syntax unified
 831              		.thumb
 832              		.thumb_func
 834              	xStreamBufferBytesAvailable:
 835              	.LFB10:
 492:Middlewares/Third_Party/FreeRTOS/Source/stream_buffer.c **** /*-----------------------------------------------------------*/
 493:Middlewares/Third_Party/FreeRTOS/Source/stream_buffer.c **** 
 494:Middlewares/Third_Party/FreeRTOS/Source/stream_buffer.c **** size_t xStreamBufferBytesAvailable( StreamBufferHandle_t xStreamBuffer )
 495:Middlewares/Third_Party/FreeRTOS/Source/stream_buffer.c **** {
 836              		.loc 1 495 1
 837              		.cfi_startproc
 838              		@ args = 0, pretend = 0, frame = 24
 839              		@ frame_needed = 1, uses_anonymous_args = 0
 840 0000 80B5     		push	{r7, lr}
 841              	.LCFI32:
 842              		.cfi_def_cfa_offset 8
ARM GAS  C:\Users\Lenovo\AppData\Local\Temp\ccRNOCMD.s 			page 28


 843              		.cfi_offset 7, -8
 844              		.cfi_offset 14, -4
 845 0002 86B0     		sub	sp, sp, #24
 846              	.LCFI33:
 847              		.cfi_def_cfa_offset 32
 848 0004 00AF     		add	r7, sp, #0
 849              	.LCFI34:
 850              		.cfi_def_cfa_register 7
 851 0006 7860     		str	r0, [r7, #4]
 496:Middlewares/Third_Party/FreeRTOS/Source/stream_buffer.c **** const StreamBuffer_t * const pxStreamBuffer = xStreamBuffer;
 852              		.loc 1 496 30
 853 0008 7B68     		ldr	r3, [r7, #4]
 854 000a 7B61     		str	r3, [r7, #20]
 497:Middlewares/Third_Party/FreeRTOS/Source/stream_buffer.c **** size_t xReturn;
 498:Middlewares/Third_Party/FreeRTOS/Source/stream_buffer.c **** 
 499:Middlewares/Third_Party/FreeRTOS/Source/stream_buffer.c **** 	configASSERT( pxStreamBuffer );
 855              		.loc 1 499 2
 856 000c 7B69     		ldr	r3, [r7, #20]
 857 000e 002B     		cmp	r3, #0
 858 0010 0AD1     		bne	.L52
 859              	.LBB121:
 860              	.LBB122:
 195:Middlewares/Third_Party/FreeRTOS/Source/portable/GCC/ARM_CM3/portmacro.h **** 	(
 861              		.loc 2 195 2
 862              		.syntax unified
 863              	@ 195 "Middlewares/Third_Party/FreeRTOS/Source/portable/GCC/ARM_CM3/portmacro.h" 1
 864 0012 4FF05003 			mov r3, #80												
 865 0016 83F31188 		msr basepri, r3											
 866 001a BFF36F8F 		isb														
 867 001e BFF34F8F 		dsb														
 868              	
 869              	@ 0 "" 2
 870              		.thumb
 871              		.syntax unified
 872 0022 FB60     		str	r3, [r7, #12]
 873              		.loc 2 203 1
 874 0024 00BF     		nop
 875              	.L53:
 876              	.LBE122:
 877              	.LBE121:
 878              		.loc 1 499 2 discriminator 1
 879 0026 FEE7     		b	.L53
 880              	.L52:
 500:Middlewares/Third_Party/FreeRTOS/Source/stream_buffer.c **** 
 501:Middlewares/Third_Party/FreeRTOS/Source/stream_buffer.c **** 	xReturn = prvBytesInBuffer( pxStreamBuffer );
 881              		.loc 1 501 12
 882 0028 7869     		ldr	r0, [r7, #20]
 883 002a FFF7FEFF 		bl	prvBytesInBuffer
 884 002e 3861     		str	r0, [r7, #16]
 502:Middlewares/Third_Party/FreeRTOS/Source/stream_buffer.c **** 	return xReturn;
 885              		.loc 1 502 9
 886 0030 3B69     		ldr	r3, [r7, #16]
 503:Middlewares/Third_Party/FreeRTOS/Source/stream_buffer.c **** }
 887              		.loc 1 503 1
 888 0032 1846     		mov	r0, r3
 889 0034 1837     		adds	r7, r7, #24
 890              	.LCFI35:
ARM GAS  C:\Users\Lenovo\AppData\Local\Temp\ccRNOCMD.s 			page 29


 891              		.cfi_def_cfa_offset 8
 892 0036 BD46     		mov	sp, r7
 893              	.LCFI36:
 894              		.cfi_def_cfa_register 13
 895              		@ sp needed
 896 0038 80BD     		pop	{r7, pc}
 897              		.cfi_endproc
 898              	.LFE10:
 900              		.section	.text.xStreamBufferSend,"ax",%progbits
 901              		.align	1
 902              		.global	xStreamBufferSend
 903              		.syntax unified
 904              		.thumb
 905              		.thumb_func
 907              	xStreamBufferSend:
 908              	.LFB11:
 504:Middlewares/Third_Party/FreeRTOS/Source/stream_buffer.c **** /*-----------------------------------------------------------*/
 505:Middlewares/Third_Party/FreeRTOS/Source/stream_buffer.c **** 
 506:Middlewares/Third_Party/FreeRTOS/Source/stream_buffer.c **** size_t xStreamBufferSend( StreamBufferHandle_t xStreamBuffer,
 507:Middlewares/Third_Party/FreeRTOS/Source/stream_buffer.c **** 						  const void *pvTxData,
 508:Middlewares/Third_Party/FreeRTOS/Source/stream_buffer.c **** 						  size_t xDataLengthBytes,
 509:Middlewares/Third_Party/FreeRTOS/Source/stream_buffer.c **** 						  TickType_t xTicksToWait )
 510:Middlewares/Third_Party/FreeRTOS/Source/stream_buffer.c **** {
 909              		.loc 1 510 1
 910              		.cfi_startproc
 911              		@ args = 0, pretend = 0, frame = 56
 912              		@ frame_needed = 1, uses_anonymous_args = 0
 913 0000 80B5     		push	{r7, lr}
 914              	.LCFI37:
 915              		.cfi_def_cfa_offset 8
 916              		.cfi_offset 7, -8
 917              		.cfi_offset 14, -4
 918 0002 90B0     		sub	sp, sp, #64
 919              	.LCFI38:
 920              		.cfi_def_cfa_offset 72
 921 0004 02AF     		add	r7, sp, #8
 922              	.LCFI39:
 923              		.cfi_def_cfa 7, 64
 924 0006 F860     		str	r0, [r7, #12]
 925 0008 B960     		str	r1, [r7, #8]
 926 000a 7A60     		str	r2, [r7, #4]
 927 000c 3B60     		str	r3, [r7]
 511:Middlewares/Third_Party/FreeRTOS/Source/stream_buffer.c **** StreamBuffer_t * const pxStreamBuffer = xStreamBuffer;
 928              		.loc 1 511 24
 929 000e FB68     		ldr	r3, [r7, #12]
 930 0010 FB62     		str	r3, [r7, #44]
 512:Middlewares/Third_Party/FreeRTOS/Source/stream_buffer.c **** size_t xReturn, xSpace = 0;
 931              		.loc 1 512 17
 932 0012 0023     		movs	r3, #0
 933 0014 7B63     		str	r3, [r7, #52]
 513:Middlewares/Third_Party/FreeRTOS/Source/stream_buffer.c **** size_t xRequiredSpace = xDataLengthBytes;
 934              		.loc 1 513 8
 935 0016 7B68     		ldr	r3, [r7, #4]
 936 0018 3B63     		str	r3, [r7, #48]
 514:Middlewares/Third_Party/FreeRTOS/Source/stream_buffer.c **** TimeOut_t xTimeOut;
 515:Middlewares/Third_Party/FreeRTOS/Source/stream_buffer.c **** 
 516:Middlewares/Third_Party/FreeRTOS/Source/stream_buffer.c **** 	configASSERT( pvTxData );
ARM GAS  C:\Users\Lenovo\AppData\Local\Temp\ccRNOCMD.s 			page 30


 937              		.loc 1 516 2
 938 001a BB68     		ldr	r3, [r7, #8]
 939 001c 002B     		cmp	r3, #0
 940 001e 0AD1     		bne	.L56
 941              	.LBB123:
 942              	.LBB124:
 195:Middlewares/Third_Party/FreeRTOS/Source/portable/GCC/ARM_CM3/portmacro.h **** 	(
 943              		.loc 2 195 2
 944              		.syntax unified
 945              	@ 195 "Middlewares/Third_Party/FreeRTOS/Source/portable/GCC/ARM_CM3/portmacro.h" 1
 946 0020 4FF05003 			mov r3, #80												
 947 0024 83F31188 		msr basepri, r3											
 948 0028 BFF36F8F 		isb														
 949 002c BFF34F8F 		dsb														
 950              	
 951              	@ 0 "" 2
 952              		.thumb
 953              		.syntax unified
 954 0030 7B62     		str	r3, [r7, #36]
 955              		.loc 2 203 1
 956 0032 00BF     		nop
 957              	.L57:
 958              	.LBE124:
 959              	.LBE123:
 960              		.loc 1 516 2 discriminator 1
 961 0034 FEE7     		b	.L57
 962              	.L56:
 517:Middlewares/Third_Party/FreeRTOS/Source/stream_buffer.c **** 	configASSERT( pxStreamBuffer );
 963              		.loc 1 517 2
 964 0036 FB6A     		ldr	r3, [r7, #44]
 965 0038 002B     		cmp	r3, #0
 966 003a 0AD1     		bne	.L58
 967              	.LBB125:
 968              	.LBB126:
 195:Middlewares/Third_Party/FreeRTOS/Source/portable/GCC/ARM_CM3/portmacro.h **** 	(
 969              		.loc 2 195 2
 970              		.syntax unified
 971              	@ 195 "Middlewares/Third_Party/FreeRTOS/Source/portable/GCC/ARM_CM3/portmacro.h" 1
 972 003c 4FF05003 			mov r3, #80												
 973 0040 83F31188 		msr basepri, r3											
 974 0044 BFF36F8F 		isb														
 975 0048 BFF34F8F 		dsb														
 976              	
 977              	@ 0 "" 2
 978              		.thumb
 979              		.syntax unified
 980 004c 3B62     		str	r3, [r7, #32]
 981              		.loc 2 203 1
 982 004e 00BF     		nop
 983              	.L59:
 984              	.LBE126:
 985              	.LBE125:
 986              		.loc 1 517 2 discriminator 2
 987 0050 FEE7     		b	.L59
 988              	.L58:
 518:Middlewares/Third_Party/FreeRTOS/Source/stream_buffer.c **** 
 519:Middlewares/Third_Party/FreeRTOS/Source/stream_buffer.c **** 	/* This send function is used to write to both message buffers and stream
ARM GAS  C:\Users\Lenovo\AppData\Local\Temp\ccRNOCMD.s 			page 31


 520:Middlewares/Third_Party/FreeRTOS/Source/stream_buffer.c **** 	buffers.  If this is a message buffer then the space needed must be
 521:Middlewares/Third_Party/FreeRTOS/Source/stream_buffer.c **** 	increased by the amount of bytes needed to store the length of the
 522:Middlewares/Third_Party/FreeRTOS/Source/stream_buffer.c **** 	message. */
 523:Middlewares/Third_Party/FreeRTOS/Source/stream_buffer.c **** 	if( ( pxStreamBuffer->ucFlags & sbFLAGS_IS_MESSAGE_BUFFER ) != ( uint8_t ) 0 )
 989              		.loc 1 523 22
 990 0052 FB6A     		ldr	r3, [r7, #44]
 991 0054 1B7F     		ldrb	r3, [r3, #28]	@ zero_extendqisi2
 992              		.loc 1 523 32
 993 0056 03F00103 		and	r3, r3, #1
 994              		.loc 1 523 4
 995 005a 002B     		cmp	r3, #0
 996 005c 11D0     		beq	.L60
 524:Middlewares/Third_Party/FreeRTOS/Source/stream_buffer.c **** 	{
 525:Middlewares/Third_Party/FreeRTOS/Source/stream_buffer.c **** 		xRequiredSpace += sbBYTES_TO_STORE_MESSAGE_LENGTH;
 997              		.loc 1 525 18
 998 005e 3B6B     		ldr	r3, [r7, #48]
 999 0060 0433     		adds	r3, r3, #4
 1000 0062 3B63     		str	r3, [r7, #48]
 526:Middlewares/Third_Party/FreeRTOS/Source/stream_buffer.c **** 
 527:Middlewares/Third_Party/FreeRTOS/Source/stream_buffer.c **** 		/* Overflow? */
 528:Middlewares/Third_Party/FreeRTOS/Source/stream_buffer.c **** 		configASSERT( xRequiredSpace > xDataLengthBytes );
 1001              		.loc 1 528 3
 1002 0064 3A6B     		ldr	r2, [r7, #48]
 1003 0066 7B68     		ldr	r3, [r7, #4]
 1004 0068 9A42     		cmp	r2, r3
 1005 006a 0AD8     		bhi	.L60
 1006              	.LBB127:
 1007              	.LBB128:
 195:Middlewares/Third_Party/FreeRTOS/Source/portable/GCC/ARM_CM3/portmacro.h **** 	(
 1008              		.loc 2 195 2
 1009              		.syntax unified
 1010              	@ 195 "Middlewares/Third_Party/FreeRTOS/Source/portable/GCC/ARM_CM3/portmacro.h" 1
 1011 006c 4FF05003 			mov r3, #80												
 1012 0070 83F31188 		msr basepri, r3											
 1013 0074 BFF36F8F 		isb														
 1014 0078 BFF34F8F 		dsb														
 1015              	
 1016              	@ 0 "" 2
 1017              		.thumb
 1018              		.syntax unified
 1019 007c FB61     		str	r3, [r7, #28]
 1020              		.loc 2 203 1
 1021 007e 00BF     		nop
 1022              	.L61:
 1023              	.LBE128:
 1024              	.LBE127:
 1025              		.loc 1 528 3 discriminator 3
 1026 0080 FEE7     		b	.L61
 1027              	.L60:
 529:Middlewares/Third_Party/FreeRTOS/Source/stream_buffer.c **** 	}
 530:Middlewares/Third_Party/FreeRTOS/Source/stream_buffer.c **** 	else
 531:Middlewares/Third_Party/FreeRTOS/Source/stream_buffer.c **** 	{
 532:Middlewares/Third_Party/FreeRTOS/Source/stream_buffer.c **** 		mtCOVERAGE_TEST_MARKER();
 533:Middlewares/Third_Party/FreeRTOS/Source/stream_buffer.c **** 	}
 534:Middlewares/Third_Party/FreeRTOS/Source/stream_buffer.c **** 
 535:Middlewares/Third_Party/FreeRTOS/Source/stream_buffer.c **** 	if( xTicksToWait != ( TickType_t ) 0 )
 1028              		.loc 1 535 19
ARM GAS  C:\Users\Lenovo\AppData\Local\Temp\ccRNOCMD.s 			page 32


 1029 0082 3B68     		ldr	r3, [r7]
 1030              		.loc 1 535 4
 1031 0084 002B     		cmp	r3, #0
 1032 0086 3ED0     		beq	.L62
 536:Middlewares/Third_Party/FreeRTOS/Source/stream_buffer.c **** 	{
 537:Middlewares/Third_Party/FreeRTOS/Source/stream_buffer.c **** 		vTaskSetTimeOutState( &xTimeOut );
 1033              		.loc 1 537 3
 1034 0088 07F11003 		add	r3, r7, #16
 1035 008c 1846     		mov	r0, r3
 1036 008e FFF7FEFF 		bl	vTaskSetTimeOutState
 1037              	.L68:
 538:Middlewares/Third_Party/FreeRTOS/Source/stream_buffer.c **** 
 539:Middlewares/Third_Party/FreeRTOS/Source/stream_buffer.c **** 		do
 540:Middlewares/Third_Party/FreeRTOS/Source/stream_buffer.c **** 		{
 541:Middlewares/Third_Party/FreeRTOS/Source/stream_buffer.c **** 			/* Wait until the required number of bytes are free in the message
 542:Middlewares/Third_Party/FreeRTOS/Source/stream_buffer.c **** 			buffer. */
 543:Middlewares/Third_Party/FreeRTOS/Source/stream_buffer.c **** 			taskENTER_CRITICAL();
 1038              		.loc 1 543 4
 1039 0092 FFF7FEFF 		bl	vPortEnterCritical
 544:Middlewares/Third_Party/FreeRTOS/Source/stream_buffer.c **** 			{
 545:Middlewares/Third_Party/FreeRTOS/Source/stream_buffer.c **** 				xSpace = xStreamBufferSpacesAvailable( pxStreamBuffer );
 1040              		.loc 1 545 14
 1041 0096 F86A     		ldr	r0, [r7, #44]
 1042 0098 FFF7FEFF 		bl	xStreamBufferSpacesAvailable
 1043 009c 7863     		str	r0, [r7, #52]
 546:Middlewares/Third_Party/FreeRTOS/Source/stream_buffer.c **** 
 547:Middlewares/Third_Party/FreeRTOS/Source/stream_buffer.c **** 				if( xSpace < xRequiredSpace )
 1044              		.loc 1 547 7
 1045 009e 7A6B     		ldr	r2, [r7, #52]
 1046 00a0 3B6B     		ldr	r3, [r7, #48]
 1047 00a2 9A42     		cmp	r2, r3
 1048 00a4 17D2     		bcs	.L63
 548:Middlewares/Third_Party/FreeRTOS/Source/stream_buffer.c **** 				{
 549:Middlewares/Third_Party/FreeRTOS/Source/stream_buffer.c **** 					/* Clear notification state as going to wait for space. */
 550:Middlewares/Third_Party/FreeRTOS/Source/stream_buffer.c **** 					( void ) xTaskNotifyStateClear( NULL );
 1049              		.loc 1 550 15
 1050 00a6 0020     		movs	r0, #0
 1051 00a8 FFF7FEFF 		bl	xTaskNotifyStateClear
 551:Middlewares/Third_Party/FreeRTOS/Source/stream_buffer.c **** 
 552:Middlewares/Third_Party/FreeRTOS/Source/stream_buffer.c **** 					/* Should only be one writer. */
 553:Middlewares/Third_Party/FreeRTOS/Source/stream_buffer.c **** 					configASSERT( pxStreamBuffer->xTaskWaitingToSend == NULL );
 1052              		.loc 1 553 6
 1053 00ac FB6A     		ldr	r3, [r7, #44]
 1054 00ae 5B69     		ldr	r3, [r3, #20]
 1055 00b0 002B     		cmp	r3, #0
 1056 00b2 0AD0     		beq	.L64
 1057              	.LBB129:
 1058              	.LBB130:
 195:Middlewares/Third_Party/FreeRTOS/Source/portable/GCC/ARM_CM3/portmacro.h **** 	(
 1059              		.loc 2 195 2
 1060              		.syntax unified
 1061              	@ 195 "Middlewares/Third_Party/FreeRTOS/Source/portable/GCC/ARM_CM3/portmacro.h" 1
 1062 00b4 4FF05003 			mov r3, #80												
 1063 00b8 83F31188 		msr basepri, r3											
 1064 00bc BFF36F8F 		isb														
 1065 00c0 BFF34F8F 		dsb														
 1066              	
ARM GAS  C:\Users\Lenovo\AppData\Local\Temp\ccRNOCMD.s 			page 33


 1067              	@ 0 "" 2
 1068              		.thumb
 1069              		.syntax unified
 1070 00c4 BB61     		str	r3, [r7, #24]
 1071              		.loc 2 203 1
 1072 00c6 00BF     		nop
 1073              	.L65:
 1074              	.LBE130:
 1075              	.LBE129:
 1076              		.loc 1 553 6 discriminator 4
 1077 00c8 FEE7     		b	.L65
 1078              	.L64:
 554:Middlewares/Third_Party/FreeRTOS/Source/stream_buffer.c **** 					pxStreamBuffer->xTaskWaitingToSend = xTaskGetCurrentTaskHandle();
 1079              		.loc 1 554 43
 1080 00ca FFF7FEFF 		bl	xTaskGetCurrentTaskHandle
 1081 00ce 0246     		mov	r2, r0
 1082              		.loc 1 554 41
 1083 00d0 FB6A     		ldr	r3, [r7, #44]
 1084 00d2 5A61     		str	r2, [r3, #20]
 1085 00d4 02E0     		b	.L73
 1086              	.L63:
 555:Middlewares/Third_Party/FreeRTOS/Source/stream_buffer.c **** 				}
 556:Middlewares/Third_Party/FreeRTOS/Source/stream_buffer.c **** 				else
 557:Middlewares/Third_Party/FreeRTOS/Source/stream_buffer.c **** 				{
 558:Middlewares/Third_Party/FreeRTOS/Source/stream_buffer.c **** 					taskEXIT_CRITICAL();
 1087              		.loc 1 558 6
 1088 00d6 FFF7FEFF 		bl	vPortExitCritical
 559:Middlewares/Third_Party/FreeRTOS/Source/stream_buffer.c **** 					break;
 1089              		.loc 1 559 6
 1090 00da 14E0     		b	.L62
 1091              	.L73:
 560:Middlewares/Third_Party/FreeRTOS/Source/stream_buffer.c **** 				}
 561:Middlewares/Third_Party/FreeRTOS/Source/stream_buffer.c **** 			}
 562:Middlewares/Third_Party/FreeRTOS/Source/stream_buffer.c **** 			taskEXIT_CRITICAL();
 1092              		.loc 1 562 4
 1093 00dc FFF7FEFF 		bl	vPortExitCritical
 563:Middlewares/Third_Party/FreeRTOS/Source/stream_buffer.c **** 
 564:Middlewares/Third_Party/FreeRTOS/Source/stream_buffer.c **** 			traceBLOCKING_ON_STREAM_BUFFER_SEND( xStreamBuffer );
 565:Middlewares/Third_Party/FreeRTOS/Source/stream_buffer.c **** 			( void ) xTaskNotifyWait( ( uint32_t ) 0, ( uint32_t ) 0, NULL, xTicksToWait );
 1094              		.loc 1 565 4
 1095 00e0 3B68     		ldr	r3, [r7]
 1096              		.loc 1 565 13
 1097 00e2 0022     		movs	r2, #0
 1098 00e4 0021     		movs	r1, #0
 1099 00e6 0020     		movs	r0, #0
 1100 00e8 FFF7FEFF 		bl	xTaskNotifyWait
 566:Middlewares/Third_Party/FreeRTOS/Source/stream_buffer.c **** 			pxStreamBuffer->xTaskWaitingToSend = NULL;
 1101              		.loc 1 566 39
 1102 00ec FB6A     		ldr	r3, [r7, #44]
 1103 00ee 0022     		movs	r2, #0
 1104 00f0 5A61     		str	r2, [r3, #20]
 567:Middlewares/Third_Party/FreeRTOS/Source/stream_buffer.c **** 
 568:Middlewares/Third_Party/FreeRTOS/Source/stream_buffer.c **** 		} while( xTaskCheckForTimeOut( &xTimeOut, &xTicksToWait ) == pdFALSE );
 1105              		.loc 1 568 12
 1106 00f2 3A46     		mov	r2, r7
 1107 00f4 07F11003 		add	r3, r7, #16
 1108 00f8 1146     		mov	r1, r2
ARM GAS  C:\Users\Lenovo\AppData\Local\Temp\ccRNOCMD.s 			page 34


 1109 00fa 1846     		mov	r0, r3
 1110 00fc FFF7FEFF 		bl	xTaskCheckForTimeOut
 1111 0100 0346     		mov	r3, r0
 1112              		.loc 1 568 3
 1113 0102 002B     		cmp	r3, #0
 1114 0104 C5D0     		beq	.L68
 1115              	.L62:
 569:Middlewares/Third_Party/FreeRTOS/Source/stream_buffer.c **** 	}
 570:Middlewares/Third_Party/FreeRTOS/Source/stream_buffer.c **** 	else
 571:Middlewares/Third_Party/FreeRTOS/Source/stream_buffer.c **** 	{
 572:Middlewares/Third_Party/FreeRTOS/Source/stream_buffer.c **** 		mtCOVERAGE_TEST_MARKER();
 573:Middlewares/Third_Party/FreeRTOS/Source/stream_buffer.c **** 	}
 574:Middlewares/Third_Party/FreeRTOS/Source/stream_buffer.c **** 
 575:Middlewares/Third_Party/FreeRTOS/Source/stream_buffer.c **** 	if( xSpace == ( size_t ) 0 )
 1116              		.loc 1 575 4
 1117 0106 7B6B     		ldr	r3, [r7, #52]
 1118 0108 002B     		cmp	r3, #0
 1119 010a 03D1     		bne	.L69
 576:Middlewares/Third_Party/FreeRTOS/Source/stream_buffer.c **** 	{
 577:Middlewares/Third_Party/FreeRTOS/Source/stream_buffer.c **** 		xSpace = xStreamBufferSpacesAvailable( pxStreamBuffer );
 1120              		.loc 1 577 12
 1121 010c F86A     		ldr	r0, [r7, #44]
 1122 010e FFF7FEFF 		bl	xStreamBufferSpacesAvailable
 1123 0112 7863     		str	r0, [r7, #52]
 1124              	.L69:
 578:Middlewares/Third_Party/FreeRTOS/Source/stream_buffer.c **** 	}
 579:Middlewares/Third_Party/FreeRTOS/Source/stream_buffer.c **** 	else
 580:Middlewares/Third_Party/FreeRTOS/Source/stream_buffer.c **** 	{
 581:Middlewares/Third_Party/FreeRTOS/Source/stream_buffer.c **** 		mtCOVERAGE_TEST_MARKER();
 582:Middlewares/Third_Party/FreeRTOS/Source/stream_buffer.c **** 	}
 583:Middlewares/Third_Party/FreeRTOS/Source/stream_buffer.c **** 
 584:Middlewares/Third_Party/FreeRTOS/Source/stream_buffer.c **** 	xReturn = prvWriteMessageToBuffer( pxStreamBuffer, pvTxData, xDataLengthBytes, xSpace, xRequiredSp
 1125              		.loc 1 584 12
 1126 0114 3B6B     		ldr	r3, [r7, #48]
 1127 0116 0093     		str	r3, [sp]
 1128 0118 7B6B     		ldr	r3, [r7, #52]
 1129 011a 7A68     		ldr	r2, [r7, #4]
 1130 011c B968     		ldr	r1, [r7, #8]
 1131 011e F86A     		ldr	r0, [r7, #44]
 1132 0120 FFF7FEFF 		bl	prvWriteMessageToBuffer
 1133 0124 B862     		str	r0, [r7, #40]
 585:Middlewares/Third_Party/FreeRTOS/Source/stream_buffer.c **** 
 586:Middlewares/Third_Party/FreeRTOS/Source/stream_buffer.c **** 	if( xReturn > ( size_t ) 0 )
 1134              		.loc 1 586 4
 1135 0126 BB6A     		ldr	r3, [r7, #40]
 1136 0128 002B     		cmp	r3, #0
 1137 012a 19D0     		beq	.L70
 587:Middlewares/Third_Party/FreeRTOS/Source/stream_buffer.c **** 	{
 588:Middlewares/Third_Party/FreeRTOS/Source/stream_buffer.c **** 		traceSTREAM_BUFFER_SEND( xStreamBuffer, xReturn );
 589:Middlewares/Third_Party/FreeRTOS/Source/stream_buffer.c **** 
 590:Middlewares/Third_Party/FreeRTOS/Source/stream_buffer.c **** 		/* Was a task waiting for the data? */
 591:Middlewares/Third_Party/FreeRTOS/Source/stream_buffer.c **** 		if( prvBytesInBuffer( pxStreamBuffer ) >= pxStreamBuffer->xTriggerLevelBytes )
 1138              		.loc 1 591 7
 1139 012c F86A     		ldr	r0, [r7, #44]
 1140 012e FFF7FEFF 		bl	prvBytesInBuffer
 1141 0132 0246     		mov	r2, r0
 1142              		.loc 1 591 59
ARM GAS  C:\Users\Lenovo\AppData\Local\Temp\ccRNOCMD.s 			page 35


 1143 0134 FB6A     		ldr	r3, [r7, #44]
 1144 0136 DB68     		ldr	r3, [r3, #12]
 1145              		.loc 1 591 5
 1146 0138 9A42     		cmp	r2, r3
 1147 013a 11D3     		bcc	.L70
 592:Middlewares/Third_Party/FreeRTOS/Source/stream_buffer.c **** 		{
 593:Middlewares/Third_Party/FreeRTOS/Source/stream_buffer.c **** 			sbSEND_COMPLETED( pxStreamBuffer );
 1148              		.loc 1 593 4
 1149 013c FFF7FEFF 		bl	vTaskSuspendAll
 1150 0140 FB6A     		ldr	r3, [r7, #44]
 1151 0142 1B69     		ldr	r3, [r3, #16]
 1152 0144 002B     		cmp	r3, #0
 1153 0146 09D0     		beq	.L71
 1154              		.loc 1 593 4 is_stmt 0 discriminator 1
 1155 0148 FB6A     		ldr	r3, [r7, #44]
 1156 014a 1869     		ldr	r0, [r3, #16]
 1157 014c 0023     		movs	r3, #0
 1158 014e 0022     		movs	r2, #0
 1159 0150 0021     		movs	r1, #0
 1160 0152 FFF7FEFF 		bl	xTaskGenericNotify
 1161 0156 FB6A     		ldr	r3, [r7, #44]
 1162 0158 0022     		movs	r2, #0
 1163 015a 1A61     		str	r2, [r3, #16]
 1164              	.L71:
 1165              		.loc 1 593 4 discriminator 3
 1166 015c FFF7FEFF 		bl	xTaskResumeAll
 1167              	.L70:
 594:Middlewares/Third_Party/FreeRTOS/Source/stream_buffer.c **** 		}
 595:Middlewares/Third_Party/FreeRTOS/Source/stream_buffer.c **** 		else
 596:Middlewares/Third_Party/FreeRTOS/Source/stream_buffer.c **** 		{
 597:Middlewares/Third_Party/FreeRTOS/Source/stream_buffer.c **** 			mtCOVERAGE_TEST_MARKER();
 598:Middlewares/Third_Party/FreeRTOS/Source/stream_buffer.c **** 		}
 599:Middlewares/Third_Party/FreeRTOS/Source/stream_buffer.c **** 	}
 600:Middlewares/Third_Party/FreeRTOS/Source/stream_buffer.c **** 	else
 601:Middlewares/Third_Party/FreeRTOS/Source/stream_buffer.c **** 	{
 602:Middlewares/Third_Party/FreeRTOS/Source/stream_buffer.c **** 		mtCOVERAGE_TEST_MARKER();
 603:Middlewares/Third_Party/FreeRTOS/Source/stream_buffer.c **** 		traceSTREAM_BUFFER_SEND_FAILED( xStreamBuffer );
 604:Middlewares/Third_Party/FreeRTOS/Source/stream_buffer.c **** 	}
 605:Middlewares/Third_Party/FreeRTOS/Source/stream_buffer.c **** 
 606:Middlewares/Third_Party/FreeRTOS/Source/stream_buffer.c **** 	return xReturn;
 1168              		.loc 1 606 9 is_stmt 1
 1169 0160 BB6A     		ldr	r3, [r7, #40]
 607:Middlewares/Third_Party/FreeRTOS/Source/stream_buffer.c **** }
 1170              		.loc 1 607 1
 1171 0162 1846     		mov	r0, r3
 1172 0164 3837     		adds	r7, r7, #56
 1173              	.LCFI40:
 1174              		.cfi_def_cfa_offset 8
 1175 0166 BD46     		mov	sp, r7
 1176              	.LCFI41:
 1177              		.cfi_def_cfa_register 13
 1178              		@ sp needed
 1179 0168 80BD     		pop	{r7, pc}
 1180              		.cfi_endproc
 1181              	.LFE11:
 1183              		.section	.text.xStreamBufferSendFromISR,"ax",%progbits
 1184              		.align	1
ARM GAS  C:\Users\Lenovo\AppData\Local\Temp\ccRNOCMD.s 			page 36


 1185              		.global	xStreamBufferSendFromISR
 1186              		.syntax unified
 1187              		.thumb
 1188              		.thumb_func
 1190              	xStreamBufferSendFromISR:
 1191              	.LFB12:
 608:Middlewares/Third_Party/FreeRTOS/Source/stream_buffer.c **** /*-----------------------------------------------------------*/
 609:Middlewares/Third_Party/FreeRTOS/Source/stream_buffer.c **** 
 610:Middlewares/Third_Party/FreeRTOS/Source/stream_buffer.c **** size_t xStreamBufferSendFromISR( StreamBufferHandle_t xStreamBuffer,
 611:Middlewares/Third_Party/FreeRTOS/Source/stream_buffer.c **** 								 const void *pvTxData,
 612:Middlewares/Third_Party/FreeRTOS/Source/stream_buffer.c **** 								 size_t xDataLengthBytes,
 613:Middlewares/Third_Party/FreeRTOS/Source/stream_buffer.c **** 								 BaseType_t * const pxHigherPriorityTaskWoken )
 614:Middlewares/Third_Party/FreeRTOS/Source/stream_buffer.c **** {
 1192              		.loc 1 614 1
 1193              		.cfi_startproc
 1194              		@ args = 0, pretend = 0, frame = 56
 1195              		@ frame_needed = 1, uses_anonymous_args = 0
 1196 0000 80B5     		push	{r7, lr}
 1197              	.LCFI42:
 1198              		.cfi_def_cfa_offset 8
 1199              		.cfi_offset 7, -8
 1200              		.cfi_offset 14, -4
 1201 0002 90B0     		sub	sp, sp, #64
 1202              	.LCFI43:
 1203              		.cfi_def_cfa_offset 72
 1204 0004 02AF     		add	r7, sp, #8
 1205              	.LCFI44:
 1206              		.cfi_def_cfa 7, 64
 1207 0006 F860     		str	r0, [r7, #12]
 1208 0008 B960     		str	r1, [r7, #8]
 1209 000a 7A60     		str	r2, [r7, #4]
 1210 000c 3B60     		str	r3, [r7]
 615:Middlewares/Third_Party/FreeRTOS/Source/stream_buffer.c **** StreamBuffer_t * const pxStreamBuffer = xStreamBuffer;
 1211              		.loc 1 615 24
 1212 000e FB68     		ldr	r3, [r7, #12]
 1213 0010 3B63     		str	r3, [r7, #48]
 616:Middlewares/Third_Party/FreeRTOS/Source/stream_buffer.c **** size_t xReturn, xSpace;
 617:Middlewares/Third_Party/FreeRTOS/Source/stream_buffer.c **** size_t xRequiredSpace = xDataLengthBytes;
 1214              		.loc 1 617 8
 1215 0012 7B68     		ldr	r3, [r7, #4]
 1216 0014 7B63     		str	r3, [r7, #52]
 618:Middlewares/Third_Party/FreeRTOS/Source/stream_buffer.c **** 
 619:Middlewares/Third_Party/FreeRTOS/Source/stream_buffer.c **** 	configASSERT( pvTxData );
 1217              		.loc 1 619 2
 1218 0016 BB68     		ldr	r3, [r7, #8]
 1219 0018 002B     		cmp	r3, #0
 1220 001a 0AD1     		bne	.L75
 1221              	.LBB131:
 1222              	.LBB132:
 195:Middlewares/Third_Party/FreeRTOS/Source/portable/GCC/ARM_CM3/portmacro.h **** 	(
 1223              		.loc 2 195 2
 1224              		.syntax unified
 1225              	@ 195 "Middlewares/Third_Party/FreeRTOS/Source/portable/GCC/ARM_CM3/portmacro.h" 1
 1226 001c 4FF05003 			mov r3, #80												
 1227 0020 83F31188 		msr basepri, r3											
 1228 0024 BFF36F8F 		isb														
 1229 0028 BFF34F8F 		dsb														
ARM GAS  C:\Users\Lenovo\AppData\Local\Temp\ccRNOCMD.s 			page 37


 1230              	
 1231              	@ 0 "" 2
 1232              		.thumb
 1233              		.syntax unified
 1234 002c 3B62     		str	r3, [r7, #32]
 1235              		.loc 2 203 1
 1236 002e 00BF     		nop
 1237              	.L76:
 1238              	.LBE132:
 1239              	.LBE131:
 1240              		.loc 1 619 2 discriminator 1
 1241 0030 FEE7     		b	.L76
 1242              	.L75:
 620:Middlewares/Third_Party/FreeRTOS/Source/stream_buffer.c **** 	configASSERT( pxStreamBuffer );
 1243              		.loc 1 620 2
 1244 0032 3B6B     		ldr	r3, [r7, #48]
 1245 0034 002B     		cmp	r3, #0
 1246 0036 0AD1     		bne	.L77
 1247              	.LBB133:
 1248              	.LBB134:
 195:Middlewares/Third_Party/FreeRTOS/Source/portable/GCC/ARM_CM3/portmacro.h **** 	(
 1249              		.loc 2 195 2
 1250              		.syntax unified
 1251              	@ 195 "Middlewares/Third_Party/FreeRTOS/Source/portable/GCC/ARM_CM3/portmacro.h" 1
 1252 0038 4FF05003 			mov r3, #80												
 1253 003c 83F31188 		msr basepri, r3											
 1254 0040 BFF36F8F 		isb														
 1255 0044 BFF34F8F 		dsb														
 1256              	
 1257              	@ 0 "" 2
 1258              		.thumb
 1259              		.syntax unified
 1260 0048 FB61     		str	r3, [r7, #28]
 1261              		.loc 2 203 1
 1262 004a 00BF     		nop
 1263              	.L78:
 1264              	.LBE134:
 1265              	.LBE133:
 1266              		.loc 1 620 2 discriminator 2
 1267 004c FEE7     		b	.L78
 1268              	.L77:
 621:Middlewares/Third_Party/FreeRTOS/Source/stream_buffer.c **** 
 622:Middlewares/Third_Party/FreeRTOS/Source/stream_buffer.c **** 	/* This send function is used to write to both message buffers and stream
 623:Middlewares/Third_Party/FreeRTOS/Source/stream_buffer.c **** 	buffers.  If this is a message buffer then the space needed must be
 624:Middlewares/Third_Party/FreeRTOS/Source/stream_buffer.c **** 	increased by the amount of bytes needed to store the length of the
 625:Middlewares/Third_Party/FreeRTOS/Source/stream_buffer.c **** 	message. */
 626:Middlewares/Third_Party/FreeRTOS/Source/stream_buffer.c **** 	if( ( pxStreamBuffer->ucFlags & sbFLAGS_IS_MESSAGE_BUFFER ) != ( uint8_t ) 0 )
 1269              		.loc 1 626 22
 1270 004e 3B6B     		ldr	r3, [r7, #48]
 1271 0050 1B7F     		ldrb	r3, [r3, #28]	@ zero_extendqisi2
 1272              		.loc 1 626 32
 1273 0052 03F00103 		and	r3, r3, #1
 1274              		.loc 1 626 4
 1275 0056 002B     		cmp	r3, #0
 1276 0058 02D0     		beq	.L79
 627:Middlewares/Third_Party/FreeRTOS/Source/stream_buffer.c **** 	{
 628:Middlewares/Third_Party/FreeRTOS/Source/stream_buffer.c **** 		xRequiredSpace += sbBYTES_TO_STORE_MESSAGE_LENGTH;
ARM GAS  C:\Users\Lenovo\AppData\Local\Temp\ccRNOCMD.s 			page 38


 1277              		.loc 1 628 18
 1278 005a 7B6B     		ldr	r3, [r7, #52]
 1279 005c 0433     		adds	r3, r3, #4
 1280 005e 7B63     		str	r3, [r7, #52]
 1281              	.L79:
 629:Middlewares/Third_Party/FreeRTOS/Source/stream_buffer.c **** 	}
 630:Middlewares/Third_Party/FreeRTOS/Source/stream_buffer.c **** 	else
 631:Middlewares/Third_Party/FreeRTOS/Source/stream_buffer.c **** 	{
 632:Middlewares/Third_Party/FreeRTOS/Source/stream_buffer.c **** 		mtCOVERAGE_TEST_MARKER();
 633:Middlewares/Third_Party/FreeRTOS/Source/stream_buffer.c **** 	}
 634:Middlewares/Third_Party/FreeRTOS/Source/stream_buffer.c **** 
 635:Middlewares/Third_Party/FreeRTOS/Source/stream_buffer.c **** 	xSpace = xStreamBufferSpacesAvailable( pxStreamBuffer );
 1282              		.loc 1 635 11
 1283 0060 386B     		ldr	r0, [r7, #48]
 1284 0062 FFF7FEFF 		bl	xStreamBufferSpacesAvailable
 1285 0066 F862     		str	r0, [r7, #44]
 636:Middlewares/Third_Party/FreeRTOS/Source/stream_buffer.c **** 	xReturn = prvWriteMessageToBuffer( pxStreamBuffer, pvTxData, xDataLengthBytes, xSpace, xRequiredSp
 1286              		.loc 1 636 12
 1287 0068 7B6B     		ldr	r3, [r7, #52]
 1288 006a 0093     		str	r3, [sp]
 1289 006c FB6A     		ldr	r3, [r7, #44]
 1290 006e 7A68     		ldr	r2, [r7, #4]
 1291 0070 B968     		ldr	r1, [r7, #8]
 1292 0072 386B     		ldr	r0, [r7, #48]
 1293 0074 FFF7FEFF 		bl	prvWriteMessageToBuffer
 1294 0078 B862     		str	r0, [r7, #40]
 637:Middlewares/Third_Party/FreeRTOS/Source/stream_buffer.c **** 
 638:Middlewares/Third_Party/FreeRTOS/Source/stream_buffer.c **** 	if( xReturn > ( size_t ) 0 )
 1295              		.loc 1 638 4
 1296 007a BB6A     		ldr	r3, [r7, #40]
 1297 007c 002B     		cmp	r3, #0
 1298 007e 2BD0     		beq	.L80
 639:Middlewares/Third_Party/FreeRTOS/Source/stream_buffer.c **** 	{
 640:Middlewares/Third_Party/FreeRTOS/Source/stream_buffer.c **** 		/* Was a task waiting for the data? */
 641:Middlewares/Third_Party/FreeRTOS/Source/stream_buffer.c **** 		if( prvBytesInBuffer( pxStreamBuffer ) >= pxStreamBuffer->xTriggerLevelBytes )
 1299              		.loc 1 641 7
 1300 0080 386B     		ldr	r0, [r7, #48]
 1301 0082 FFF7FEFF 		bl	prvBytesInBuffer
 1302 0086 0246     		mov	r2, r0
 1303              		.loc 1 641 59
 1304 0088 3B6B     		ldr	r3, [r7, #48]
 1305 008a DB68     		ldr	r3, [r3, #12]
 1306              		.loc 1 641 5
 1307 008c 9A42     		cmp	r2, r3
 1308 008e 23D3     		bcc	.L80
 1309              	.LBB135:
 1310              	.LBB136:
 1311              	.LBB137:
 204:Middlewares/Third_Party/FreeRTOS/Source/portable/GCC/ARM_CM3/portmacro.h **** 
 205:Middlewares/Third_Party/FreeRTOS/Source/portable/GCC/ARM_CM3/portmacro.h **** /*-----------------------------------------------------------*/
 206:Middlewares/Third_Party/FreeRTOS/Source/portable/GCC/ARM_CM3/portmacro.h **** 
 207:Middlewares/Third_Party/FreeRTOS/Source/portable/GCC/ARM_CM3/portmacro.h **** portFORCE_INLINE static uint32_t ulPortRaiseBASEPRI( void )
 208:Middlewares/Third_Party/FreeRTOS/Source/portable/GCC/ARM_CM3/portmacro.h **** {
 209:Middlewares/Third_Party/FreeRTOS/Source/portable/GCC/ARM_CM3/portmacro.h **** uint32_t ulOriginalBASEPRI, ulNewBASEPRI;
 210:Middlewares/Third_Party/FreeRTOS/Source/portable/GCC/ARM_CM3/portmacro.h **** 
 211:Middlewares/Third_Party/FreeRTOS/Source/portable/GCC/ARM_CM3/portmacro.h **** 	__asm volatile
 1312              		.loc 2 211 2
ARM GAS  C:\Users\Lenovo\AppData\Local\Temp\ccRNOCMD.s 			page 39


 1313              		.syntax unified
 1314              	@ 211 "Middlewares/Third_Party/FreeRTOS/Source/portable/GCC/ARM_CM3/portmacro.h" 1
 1315 0090 EFF31182 			mrs r2, basepri											
 1316 0094 4FF05003 		mov r3, #80												
 1317 0098 83F31188 		msr basepri, r3											
 1318 009c BFF36F8F 		isb														
 1319 00a0 BFF34F8F 		dsb														
 1320              	
 1321              	@ 0 "" 2
 1322              		.thumb
 1323              		.syntax unified
 1324 00a4 BA61     		str	r2, [r7, #24]
 1325 00a6 7B61     		str	r3, [r7, #20]
 212:Middlewares/Third_Party/FreeRTOS/Source/portable/GCC/ARM_CM3/portmacro.h **** 	(
 213:Middlewares/Third_Party/FreeRTOS/Source/portable/GCC/ARM_CM3/portmacro.h **** 		"	mrs %0, basepri											\n" \
 214:Middlewares/Third_Party/FreeRTOS/Source/portable/GCC/ARM_CM3/portmacro.h **** 		"	mov %1, %2												\n" \
 215:Middlewares/Third_Party/FreeRTOS/Source/portable/GCC/ARM_CM3/portmacro.h **** 		"	msr basepri, %1											\n" \
 216:Middlewares/Third_Party/FreeRTOS/Source/portable/GCC/ARM_CM3/portmacro.h **** 		"	isb														\n" \
 217:Middlewares/Third_Party/FreeRTOS/Source/portable/GCC/ARM_CM3/portmacro.h **** 		"	dsb														\n" \
 218:Middlewares/Third_Party/FreeRTOS/Source/portable/GCC/ARM_CM3/portmacro.h **** 		:"=r" (ulOriginalBASEPRI), "=r" (ulNewBASEPRI) : "i" ( configMAX_SYSCALL_INTERRUPT_PRIORITY ) : "
 219:Middlewares/Third_Party/FreeRTOS/Source/portable/GCC/ARM_CM3/portmacro.h **** 	);
 220:Middlewares/Third_Party/FreeRTOS/Source/portable/GCC/ARM_CM3/portmacro.h **** 
 221:Middlewares/Third_Party/FreeRTOS/Source/portable/GCC/ARM_CM3/portmacro.h **** 	/* This return will not be reached but is necessary to prevent compiler
 222:Middlewares/Third_Party/FreeRTOS/Source/portable/GCC/ARM_CM3/portmacro.h **** 	warnings. */
 223:Middlewares/Third_Party/FreeRTOS/Source/portable/GCC/ARM_CM3/portmacro.h **** 	return ulOriginalBASEPRI;
 1326              		.loc 2 223 9
 1327 00a8 BB69     		ldr	r3, [r7, #24]
 1328              	.LBE137:
 1329              	.LBE136:
 642:Middlewares/Third_Party/FreeRTOS/Source/stream_buffer.c **** 		{
 643:Middlewares/Third_Party/FreeRTOS/Source/stream_buffer.c **** 			sbSEND_COMPLETE_FROM_ISR( pxStreamBuffer, pxHigherPriorityTaskWoken );
 1330              		.loc 1 643 4
 1331 00aa 7B62     		str	r3, [r7, #36]
 1332 00ac 3B6B     		ldr	r3, [r7, #48]
 1333 00ae 1B69     		ldr	r3, [r3, #16]
 1334 00b0 002B     		cmp	r3, #0
 1335 00b2 0BD0     		beq	.L82
 1336              		.loc 1 643 4 is_stmt 0 discriminator 1
 1337 00b4 3B6B     		ldr	r3, [r7, #48]
 1338 00b6 1869     		ldr	r0, [r3, #16]
 1339 00b8 3B68     		ldr	r3, [r7]
 1340 00ba 0093     		str	r3, [sp]
 1341 00bc 0023     		movs	r3, #0
 1342 00be 0022     		movs	r2, #0
 1343 00c0 0021     		movs	r1, #0
 1344 00c2 FFF7FEFF 		bl	xTaskGenericNotifyFromISR
 1345 00c6 3B6B     		ldr	r3, [r7, #48]
 1346 00c8 0022     		movs	r2, #0
 1347 00ca 1A61     		str	r2, [r3, #16]
 1348              	.L82:
 1349 00cc 7B6A     		ldr	r3, [r7, #36]
 1350 00ce 3B61     		str	r3, [r7, #16]
 1351              	.LBB138:
 1352              	.LBB139:
 224:Middlewares/Third_Party/FreeRTOS/Source/portable/GCC/ARM_CM3/portmacro.h **** }
 225:Middlewares/Third_Party/FreeRTOS/Source/portable/GCC/ARM_CM3/portmacro.h **** /*-----------------------------------------------------------*/
 226:Middlewares/Third_Party/FreeRTOS/Source/portable/GCC/ARM_CM3/portmacro.h **** 
ARM GAS  C:\Users\Lenovo\AppData\Local\Temp\ccRNOCMD.s 			page 40


 227:Middlewares/Third_Party/FreeRTOS/Source/portable/GCC/ARM_CM3/portmacro.h **** portFORCE_INLINE static void vPortSetBASEPRI( uint32_t ulNewMaskValue )
 228:Middlewares/Third_Party/FreeRTOS/Source/portable/GCC/ARM_CM3/portmacro.h **** {
 229:Middlewares/Third_Party/FreeRTOS/Source/portable/GCC/ARM_CM3/portmacro.h **** 	__asm volatile
 1353              		.loc 2 229 2 is_stmt 1 discriminator 3
 1354 00d0 3B69     		ldr	r3, [r7, #16]
 1355              		.syntax unified
 1356              	@ 229 "Middlewares/Third_Party/FreeRTOS/Source/portable/GCC/ARM_CM3/portmacro.h" 1
 1357 00d2 83F31188 			msr basepri, r3	
 1358              	@ 0 "" 2
 230:Middlewares/Third_Party/FreeRTOS/Source/portable/GCC/ARM_CM3/portmacro.h **** 	(
 231:Middlewares/Third_Party/FreeRTOS/Source/portable/GCC/ARM_CM3/portmacro.h **** 		"	msr basepri, %0	" :: "r" ( ulNewMaskValue ) : "memory"
 232:Middlewares/Third_Party/FreeRTOS/Source/portable/GCC/ARM_CM3/portmacro.h **** 	);
 233:Middlewares/Third_Party/FreeRTOS/Source/portable/GCC/ARM_CM3/portmacro.h **** }
 1359              		.loc 2 233 1 discriminator 3
 1360              		.thumb
 1361              		.syntax unified
 1362 00d6 00BF     		nop
 1363              	.L80:
 1364              	.LBE139:
 1365              	.LBE138:
 1366              	.LBE135:
 644:Middlewares/Third_Party/FreeRTOS/Source/stream_buffer.c **** 		}
 645:Middlewares/Third_Party/FreeRTOS/Source/stream_buffer.c **** 		else
 646:Middlewares/Third_Party/FreeRTOS/Source/stream_buffer.c **** 		{
 647:Middlewares/Third_Party/FreeRTOS/Source/stream_buffer.c **** 			mtCOVERAGE_TEST_MARKER();
 648:Middlewares/Third_Party/FreeRTOS/Source/stream_buffer.c **** 		}
 649:Middlewares/Third_Party/FreeRTOS/Source/stream_buffer.c **** 	}
 650:Middlewares/Third_Party/FreeRTOS/Source/stream_buffer.c **** 	else
 651:Middlewares/Third_Party/FreeRTOS/Source/stream_buffer.c **** 	{
 652:Middlewares/Third_Party/FreeRTOS/Source/stream_buffer.c **** 		mtCOVERAGE_TEST_MARKER();
 653:Middlewares/Third_Party/FreeRTOS/Source/stream_buffer.c **** 	}
 654:Middlewares/Third_Party/FreeRTOS/Source/stream_buffer.c **** 
 655:Middlewares/Third_Party/FreeRTOS/Source/stream_buffer.c **** 	traceSTREAM_BUFFER_SEND_FROM_ISR( xStreamBuffer, xReturn );
 656:Middlewares/Third_Party/FreeRTOS/Source/stream_buffer.c **** 
 657:Middlewares/Third_Party/FreeRTOS/Source/stream_buffer.c **** 	return xReturn;
 1367              		.loc 1 657 9
 1368 00d8 BB6A     		ldr	r3, [r7, #40]
 658:Middlewares/Third_Party/FreeRTOS/Source/stream_buffer.c **** }
 1369              		.loc 1 658 1
 1370 00da 1846     		mov	r0, r3
 1371 00dc 3837     		adds	r7, r7, #56
 1372              	.LCFI45:
 1373              		.cfi_def_cfa_offset 8
 1374 00de BD46     		mov	sp, r7
 1375              	.LCFI46:
 1376              		.cfi_def_cfa_register 13
 1377              		@ sp needed
 1378 00e0 80BD     		pop	{r7, pc}
 1379              		.cfi_endproc
 1380              	.LFE12:
 1382              		.section	.text.prvWriteMessageToBuffer,"ax",%progbits
 1383              		.align	1
 1384              		.syntax unified
 1385              		.thumb
 1386              		.thumb_func
 1388              	prvWriteMessageToBuffer:
 1389              	.LFB13:
ARM GAS  C:\Users\Lenovo\AppData\Local\Temp\ccRNOCMD.s 			page 41


 659:Middlewares/Third_Party/FreeRTOS/Source/stream_buffer.c **** /*-----------------------------------------------------------*/
 660:Middlewares/Third_Party/FreeRTOS/Source/stream_buffer.c **** 
 661:Middlewares/Third_Party/FreeRTOS/Source/stream_buffer.c **** static size_t prvWriteMessageToBuffer( StreamBuffer_t * const pxStreamBuffer,
 662:Middlewares/Third_Party/FreeRTOS/Source/stream_buffer.c **** 									   const void * pvTxData,
 663:Middlewares/Third_Party/FreeRTOS/Source/stream_buffer.c **** 									   size_t xDataLengthBytes,
 664:Middlewares/Third_Party/FreeRTOS/Source/stream_buffer.c **** 									   size_t xSpace,
 665:Middlewares/Third_Party/FreeRTOS/Source/stream_buffer.c **** 									   size_t xRequiredSpace )
 666:Middlewares/Third_Party/FreeRTOS/Source/stream_buffer.c **** {
 1390              		.loc 1 666 1
 1391              		.cfi_startproc
 1392              		@ args = 4, pretend = 0, frame = 24
 1393              		@ frame_needed = 1, uses_anonymous_args = 0
 1394 0000 80B5     		push	{r7, lr}
 1395              	.LCFI47:
 1396              		.cfi_def_cfa_offset 8
 1397              		.cfi_offset 7, -8
 1398              		.cfi_offset 14, -4
 1399 0002 86B0     		sub	sp, sp, #24
 1400              	.LCFI48:
 1401              		.cfi_def_cfa_offset 32
 1402 0004 00AF     		add	r7, sp, #0
 1403              	.LCFI49:
 1404              		.cfi_def_cfa_register 7
 1405 0006 F860     		str	r0, [r7, #12]
 1406 0008 B960     		str	r1, [r7, #8]
 1407 000a 7A60     		str	r2, [r7, #4]
 1408 000c 3B60     		str	r3, [r7]
 667:Middlewares/Third_Party/FreeRTOS/Source/stream_buffer.c **** 	BaseType_t xShouldWrite;
 668:Middlewares/Third_Party/FreeRTOS/Source/stream_buffer.c **** 	size_t xReturn;
 669:Middlewares/Third_Party/FreeRTOS/Source/stream_buffer.c **** 
 670:Middlewares/Third_Party/FreeRTOS/Source/stream_buffer.c **** 	if( xSpace == ( size_t ) 0 )
 1409              		.loc 1 670 4
 1410 000e 3B68     		ldr	r3, [r7]
 1411 0010 002B     		cmp	r3, #0
 1412 0012 02D1     		bne	.L85
 671:Middlewares/Third_Party/FreeRTOS/Source/stream_buffer.c **** 	{
 672:Middlewares/Third_Party/FreeRTOS/Source/stream_buffer.c **** 		/* Doesn't matter if this is a stream buffer or a message buffer, there
 673:Middlewares/Third_Party/FreeRTOS/Source/stream_buffer.c **** 		is no space to write. */
 674:Middlewares/Third_Party/FreeRTOS/Source/stream_buffer.c **** 		xShouldWrite = pdFALSE;
 1413              		.loc 1 674 16
 1414 0014 0023     		movs	r3, #0
 1415 0016 7B61     		str	r3, [r7, #20]
 1416 0018 1DE0     		b	.L86
 1417              	.L85:
 675:Middlewares/Third_Party/FreeRTOS/Source/stream_buffer.c **** 	}
 676:Middlewares/Third_Party/FreeRTOS/Source/stream_buffer.c **** 	else if( ( pxStreamBuffer->ucFlags & sbFLAGS_IS_MESSAGE_BUFFER ) == ( uint8_t ) 0 )
 1418              		.loc 1 676 27
 1419 001a FB68     		ldr	r3, [r7, #12]
 1420 001c 1B7F     		ldrb	r3, [r3, #28]	@ zero_extendqisi2
 1421              		.loc 1 676 37
 1422 001e 03F00103 		and	r3, r3, #1
 1423              		.loc 1 676 9
 1424 0022 002B     		cmp	r3, #0
 1425 0024 08D1     		bne	.L87
 677:Middlewares/Third_Party/FreeRTOS/Source/stream_buffer.c **** 	{
 678:Middlewares/Third_Party/FreeRTOS/Source/stream_buffer.c **** 		/* This is a stream buffer, as opposed to a message buffer, so writing a
 679:Middlewares/Third_Party/FreeRTOS/Source/stream_buffer.c **** 		stream of bytes rather than discrete messages.  Write as many bytes as
ARM GAS  C:\Users\Lenovo\AppData\Local\Temp\ccRNOCMD.s 			page 42


 680:Middlewares/Third_Party/FreeRTOS/Source/stream_buffer.c **** 		possible. */
 681:Middlewares/Third_Party/FreeRTOS/Source/stream_buffer.c **** 		xShouldWrite = pdTRUE;
 1426              		.loc 1 681 16
 1427 0026 0123     		movs	r3, #1
 1428 0028 7B61     		str	r3, [r7, #20]
 682:Middlewares/Third_Party/FreeRTOS/Source/stream_buffer.c **** 		xDataLengthBytes = configMIN( xDataLengthBytes, xSpace );
 1429              		.loc 1 682 22
 1430 002a 7A68     		ldr	r2, [r7, #4]
 1431 002c 3B68     		ldr	r3, [r7]
 1432 002e 9342     		cmp	r3, r2
 1433 0030 28BF     		it	cs
 1434 0032 1346     		movcs	r3, r2
 1435              		.loc 1 682 20
 1436 0034 7B60     		str	r3, [r7, #4]
 1437 0036 0EE0     		b	.L86
 1438              	.L87:
 683:Middlewares/Third_Party/FreeRTOS/Source/stream_buffer.c **** 	}
 684:Middlewares/Third_Party/FreeRTOS/Source/stream_buffer.c **** 	else if( xSpace >= xRequiredSpace )
 1439              		.loc 1 684 9
 1440 0038 3A68     		ldr	r2, [r7]
 1441 003a 3B6A     		ldr	r3, [r7, #32]
 1442 003c 9A42     		cmp	r2, r3
 1443 003e 08D3     		bcc	.L88
 685:Middlewares/Third_Party/FreeRTOS/Source/stream_buffer.c **** 	{
 686:Middlewares/Third_Party/FreeRTOS/Source/stream_buffer.c **** 		/* This is a message buffer, as opposed to a stream buffer, and there
 687:Middlewares/Third_Party/FreeRTOS/Source/stream_buffer.c **** 		is enough space to write both the message length and the message itself
 688:Middlewares/Third_Party/FreeRTOS/Source/stream_buffer.c **** 		into the buffer.  Start by writing the length of the data, the data
 689:Middlewares/Third_Party/FreeRTOS/Source/stream_buffer.c **** 		itself will be written later in this function. */
 690:Middlewares/Third_Party/FreeRTOS/Source/stream_buffer.c **** 		xShouldWrite = pdTRUE;
 1444              		.loc 1 690 16
 1445 0040 0123     		movs	r3, #1
 1446 0042 7B61     		str	r3, [r7, #20]
 691:Middlewares/Third_Party/FreeRTOS/Source/stream_buffer.c **** 		( void ) prvWriteBytesToBuffer( pxStreamBuffer, ( const uint8_t * ) &( xDataLengthBytes ), sbBYTE
 1447              		.loc 1 691 12
 1448 0044 3B1D     		adds	r3, r7, #4
 1449 0046 0422     		movs	r2, #4
 1450 0048 1946     		mov	r1, r3
 1451 004a F868     		ldr	r0, [r7, #12]
 1452 004c FFF7FEFF 		bl	prvWriteBytesToBuffer
 1453 0050 01E0     		b	.L86
 1454              	.L88:
 692:Middlewares/Third_Party/FreeRTOS/Source/stream_buffer.c **** 	}
 693:Middlewares/Third_Party/FreeRTOS/Source/stream_buffer.c **** 	else
 694:Middlewares/Third_Party/FreeRTOS/Source/stream_buffer.c **** 	{
 695:Middlewares/Third_Party/FreeRTOS/Source/stream_buffer.c **** 		/* There is space available, but not enough space. */
 696:Middlewares/Third_Party/FreeRTOS/Source/stream_buffer.c **** 		xShouldWrite = pdFALSE;
 1455              		.loc 1 696 16
 1456 0052 0023     		movs	r3, #0
 1457 0054 7B61     		str	r3, [r7, #20]
 1458              	.L86:
 697:Middlewares/Third_Party/FreeRTOS/Source/stream_buffer.c **** 	}
 698:Middlewares/Third_Party/FreeRTOS/Source/stream_buffer.c **** 
 699:Middlewares/Third_Party/FreeRTOS/Source/stream_buffer.c **** 	if( xShouldWrite != pdFALSE )
 1459              		.loc 1 699 4
 1460 0056 7B69     		ldr	r3, [r7, #20]
 1461 0058 002B     		cmp	r3, #0
 1462 005a 07D0     		beq	.L89
ARM GAS  C:\Users\Lenovo\AppData\Local\Temp\ccRNOCMD.s 			page 43


 700:Middlewares/Third_Party/FreeRTOS/Source/stream_buffer.c **** 	{
 701:Middlewares/Third_Party/FreeRTOS/Source/stream_buffer.c **** 		/* Writes the data itself. */
 702:Middlewares/Third_Party/FreeRTOS/Source/stream_buffer.c **** 		xReturn = prvWriteBytesToBuffer( pxStreamBuffer, ( const uint8_t * ) pvTxData, xDataLengthBytes )
 1463              		.loc 1 702 13
 1464 005c 7B68     		ldr	r3, [r7, #4]
 1465 005e 1A46     		mov	r2, r3
 1466 0060 B968     		ldr	r1, [r7, #8]
 1467 0062 F868     		ldr	r0, [r7, #12]
 1468 0064 FFF7FEFF 		bl	prvWriteBytesToBuffer
 1469 0068 3861     		str	r0, [r7, #16]
 1470 006a 01E0     		b	.L90
 1471              	.L89:
 703:Middlewares/Third_Party/FreeRTOS/Source/stream_buffer.c **** 	}
 704:Middlewares/Third_Party/FreeRTOS/Source/stream_buffer.c **** 	else
 705:Middlewares/Third_Party/FreeRTOS/Source/stream_buffer.c **** 	{
 706:Middlewares/Third_Party/FreeRTOS/Source/stream_buffer.c **** 		xReturn = 0;
 1472              		.loc 1 706 11
 1473 006c 0023     		movs	r3, #0
 1474 006e 3B61     		str	r3, [r7, #16]
 1475              	.L90:
 707:Middlewares/Third_Party/FreeRTOS/Source/stream_buffer.c **** 	}
 708:Middlewares/Third_Party/FreeRTOS/Source/stream_buffer.c **** 
 709:Middlewares/Third_Party/FreeRTOS/Source/stream_buffer.c **** 	return xReturn;
 1476              		.loc 1 709 9
 1477 0070 3B69     		ldr	r3, [r7, #16]
 710:Middlewares/Third_Party/FreeRTOS/Source/stream_buffer.c **** }
 1478              		.loc 1 710 1
 1479 0072 1846     		mov	r0, r3
 1480 0074 1837     		adds	r7, r7, #24
 1481              	.LCFI50:
 1482              		.cfi_def_cfa_offset 8
 1483 0076 BD46     		mov	sp, r7
 1484              	.LCFI51:
 1485              		.cfi_def_cfa_register 13
 1486              		@ sp needed
 1487 0078 80BD     		pop	{r7, pc}
 1488              		.cfi_endproc
 1489              	.LFE13:
 1491              		.section	.text.xStreamBufferReceive,"ax",%progbits
 1492              		.align	1
 1493              		.global	xStreamBufferReceive
 1494              		.syntax unified
 1495              		.thumb
 1496              		.thumb_func
 1498              	xStreamBufferReceive:
 1499              	.LFB14:
 711:Middlewares/Third_Party/FreeRTOS/Source/stream_buffer.c **** /*-----------------------------------------------------------*/
 712:Middlewares/Third_Party/FreeRTOS/Source/stream_buffer.c **** 
 713:Middlewares/Third_Party/FreeRTOS/Source/stream_buffer.c **** size_t xStreamBufferReceive( StreamBufferHandle_t xStreamBuffer,
 714:Middlewares/Third_Party/FreeRTOS/Source/stream_buffer.c **** 							 void *pvRxData,
 715:Middlewares/Third_Party/FreeRTOS/Source/stream_buffer.c **** 							 size_t xBufferLengthBytes,
 716:Middlewares/Third_Party/FreeRTOS/Source/stream_buffer.c **** 							 TickType_t xTicksToWait )
 717:Middlewares/Third_Party/FreeRTOS/Source/stream_buffer.c **** {
 1500              		.loc 1 717 1
 1501              		.cfi_startproc
 1502              		@ args = 0, pretend = 0, frame = 48
 1503              		@ frame_needed = 1, uses_anonymous_args = 0
ARM GAS  C:\Users\Lenovo\AppData\Local\Temp\ccRNOCMD.s 			page 44


 1504 0000 80B5     		push	{r7, lr}
 1505              	.LCFI52:
 1506              		.cfi_def_cfa_offset 8
 1507              		.cfi_offset 7, -8
 1508              		.cfi_offset 14, -4
 1509 0002 8EB0     		sub	sp, sp, #56
 1510              	.LCFI53:
 1511              		.cfi_def_cfa_offset 64
 1512 0004 02AF     		add	r7, sp, #8
 1513              	.LCFI54:
 1514              		.cfi_def_cfa 7, 56
 1515 0006 F860     		str	r0, [r7, #12]
 1516 0008 B960     		str	r1, [r7, #8]
 1517 000a 7A60     		str	r2, [r7, #4]
 1518 000c 3B60     		str	r3, [r7]
 718:Middlewares/Third_Party/FreeRTOS/Source/stream_buffer.c **** StreamBuffer_t * const pxStreamBuffer = xStreamBuffer;
 1519              		.loc 1 718 24
 1520 000e FB68     		ldr	r3, [r7, #12]
 1521 0010 3B62     		str	r3, [r7, #32]
 719:Middlewares/Third_Party/FreeRTOS/Source/stream_buffer.c **** size_t xReceivedLength = 0, xBytesAvailable, xBytesToStoreMessageLength;
 1522              		.loc 1 719 8
 1523 0012 0023     		movs	r3, #0
 1524 0014 FB62     		str	r3, [r7, #44]
 720:Middlewares/Third_Party/FreeRTOS/Source/stream_buffer.c **** 
 721:Middlewares/Third_Party/FreeRTOS/Source/stream_buffer.c **** 	configASSERT( pvRxData );
 1525              		.loc 1 721 2
 1526 0016 BB68     		ldr	r3, [r7, #8]
 1527 0018 002B     		cmp	r3, #0
 1528 001a 0AD1     		bne	.L93
 1529              	.LBB140:
 1530              	.LBB141:
 195:Middlewares/Third_Party/FreeRTOS/Source/portable/GCC/ARM_CM3/portmacro.h **** 	(
 1531              		.loc 2 195 2
 1532              		.syntax unified
 1533              	@ 195 "Middlewares/Third_Party/FreeRTOS/Source/portable/GCC/ARM_CM3/portmacro.h" 1
 1534 001c 4FF05003 			mov r3, #80												
 1535 0020 83F31188 		msr basepri, r3											
 1536 0024 BFF36F8F 		isb														
 1537 0028 BFF34F8F 		dsb														
 1538              	
 1539              	@ 0 "" 2
 1540              		.thumb
 1541              		.syntax unified
 1542 002c FB61     		str	r3, [r7, #28]
 203:Middlewares/Third_Party/FreeRTOS/Source/portable/GCC/ARM_CM3/portmacro.h **** 
 1543              		.loc 2 203 1
 1544 002e 00BF     		nop
 1545              	.L94:
 1546              	.LBE141:
 1547              	.LBE140:
 1548              		.loc 1 721 2 discriminator 1
 1549 0030 FEE7     		b	.L94
 1550              	.L93:
 722:Middlewares/Third_Party/FreeRTOS/Source/stream_buffer.c **** 	configASSERT( pxStreamBuffer );
 1551              		.loc 1 722 2
 1552 0032 3B6A     		ldr	r3, [r7, #32]
 1553 0034 002B     		cmp	r3, #0
ARM GAS  C:\Users\Lenovo\AppData\Local\Temp\ccRNOCMD.s 			page 45


 1554 0036 0AD1     		bne	.L95
 1555              	.LBB142:
 1556              	.LBB143:
 195:Middlewares/Third_Party/FreeRTOS/Source/portable/GCC/ARM_CM3/portmacro.h **** 	(
 1557              		.loc 2 195 2
 1558              		.syntax unified
 1559              	@ 195 "Middlewares/Third_Party/FreeRTOS/Source/portable/GCC/ARM_CM3/portmacro.h" 1
 1560 0038 4FF05003 			mov r3, #80												
 1561 003c 83F31188 		msr basepri, r3											
 1562 0040 BFF36F8F 		isb														
 1563 0044 BFF34F8F 		dsb														
 1564              	
 1565              	@ 0 "" 2
 1566              		.thumb
 1567              		.syntax unified
 1568 0048 BB61     		str	r3, [r7, #24]
 203:Middlewares/Third_Party/FreeRTOS/Source/portable/GCC/ARM_CM3/portmacro.h **** 
 1569              		.loc 2 203 1
 1570 004a 00BF     		nop
 1571              	.L96:
 1572              	.LBE143:
 1573              	.LBE142:
 1574              		.loc 1 722 2 discriminator 2
 1575 004c FEE7     		b	.L96
 1576              	.L95:
 723:Middlewares/Third_Party/FreeRTOS/Source/stream_buffer.c **** 
 724:Middlewares/Third_Party/FreeRTOS/Source/stream_buffer.c **** 	/* This receive function is used by both message buffers, which store
 725:Middlewares/Third_Party/FreeRTOS/Source/stream_buffer.c **** 	discrete messages, and stream buffers, which store a continuous stream of
 726:Middlewares/Third_Party/FreeRTOS/Source/stream_buffer.c **** 	bytes.  Discrete messages include an additional
 727:Middlewares/Third_Party/FreeRTOS/Source/stream_buffer.c **** 	sbBYTES_TO_STORE_MESSAGE_LENGTH bytes that hold the length of the
 728:Middlewares/Third_Party/FreeRTOS/Source/stream_buffer.c **** 	message. */
 729:Middlewares/Third_Party/FreeRTOS/Source/stream_buffer.c **** 	if( ( pxStreamBuffer->ucFlags & sbFLAGS_IS_MESSAGE_BUFFER ) != ( uint8_t ) 0 )
 1577              		.loc 1 729 22
 1578 004e 3B6A     		ldr	r3, [r7, #32]
 1579 0050 1B7F     		ldrb	r3, [r3, #28]	@ zero_extendqisi2
 1580              		.loc 1 729 32
 1581 0052 03F00103 		and	r3, r3, #1
 1582              		.loc 1 729 4
 1583 0056 002B     		cmp	r3, #0
 1584 0058 02D0     		beq	.L97
 730:Middlewares/Third_Party/FreeRTOS/Source/stream_buffer.c **** 	{
 731:Middlewares/Third_Party/FreeRTOS/Source/stream_buffer.c **** 		xBytesToStoreMessageLength = sbBYTES_TO_STORE_MESSAGE_LENGTH;
 1585              		.loc 1 731 30
 1586 005a 0423     		movs	r3, #4
 1587 005c 7B62     		str	r3, [r7, #36]
 1588 005e 01E0     		b	.L98
 1589              	.L97:
 732:Middlewares/Third_Party/FreeRTOS/Source/stream_buffer.c **** 	}
 733:Middlewares/Third_Party/FreeRTOS/Source/stream_buffer.c **** 	else
 734:Middlewares/Third_Party/FreeRTOS/Source/stream_buffer.c **** 	{
 735:Middlewares/Third_Party/FreeRTOS/Source/stream_buffer.c **** 		xBytesToStoreMessageLength = 0;
 1590              		.loc 1 735 30
 1591 0060 0023     		movs	r3, #0
 1592 0062 7B62     		str	r3, [r7, #36]
 1593              	.L98:
 736:Middlewares/Third_Party/FreeRTOS/Source/stream_buffer.c **** 	}
 737:Middlewares/Third_Party/FreeRTOS/Source/stream_buffer.c **** 
ARM GAS  C:\Users\Lenovo\AppData\Local\Temp\ccRNOCMD.s 			page 46


 738:Middlewares/Third_Party/FreeRTOS/Source/stream_buffer.c **** 	if( xTicksToWait != ( TickType_t ) 0 )
 1594              		.loc 1 738 4
 1595 0064 3B68     		ldr	r3, [r7]
 1596 0066 002B     		cmp	r3, #0
 1597 0068 34D0     		beq	.L99
 739:Middlewares/Third_Party/FreeRTOS/Source/stream_buffer.c **** 	{
 740:Middlewares/Third_Party/FreeRTOS/Source/stream_buffer.c **** 		/* Checking if there is data and clearing the notification state must be
 741:Middlewares/Third_Party/FreeRTOS/Source/stream_buffer.c **** 		performed atomically. */
 742:Middlewares/Third_Party/FreeRTOS/Source/stream_buffer.c **** 		taskENTER_CRITICAL();
 1598              		.loc 1 742 3
 1599 006a FFF7FEFF 		bl	vPortEnterCritical
 743:Middlewares/Third_Party/FreeRTOS/Source/stream_buffer.c **** 		{
 744:Middlewares/Third_Party/FreeRTOS/Source/stream_buffer.c **** 			xBytesAvailable = prvBytesInBuffer( pxStreamBuffer );
 1600              		.loc 1 744 22
 1601 006e 386A     		ldr	r0, [r7, #32]
 1602 0070 FFF7FEFF 		bl	prvBytesInBuffer
 1603 0074 B862     		str	r0, [r7, #40]
 745:Middlewares/Third_Party/FreeRTOS/Source/stream_buffer.c **** 
 746:Middlewares/Third_Party/FreeRTOS/Source/stream_buffer.c **** 			/* If this function was invoked by a message buffer read then
 747:Middlewares/Third_Party/FreeRTOS/Source/stream_buffer.c **** 			xBytesToStoreMessageLength holds the number of bytes used to hold
 748:Middlewares/Third_Party/FreeRTOS/Source/stream_buffer.c **** 			the length of the next discrete message.  If this function was
 749:Middlewares/Third_Party/FreeRTOS/Source/stream_buffer.c **** 			invoked by a stream buffer read then xBytesToStoreMessageLength will
 750:Middlewares/Third_Party/FreeRTOS/Source/stream_buffer.c **** 			be 0. */
 751:Middlewares/Third_Party/FreeRTOS/Source/stream_buffer.c **** 			if( xBytesAvailable <= xBytesToStoreMessageLength )
 1604              		.loc 1 751 6
 1605 0076 BA6A     		ldr	r2, [r7, #40]
 1606 0078 7B6A     		ldr	r3, [r7, #36]
 1607 007a 9A42     		cmp	r2, r3
 1608 007c 16D8     		bhi	.L100
 752:Middlewares/Third_Party/FreeRTOS/Source/stream_buffer.c **** 			{
 753:Middlewares/Third_Party/FreeRTOS/Source/stream_buffer.c **** 				/* Clear notification state as going to wait for data. */
 754:Middlewares/Third_Party/FreeRTOS/Source/stream_buffer.c **** 				( void ) xTaskNotifyStateClear( NULL );
 1609              		.loc 1 754 14
 1610 007e 0020     		movs	r0, #0
 1611 0080 FFF7FEFF 		bl	xTaskNotifyStateClear
 755:Middlewares/Third_Party/FreeRTOS/Source/stream_buffer.c **** 
 756:Middlewares/Third_Party/FreeRTOS/Source/stream_buffer.c **** 				/* Should only be one reader. */
 757:Middlewares/Third_Party/FreeRTOS/Source/stream_buffer.c **** 				configASSERT( pxStreamBuffer->xTaskWaitingToReceive == NULL );
 1612              		.loc 1 757 5
 1613 0084 3B6A     		ldr	r3, [r7, #32]
 1614 0086 1B69     		ldr	r3, [r3, #16]
 1615 0088 002B     		cmp	r3, #0
 1616 008a 0AD0     		beq	.L101
 1617              	.LBB144:
 1618              	.LBB145:
 195:Middlewares/Third_Party/FreeRTOS/Source/portable/GCC/ARM_CM3/portmacro.h **** 	(
 1619              		.loc 2 195 2
 1620              		.syntax unified
 1621              	@ 195 "Middlewares/Third_Party/FreeRTOS/Source/portable/GCC/ARM_CM3/portmacro.h" 1
 1622 008c 4FF05003 			mov r3, #80												
 1623 0090 83F31188 		msr basepri, r3											
 1624 0094 BFF36F8F 		isb														
 1625 0098 BFF34F8F 		dsb														
 1626              	
 1627              	@ 0 "" 2
 1628              		.thumb
 1629              		.syntax unified
ARM GAS  C:\Users\Lenovo\AppData\Local\Temp\ccRNOCMD.s 			page 47


 1630 009c 7B61     		str	r3, [r7, #20]
 203:Middlewares/Third_Party/FreeRTOS/Source/portable/GCC/ARM_CM3/portmacro.h **** 
 1631              		.loc 2 203 1
 1632 009e 00BF     		nop
 1633              	.L102:
 1634              	.LBE145:
 1635              	.LBE144:
 1636              		.loc 1 757 5 discriminator 3
 1637 00a0 FEE7     		b	.L102
 1638              	.L101:
 758:Middlewares/Third_Party/FreeRTOS/Source/stream_buffer.c **** 				pxStreamBuffer->xTaskWaitingToReceive = xTaskGetCurrentTaskHandle();
 1639              		.loc 1 758 45
 1640 00a2 FFF7FEFF 		bl	xTaskGetCurrentTaskHandle
 1641 00a6 0246     		mov	r2, r0
 1642              		.loc 1 758 43
 1643 00a8 3B6A     		ldr	r3, [r7, #32]
 1644 00aa 1A61     		str	r2, [r3, #16]
 1645              	.L100:
 759:Middlewares/Third_Party/FreeRTOS/Source/stream_buffer.c **** 			}
 760:Middlewares/Third_Party/FreeRTOS/Source/stream_buffer.c **** 			else
 761:Middlewares/Third_Party/FreeRTOS/Source/stream_buffer.c **** 			{
 762:Middlewares/Third_Party/FreeRTOS/Source/stream_buffer.c **** 				mtCOVERAGE_TEST_MARKER();
 763:Middlewares/Third_Party/FreeRTOS/Source/stream_buffer.c **** 			}
 764:Middlewares/Third_Party/FreeRTOS/Source/stream_buffer.c **** 		}
 765:Middlewares/Third_Party/FreeRTOS/Source/stream_buffer.c **** 		taskEXIT_CRITICAL();
 1646              		.loc 1 765 3
 1647 00ac FFF7FEFF 		bl	vPortExitCritical
 766:Middlewares/Third_Party/FreeRTOS/Source/stream_buffer.c **** 
 767:Middlewares/Third_Party/FreeRTOS/Source/stream_buffer.c **** 		if( xBytesAvailable <= xBytesToStoreMessageLength )
 1648              		.loc 1 767 5
 1649 00b0 BA6A     		ldr	r2, [r7, #40]
 1650 00b2 7B6A     		ldr	r3, [r7, #36]
 1651 00b4 9A42     		cmp	r2, r3
 1652 00b6 11D8     		bhi	.L103
 768:Middlewares/Third_Party/FreeRTOS/Source/stream_buffer.c **** 		{
 769:Middlewares/Third_Party/FreeRTOS/Source/stream_buffer.c **** 			/* Wait for data to be available. */
 770:Middlewares/Third_Party/FreeRTOS/Source/stream_buffer.c **** 			traceBLOCKING_ON_STREAM_BUFFER_RECEIVE( xStreamBuffer );
 771:Middlewares/Third_Party/FreeRTOS/Source/stream_buffer.c **** 			( void ) xTaskNotifyWait( ( uint32_t ) 0, ( uint32_t ) 0, NULL, xTicksToWait );
 1653              		.loc 1 771 13
 1654 00b8 3B68     		ldr	r3, [r7]
 1655 00ba 0022     		movs	r2, #0
 1656 00bc 0021     		movs	r1, #0
 1657 00be 0020     		movs	r0, #0
 1658 00c0 FFF7FEFF 		bl	xTaskNotifyWait
 772:Middlewares/Third_Party/FreeRTOS/Source/stream_buffer.c **** 			pxStreamBuffer->xTaskWaitingToReceive = NULL;
 1659              		.loc 1 772 42
 1660 00c4 3B6A     		ldr	r3, [r7, #32]
 1661 00c6 0022     		movs	r2, #0
 1662 00c8 1A61     		str	r2, [r3, #16]
 773:Middlewares/Third_Party/FreeRTOS/Source/stream_buffer.c **** 
 774:Middlewares/Third_Party/FreeRTOS/Source/stream_buffer.c **** 			/* Recheck the data available after blocking. */
 775:Middlewares/Third_Party/FreeRTOS/Source/stream_buffer.c **** 			xBytesAvailable = prvBytesInBuffer( pxStreamBuffer );
 1663              		.loc 1 775 22
 1664 00ca 386A     		ldr	r0, [r7, #32]
 1665 00cc FFF7FEFF 		bl	prvBytesInBuffer
 1666 00d0 B862     		str	r0, [r7, #40]
 1667 00d2 03E0     		b	.L103
ARM GAS  C:\Users\Lenovo\AppData\Local\Temp\ccRNOCMD.s 			page 48


 1668              	.L99:
 776:Middlewares/Third_Party/FreeRTOS/Source/stream_buffer.c **** 		}
 777:Middlewares/Third_Party/FreeRTOS/Source/stream_buffer.c **** 		else
 778:Middlewares/Third_Party/FreeRTOS/Source/stream_buffer.c **** 		{
 779:Middlewares/Third_Party/FreeRTOS/Source/stream_buffer.c **** 			mtCOVERAGE_TEST_MARKER();
 780:Middlewares/Third_Party/FreeRTOS/Source/stream_buffer.c **** 		}
 781:Middlewares/Third_Party/FreeRTOS/Source/stream_buffer.c **** 	}
 782:Middlewares/Third_Party/FreeRTOS/Source/stream_buffer.c **** 	else
 783:Middlewares/Third_Party/FreeRTOS/Source/stream_buffer.c **** 	{
 784:Middlewares/Third_Party/FreeRTOS/Source/stream_buffer.c **** 		xBytesAvailable = prvBytesInBuffer( pxStreamBuffer );
 1669              		.loc 1 784 21
 1670 00d4 386A     		ldr	r0, [r7, #32]
 1671 00d6 FFF7FEFF 		bl	prvBytesInBuffer
 1672 00da B862     		str	r0, [r7, #40]
 1673              	.L103:
 785:Middlewares/Third_Party/FreeRTOS/Source/stream_buffer.c **** 	}
 786:Middlewares/Third_Party/FreeRTOS/Source/stream_buffer.c **** 
 787:Middlewares/Third_Party/FreeRTOS/Source/stream_buffer.c **** 	/* Whether receiving a discrete message (where xBytesToStoreMessageLength
 788:Middlewares/Third_Party/FreeRTOS/Source/stream_buffer.c **** 	holds the number of bytes used to store the message length) or a stream of
 789:Middlewares/Third_Party/FreeRTOS/Source/stream_buffer.c **** 	bytes (where xBytesToStoreMessageLength is zero), the number of bytes
 790:Middlewares/Third_Party/FreeRTOS/Source/stream_buffer.c **** 	available must be greater than xBytesToStoreMessageLength to be able to
 791:Middlewares/Third_Party/FreeRTOS/Source/stream_buffer.c **** 	read bytes from the buffer. */
 792:Middlewares/Third_Party/FreeRTOS/Source/stream_buffer.c **** 	if( xBytesAvailable > xBytesToStoreMessageLength )
 1674              		.loc 1 792 4
 1675 00dc BA6A     		ldr	r2, [r7, #40]
 1676 00de 7B6A     		ldr	r3, [r7, #36]
 1677 00e0 9A42     		cmp	r2, r3
 1678 00e2 1DD9     		bls	.L104
 793:Middlewares/Third_Party/FreeRTOS/Source/stream_buffer.c **** 	{
 794:Middlewares/Third_Party/FreeRTOS/Source/stream_buffer.c **** 		xReceivedLength = prvReadMessageFromBuffer( pxStreamBuffer, pvRxData, xBufferLengthBytes, xBytesA
 1679              		.loc 1 794 21
 1680 00e4 7B6A     		ldr	r3, [r7, #36]
 1681 00e6 0093     		str	r3, [sp]
 1682 00e8 BB6A     		ldr	r3, [r7, #40]
 1683 00ea 7A68     		ldr	r2, [r7, #4]
 1684 00ec B968     		ldr	r1, [r7, #8]
 1685 00ee 386A     		ldr	r0, [r7, #32]
 1686 00f0 FFF7FEFF 		bl	prvReadMessageFromBuffer
 1687 00f4 F862     		str	r0, [r7, #44]
 795:Middlewares/Third_Party/FreeRTOS/Source/stream_buffer.c **** 
 796:Middlewares/Third_Party/FreeRTOS/Source/stream_buffer.c **** 		/* Was a task waiting for space in the buffer? */
 797:Middlewares/Third_Party/FreeRTOS/Source/stream_buffer.c **** 		if( xReceivedLength != ( size_t ) 0 )
 1688              		.loc 1 797 5
 1689 00f6 FB6A     		ldr	r3, [r7, #44]
 1690 00f8 002B     		cmp	r3, #0
 1691 00fa 11D0     		beq	.L104
 798:Middlewares/Third_Party/FreeRTOS/Source/stream_buffer.c **** 		{
 799:Middlewares/Third_Party/FreeRTOS/Source/stream_buffer.c **** 			traceSTREAM_BUFFER_RECEIVE( xStreamBuffer, xReceivedLength );
 800:Middlewares/Third_Party/FreeRTOS/Source/stream_buffer.c **** 			sbRECEIVE_COMPLETED( pxStreamBuffer );
 1692              		.loc 1 800 4
 1693 00fc FFF7FEFF 		bl	vTaskSuspendAll
 1694 0100 3B6A     		ldr	r3, [r7, #32]
 1695 0102 5B69     		ldr	r3, [r3, #20]
 1696 0104 002B     		cmp	r3, #0
 1697 0106 09D0     		beq	.L105
 1698              		.loc 1 800 4 is_stmt 0 discriminator 1
 1699 0108 3B6A     		ldr	r3, [r7, #32]
ARM GAS  C:\Users\Lenovo\AppData\Local\Temp\ccRNOCMD.s 			page 49


 1700 010a 5869     		ldr	r0, [r3, #20]
 1701 010c 0023     		movs	r3, #0
 1702 010e 0022     		movs	r2, #0
 1703 0110 0021     		movs	r1, #0
 1704 0112 FFF7FEFF 		bl	xTaskGenericNotify
 1705 0116 3B6A     		ldr	r3, [r7, #32]
 1706 0118 0022     		movs	r2, #0
 1707 011a 5A61     		str	r2, [r3, #20]
 1708              	.L105:
 1709              		.loc 1 800 4 discriminator 3
 1710 011c FFF7FEFF 		bl	xTaskResumeAll
 1711              	.L104:
 801:Middlewares/Third_Party/FreeRTOS/Source/stream_buffer.c **** 		}
 802:Middlewares/Third_Party/FreeRTOS/Source/stream_buffer.c **** 		else
 803:Middlewares/Third_Party/FreeRTOS/Source/stream_buffer.c **** 		{
 804:Middlewares/Third_Party/FreeRTOS/Source/stream_buffer.c **** 			mtCOVERAGE_TEST_MARKER();
 805:Middlewares/Third_Party/FreeRTOS/Source/stream_buffer.c **** 		}
 806:Middlewares/Third_Party/FreeRTOS/Source/stream_buffer.c **** 	}
 807:Middlewares/Third_Party/FreeRTOS/Source/stream_buffer.c **** 	else
 808:Middlewares/Third_Party/FreeRTOS/Source/stream_buffer.c **** 	{
 809:Middlewares/Third_Party/FreeRTOS/Source/stream_buffer.c **** 		traceSTREAM_BUFFER_RECEIVE_FAILED( xStreamBuffer );
 810:Middlewares/Third_Party/FreeRTOS/Source/stream_buffer.c **** 		mtCOVERAGE_TEST_MARKER();
 811:Middlewares/Third_Party/FreeRTOS/Source/stream_buffer.c **** 	}
 812:Middlewares/Third_Party/FreeRTOS/Source/stream_buffer.c **** 
 813:Middlewares/Third_Party/FreeRTOS/Source/stream_buffer.c **** 	return xReceivedLength;
 1712              		.loc 1 813 9 is_stmt 1
 1713 0120 FB6A     		ldr	r3, [r7, #44]
 814:Middlewares/Third_Party/FreeRTOS/Source/stream_buffer.c **** }
 1714              		.loc 1 814 1
 1715 0122 1846     		mov	r0, r3
 1716 0124 3037     		adds	r7, r7, #48
 1717              	.LCFI55:
 1718              		.cfi_def_cfa_offset 8
 1719 0126 BD46     		mov	sp, r7
 1720              	.LCFI56:
 1721              		.cfi_def_cfa_register 13
 1722              		@ sp needed
 1723 0128 80BD     		pop	{r7, pc}
 1724              		.cfi_endproc
 1725              	.LFE14:
 1727              		.section	.text.xStreamBufferNextMessageLengthBytes,"ax",%progbits
 1728              		.align	1
 1729              		.global	xStreamBufferNextMessageLengthBytes
 1730              		.syntax unified
 1731              		.thumb
 1732              		.thumb_func
 1734              	xStreamBufferNextMessageLengthBytes:
 1735              	.LFB15:
 815:Middlewares/Third_Party/FreeRTOS/Source/stream_buffer.c **** /*-----------------------------------------------------------*/
 816:Middlewares/Third_Party/FreeRTOS/Source/stream_buffer.c **** 
 817:Middlewares/Third_Party/FreeRTOS/Source/stream_buffer.c **** size_t xStreamBufferNextMessageLengthBytes( StreamBufferHandle_t xStreamBuffer )
 818:Middlewares/Third_Party/FreeRTOS/Source/stream_buffer.c **** {
 1736              		.loc 1 818 1
 1737              		.cfi_startproc
 1738              		@ args = 0, pretend = 0, frame = 40
 1739              		@ frame_needed = 1, uses_anonymous_args = 0
 1740 0000 80B5     		push	{r7, lr}
ARM GAS  C:\Users\Lenovo\AppData\Local\Temp\ccRNOCMD.s 			page 50


 1741              	.LCFI57:
 1742              		.cfi_def_cfa_offset 8
 1743              		.cfi_offset 7, -8
 1744              		.cfi_offset 14, -4
 1745 0002 8AB0     		sub	sp, sp, #40
 1746              	.LCFI58:
 1747              		.cfi_def_cfa_offset 48
 1748 0004 00AF     		add	r7, sp, #0
 1749              	.LCFI59:
 1750              		.cfi_def_cfa_register 7
 1751 0006 7860     		str	r0, [r7, #4]
 819:Middlewares/Third_Party/FreeRTOS/Source/stream_buffer.c **** StreamBuffer_t * const pxStreamBuffer = xStreamBuffer;
 1752              		.loc 1 819 24
 1753 0008 7B68     		ldr	r3, [r7, #4]
 1754 000a 3B62     		str	r3, [r7, #32]
 820:Middlewares/Third_Party/FreeRTOS/Source/stream_buffer.c **** size_t xReturn, xBytesAvailable, xOriginalTail;
 821:Middlewares/Third_Party/FreeRTOS/Source/stream_buffer.c **** configMESSAGE_BUFFER_LENGTH_TYPE xTempReturn;
 822:Middlewares/Third_Party/FreeRTOS/Source/stream_buffer.c **** 
 823:Middlewares/Third_Party/FreeRTOS/Source/stream_buffer.c **** 	configASSERT( pxStreamBuffer );
 1755              		.loc 1 823 2
 1756 000c 3B6A     		ldr	r3, [r7, #32]
 1757 000e 002B     		cmp	r3, #0
 1758 0010 0AD1     		bne	.L108
 1759              	.LBB146:
 1760              	.LBB147:
 195:Middlewares/Third_Party/FreeRTOS/Source/portable/GCC/ARM_CM3/portmacro.h **** 	(
 1761              		.loc 2 195 2
 1762              		.syntax unified
 1763              	@ 195 "Middlewares/Third_Party/FreeRTOS/Source/portable/GCC/ARM_CM3/portmacro.h" 1
 1764 0012 4FF05003 			mov r3, #80												
 1765 0016 83F31188 		msr basepri, r3											
 1766 001a BFF36F8F 		isb														
 1767 001e BFF34F8F 		dsb														
 1768              	
 1769              	@ 0 "" 2
 1770              		.thumb
 1771              		.syntax unified
 1772 0022 7B61     		str	r3, [r7, #20]
 203:Middlewares/Third_Party/FreeRTOS/Source/portable/GCC/ARM_CM3/portmacro.h **** 
 1773              		.loc 2 203 1
 1774 0024 00BF     		nop
 1775              	.L109:
 1776              	.LBE147:
 1777              	.LBE146:
 1778              		.loc 1 823 2 discriminator 1
 1779 0026 FEE7     		b	.L109
 1780              	.L108:
 824:Middlewares/Third_Party/FreeRTOS/Source/stream_buffer.c **** 
 825:Middlewares/Third_Party/FreeRTOS/Source/stream_buffer.c **** 	/* Ensure the stream buffer is being used as a message buffer. */
 826:Middlewares/Third_Party/FreeRTOS/Source/stream_buffer.c **** 	if( ( pxStreamBuffer->ucFlags & sbFLAGS_IS_MESSAGE_BUFFER ) != ( uint8_t ) 0 )
 1781              		.loc 1 826 22
 1782 0028 3B6A     		ldr	r3, [r7, #32]
 1783 002a 1B7F     		ldrb	r3, [r3, #28]	@ zero_extendqisi2
 1784              		.loc 1 826 32
 1785 002c 03F00103 		and	r3, r3, #1
 1786              		.loc 1 826 4
 1787 0030 002B     		cmp	r3, #0
ARM GAS  C:\Users\Lenovo\AppData\Local\Temp\ccRNOCMD.s 			page 51


 1788 0032 27D0     		beq	.L110
 827:Middlewares/Third_Party/FreeRTOS/Source/stream_buffer.c **** 	{
 828:Middlewares/Third_Party/FreeRTOS/Source/stream_buffer.c **** 		xBytesAvailable = prvBytesInBuffer( pxStreamBuffer );
 1789              		.loc 1 828 21
 1790 0034 386A     		ldr	r0, [r7, #32]
 1791 0036 FFF7FEFF 		bl	prvBytesInBuffer
 1792 003a F861     		str	r0, [r7, #28]
 829:Middlewares/Third_Party/FreeRTOS/Source/stream_buffer.c **** 		if( xBytesAvailable > sbBYTES_TO_STORE_MESSAGE_LENGTH )
 1793              		.loc 1 829 5
 1794 003c FB69     		ldr	r3, [r7, #28]
 1795 003e 042B     		cmp	r3, #4
 1796 0040 0FD9     		bls	.L111
 830:Middlewares/Third_Party/FreeRTOS/Source/stream_buffer.c **** 		{
 831:Middlewares/Third_Party/FreeRTOS/Source/stream_buffer.c **** 			/* The number of bytes available is greater than the number of bytes
 832:Middlewares/Third_Party/FreeRTOS/Source/stream_buffer.c **** 			required to hold the length of the next message, so another message
 833:Middlewares/Third_Party/FreeRTOS/Source/stream_buffer.c **** 			is available.  Return its length without removing the length bytes
 834:Middlewares/Third_Party/FreeRTOS/Source/stream_buffer.c **** 			from the buffer.  A copy of the tail is stored so the buffer can be
 835:Middlewares/Third_Party/FreeRTOS/Source/stream_buffer.c **** 			returned to its prior state as the message is not actually being
 836:Middlewares/Third_Party/FreeRTOS/Source/stream_buffer.c **** 			removed from the buffer. */
 837:Middlewares/Third_Party/FreeRTOS/Source/stream_buffer.c **** 			xOriginalTail = pxStreamBuffer->xTail;
 1797              		.loc 1 837 18
 1798 0042 3B6A     		ldr	r3, [r7, #32]
 1799 0044 1B68     		ldr	r3, [r3]
 1800 0046 BB61     		str	r3, [r7, #24]
 838:Middlewares/Third_Party/FreeRTOS/Source/stream_buffer.c **** 			( void ) prvReadBytesFromBuffer( pxStreamBuffer, ( uint8_t * ) &xTempReturn, sbBYTES_TO_STORE_ME
 1801              		.loc 1 838 13
 1802 0048 07F10C01 		add	r1, r7, #12
 1803 004c FB69     		ldr	r3, [r7, #28]
 1804 004e 0422     		movs	r2, #4
 1805 0050 386A     		ldr	r0, [r7, #32]
 1806 0052 FFF7FEFF 		bl	prvReadBytesFromBuffer
 839:Middlewares/Third_Party/FreeRTOS/Source/stream_buffer.c **** 			xReturn = ( size_t ) xTempReturn;
 1807              		.loc 1 839 12
 1808 0056 FB68     		ldr	r3, [r7, #12]
 1809 0058 7B62     		str	r3, [r7, #36]
 840:Middlewares/Third_Party/FreeRTOS/Source/stream_buffer.c **** 			pxStreamBuffer->xTail = xOriginalTail;
 1810              		.loc 1 840 26
 1811 005a 3B6A     		ldr	r3, [r7, #32]
 1812 005c BA69     		ldr	r2, [r7, #24]
 1813 005e 1A60     		str	r2, [r3]
 1814 0060 12E0     		b	.L112
 1815              	.L111:
 841:Middlewares/Third_Party/FreeRTOS/Source/stream_buffer.c **** 		}
 842:Middlewares/Third_Party/FreeRTOS/Source/stream_buffer.c **** 		else
 843:Middlewares/Third_Party/FreeRTOS/Source/stream_buffer.c **** 		{
 844:Middlewares/Third_Party/FreeRTOS/Source/stream_buffer.c **** 			/* The minimum amount of bytes in a message buffer is
 845:Middlewares/Third_Party/FreeRTOS/Source/stream_buffer.c **** 			( sbBYTES_TO_STORE_MESSAGE_LENGTH + 1 ), so if xBytesAvailable is
 846:Middlewares/Third_Party/FreeRTOS/Source/stream_buffer.c **** 			less than sbBYTES_TO_STORE_MESSAGE_LENGTH the only other valid
 847:Middlewares/Third_Party/FreeRTOS/Source/stream_buffer.c **** 			value is 0. */
 848:Middlewares/Third_Party/FreeRTOS/Source/stream_buffer.c **** 			configASSERT( xBytesAvailable == 0 );
 1816              		.loc 1 848 4
 1817 0062 FB69     		ldr	r3, [r7, #28]
 1818 0064 002B     		cmp	r3, #0
 1819 0066 0AD0     		beq	.L113
 1820              	.LBB148:
 1821              	.LBB149:
 195:Middlewares/Third_Party/FreeRTOS/Source/portable/GCC/ARM_CM3/portmacro.h **** 	(
ARM GAS  C:\Users\Lenovo\AppData\Local\Temp\ccRNOCMD.s 			page 52


 1822              		.loc 2 195 2
 1823              		.syntax unified
 1824              	@ 195 "Middlewares/Third_Party/FreeRTOS/Source/portable/GCC/ARM_CM3/portmacro.h" 1
 1825 0068 4FF05003 			mov r3, #80												
 1826 006c 83F31188 		msr basepri, r3											
 1827 0070 BFF36F8F 		isb														
 1828 0074 BFF34F8F 		dsb														
 1829              	
 1830              	@ 0 "" 2
 1831              		.thumb
 1832              		.syntax unified
 1833 0078 3B61     		str	r3, [r7, #16]
 203:Middlewares/Third_Party/FreeRTOS/Source/portable/GCC/ARM_CM3/portmacro.h **** 
 1834              		.loc 2 203 1
 1835 007a 00BF     		nop
 1836              	.L114:
 1837              	.LBE149:
 1838              	.LBE148:
 1839              		.loc 1 848 4 discriminator 2
 1840 007c FEE7     		b	.L114
 1841              	.L113:
 849:Middlewares/Third_Party/FreeRTOS/Source/stream_buffer.c **** 			xReturn = 0;
 1842              		.loc 1 849 12
 1843 007e 0023     		movs	r3, #0
 1844 0080 7B62     		str	r3, [r7, #36]
 1845 0082 01E0     		b	.L112
 1846              	.L110:
 850:Middlewares/Third_Party/FreeRTOS/Source/stream_buffer.c **** 		}
 851:Middlewares/Third_Party/FreeRTOS/Source/stream_buffer.c **** 	}
 852:Middlewares/Third_Party/FreeRTOS/Source/stream_buffer.c **** 	else
 853:Middlewares/Third_Party/FreeRTOS/Source/stream_buffer.c **** 	{
 854:Middlewares/Third_Party/FreeRTOS/Source/stream_buffer.c **** 		xReturn = 0;
 1847              		.loc 1 854 11
 1848 0084 0023     		movs	r3, #0
 1849 0086 7B62     		str	r3, [r7, #36]
 1850              	.L112:
 855:Middlewares/Third_Party/FreeRTOS/Source/stream_buffer.c **** 	}
 856:Middlewares/Third_Party/FreeRTOS/Source/stream_buffer.c **** 
 857:Middlewares/Third_Party/FreeRTOS/Source/stream_buffer.c **** 	return xReturn;
 1851              		.loc 1 857 9
 1852 0088 7B6A     		ldr	r3, [r7, #36]
 858:Middlewares/Third_Party/FreeRTOS/Source/stream_buffer.c **** }
 1853              		.loc 1 858 1
 1854 008a 1846     		mov	r0, r3
 1855 008c 2837     		adds	r7, r7, #40
 1856              	.LCFI60:
 1857              		.cfi_def_cfa_offset 8
 1858 008e BD46     		mov	sp, r7
 1859              	.LCFI61:
 1860              		.cfi_def_cfa_register 13
 1861              		@ sp needed
 1862 0090 80BD     		pop	{r7, pc}
 1863              		.cfi_endproc
 1864              	.LFE15:
 1866              		.section	.text.xStreamBufferReceiveFromISR,"ax",%progbits
 1867              		.align	1
 1868              		.global	xStreamBufferReceiveFromISR
ARM GAS  C:\Users\Lenovo\AppData\Local\Temp\ccRNOCMD.s 			page 53


 1869              		.syntax unified
 1870              		.thumb
 1871              		.thumb_func
 1873              	xStreamBufferReceiveFromISR:
 1874              	.LFB16:
 859:Middlewares/Third_Party/FreeRTOS/Source/stream_buffer.c **** /*-----------------------------------------------------------*/
 860:Middlewares/Third_Party/FreeRTOS/Source/stream_buffer.c **** 
 861:Middlewares/Third_Party/FreeRTOS/Source/stream_buffer.c **** size_t xStreamBufferReceiveFromISR( StreamBufferHandle_t xStreamBuffer,
 862:Middlewares/Third_Party/FreeRTOS/Source/stream_buffer.c **** 									void *pvRxData,
 863:Middlewares/Third_Party/FreeRTOS/Source/stream_buffer.c **** 									size_t xBufferLengthBytes,
 864:Middlewares/Third_Party/FreeRTOS/Source/stream_buffer.c **** 									BaseType_t * const pxHigherPriorityTaskWoken )
 865:Middlewares/Third_Party/FreeRTOS/Source/stream_buffer.c **** {
 1875              		.loc 1 865 1
 1876              		.cfi_startproc
 1877              		@ args = 0, pretend = 0, frame = 56
 1878              		@ frame_needed = 1, uses_anonymous_args = 0
 1879 0000 80B5     		push	{r7, lr}
 1880              	.LCFI62:
 1881              		.cfi_def_cfa_offset 8
 1882              		.cfi_offset 7, -8
 1883              		.cfi_offset 14, -4
 1884 0002 90B0     		sub	sp, sp, #64
 1885              	.LCFI63:
 1886              		.cfi_def_cfa_offset 72
 1887 0004 02AF     		add	r7, sp, #8
 1888              	.LCFI64:
 1889              		.cfi_def_cfa 7, 64
 1890 0006 F860     		str	r0, [r7, #12]
 1891 0008 B960     		str	r1, [r7, #8]
 1892 000a 7A60     		str	r2, [r7, #4]
 1893 000c 3B60     		str	r3, [r7]
 866:Middlewares/Third_Party/FreeRTOS/Source/stream_buffer.c **** StreamBuffer_t * const pxStreamBuffer = xStreamBuffer;
 1894              		.loc 1 866 24
 1895 000e FB68     		ldr	r3, [r7, #12]
 1896 0010 FB62     		str	r3, [r7, #44]
 867:Middlewares/Third_Party/FreeRTOS/Source/stream_buffer.c **** size_t xReceivedLength = 0, xBytesAvailable, xBytesToStoreMessageLength;
 1897              		.loc 1 867 8
 1898 0012 0023     		movs	r3, #0
 1899 0014 7B63     		str	r3, [r7, #52]
 868:Middlewares/Third_Party/FreeRTOS/Source/stream_buffer.c **** 
 869:Middlewares/Third_Party/FreeRTOS/Source/stream_buffer.c **** 	configASSERT( pvRxData );
 1900              		.loc 1 869 2
 1901 0016 BB68     		ldr	r3, [r7, #8]
 1902 0018 002B     		cmp	r3, #0
 1903 001a 0AD1     		bne	.L117
 1904              	.LBB150:
 1905              	.LBB151:
 195:Middlewares/Third_Party/FreeRTOS/Source/portable/GCC/ARM_CM3/portmacro.h **** 	(
 1906              		.loc 2 195 2
 1907              		.syntax unified
 1908              	@ 195 "Middlewares/Third_Party/FreeRTOS/Source/portable/GCC/ARM_CM3/portmacro.h" 1
 1909 001c 4FF05003 			mov r3, #80												
 1910 0020 83F31188 		msr basepri, r3											
 1911 0024 BFF36F8F 		isb														
 1912 0028 BFF34F8F 		dsb														
 1913              	
 1914              	@ 0 "" 2
ARM GAS  C:\Users\Lenovo\AppData\Local\Temp\ccRNOCMD.s 			page 54


 1915              		.thumb
 1916              		.syntax unified
 1917 002c 3B62     		str	r3, [r7, #32]
 203:Middlewares/Third_Party/FreeRTOS/Source/portable/GCC/ARM_CM3/portmacro.h **** 
 1918              		.loc 2 203 1
 1919 002e 00BF     		nop
 1920              	.L118:
 1921              	.LBE151:
 1922              	.LBE150:
 1923              		.loc 1 869 2 discriminator 1
 1924 0030 FEE7     		b	.L118
 1925              	.L117:
 870:Middlewares/Third_Party/FreeRTOS/Source/stream_buffer.c **** 	configASSERT( pxStreamBuffer );
 1926              		.loc 1 870 2
 1927 0032 FB6A     		ldr	r3, [r7, #44]
 1928 0034 002B     		cmp	r3, #0
 1929 0036 0AD1     		bne	.L119
 1930              	.LBB152:
 1931              	.LBB153:
 195:Middlewares/Third_Party/FreeRTOS/Source/portable/GCC/ARM_CM3/portmacro.h **** 	(
 1932              		.loc 2 195 2
 1933              		.syntax unified
 1934              	@ 195 "Middlewares/Third_Party/FreeRTOS/Source/portable/GCC/ARM_CM3/portmacro.h" 1
 1935 0038 4FF05003 			mov r3, #80												
 1936 003c 83F31188 		msr basepri, r3											
 1937 0040 BFF36F8F 		isb														
 1938 0044 BFF34F8F 		dsb														
 1939              	
 1940              	@ 0 "" 2
 1941              		.thumb
 1942              		.syntax unified
 1943 0048 FB61     		str	r3, [r7, #28]
 203:Middlewares/Third_Party/FreeRTOS/Source/portable/GCC/ARM_CM3/portmacro.h **** 
 1944              		.loc 2 203 1
 1945 004a 00BF     		nop
 1946              	.L120:
 1947              	.LBE153:
 1948              	.LBE152:
 1949              		.loc 1 870 2 discriminator 2
 1950 004c FEE7     		b	.L120
 1951              	.L119:
 871:Middlewares/Third_Party/FreeRTOS/Source/stream_buffer.c **** 
 872:Middlewares/Third_Party/FreeRTOS/Source/stream_buffer.c **** 	/* This receive function is used by both message buffers, which store
 873:Middlewares/Third_Party/FreeRTOS/Source/stream_buffer.c **** 	discrete messages, and stream buffers, which store a continuous stream of
 874:Middlewares/Third_Party/FreeRTOS/Source/stream_buffer.c **** 	bytes.  Discrete messages include an additional
 875:Middlewares/Third_Party/FreeRTOS/Source/stream_buffer.c **** 	sbBYTES_TO_STORE_MESSAGE_LENGTH bytes that hold the length of the
 876:Middlewares/Third_Party/FreeRTOS/Source/stream_buffer.c **** 	message. */
 877:Middlewares/Third_Party/FreeRTOS/Source/stream_buffer.c **** 	if( ( pxStreamBuffer->ucFlags & sbFLAGS_IS_MESSAGE_BUFFER ) != ( uint8_t ) 0 )
 1952              		.loc 1 877 22
 1953 004e FB6A     		ldr	r3, [r7, #44]
 1954 0050 1B7F     		ldrb	r3, [r3, #28]	@ zero_extendqisi2
 1955              		.loc 1 877 32
 1956 0052 03F00103 		and	r3, r3, #1
 1957              		.loc 1 877 4
 1958 0056 002B     		cmp	r3, #0
 1959 0058 02D0     		beq	.L121
 878:Middlewares/Third_Party/FreeRTOS/Source/stream_buffer.c **** 	{
ARM GAS  C:\Users\Lenovo\AppData\Local\Temp\ccRNOCMD.s 			page 55


 879:Middlewares/Third_Party/FreeRTOS/Source/stream_buffer.c **** 		xBytesToStoreMessageLength = sbBYTES_TO_STORE_MESSAGE_LENGTH;
 1960              		.loc 1 879 30
 1961 005a 0423     		movs	r3, #4
 1962 005c 3B63     		str	r3, [r7, #48]
 1963 005e 01E0     		b	.L122
 1964              	.L121:
 880:Middlewares/Third_Party/FreeRTOS/Source/stream_buffer.c **** 	}
 881:Middlewares/Third_Party/FreeRTOS/Source/stream_buffer.c **** 	else
 882:Middlewares/Third_Party/FreeRTOS/Source/stream_buffer.c **** 	{
 883:Middlewares/Third_Party/FreeRTOS/Source/stream_buffer.c **** 		xBytesToStoreMessageLength = 0;
 1965              		.loc 1 883 30
 1966 0060 0023     		movs	r3, #0
 1967 0062 3B63     		str	r3, [r7, #48]
 1968              	.L122:
 884:Middlewares/Third_Party/FreeRTOS/Source/stream_buffer.c **** 	}
 885:Middlewares/Third_Party/FreeRTOS/Source/stream_buffer.c **** 
 886:Middlewares/Third_Party/FreeRTOS/Source/stream_buffer.c **** 	xBytesAvailable = prvBytesInBuffer( pxStreamBuffer );
 1969              		.loc 1 886 20
 1970 0064 F86A     		ldr	r0, [r7, #44]
 1971 0066 FFF7FEFF 		bl	prvBytesInBuffer
 1972 006a B862     		str	r0, [r7, #40]
 887:Middlewares/Third_Party/FreeRTOS/Source/stream_buffer.c **** 
 888:Middlewares/Third_Party/FreeRTOS/Source/stream_buffer.c **** 	/* Whether receiving a discrete message (where xBytesToStoreMessageLength
 889:Middlewares/Third_Party/FreeRTOS/Source/stream_buffer.c **** 	holds the number of bytes used to store the message length) or a stream of
 890:Middlewares/Third_Party/FreeRTOS/Source/stream_buffer.c **** 	bytes (where xBytesToStoreMessageLength is zero), the number of bytes
 891:Middlewares/Third_Party/FreeRTOS/Source/stream_buffer.c **** 	available must be greater than xBytesToStoreMessageLength to be able to
 892:Middlewares/Third_Party/FreeRTOS/Source/stream_buffer.c **** 	read bytes from the buffer. */
 893:Middlewares/Third_Party/FreeRTOS/Source/stream_buffer.c **** 	if( xBytesAvailable > xBytesToStoreMessageLength )
 1973              		.loc 1 893 4
 1974 006c BA6A     		ldr	r2, [r7, #40]
 1975 006e 3B6B     		ldr	r3, [r7, #48]
 1976 0070 9A42     		cmp	r2, r3
 1977 0072 2FD9     		bls	.L123
 894:Middlewares/Third_Party/FreeRTOS/Source/stream_buffer.c **** 	{
 895:Middlewares/Third_Party/FreeRTOS/Source/stream_buffer.c **** 		xReceivedLength = prvReadMessageFromBuffer( pxStreamBuffer, pvRxData, xBufferLengthBytes, xBytesA
 1978              		.loc 1 895 21
 1979 0074 3B6B     		ldr	r3, [r7, #48]
 1980 0076 0093     		str	r3, [sp]
 1981 0078 BB6A     		ldr	r3, [r7, #40]
 1982 007a 7A68     		ldr	r2, [r7, #4]
 1983 007c B968     		ldr	r1, [r7, #8]
 1984 007e F86A     		ldr	r0, [r7, #44]
 1985 0080 FFF7FEFF 		bl	prvReadMessageFromBuffer
 1986 0084 7863     		str	r0, [r7, #52]
 896:Middlewares/Third_Party/FreeRTOS/Source/stream_buffer.c **** 
 897:Middlewares/Third_Party/FreeRTOS/Source/stream_buffer.c **** 		/* Was a task waiting for space in the buffer? */
 898:Middlewares/Third_Party/FreeRTOS/Source/stream_buffer.c **** 		if( xReceivedLength != ( size_t ) 0 )
 1987              		.loc 1 898 5
 1988 0086 7B6B     		ldr	r3, [r7, #52]
 1989 0088 002B     		cmp	r3, #0
 1990 008a 23D0     		beq	.L123
 1991              	.LBB154:
 1992              	.LBB155:
 1993              	.LBB156:
 211:Middlewares/Third_Party/FreeRTOS/Source/portable/GCC/ARM_CM3/portmacro.h **** 	(
 1994              		.loc 2 211 2
 1995              		.syntax unified
ARM GAS  C:\Users\Lenovo\AppData\Local\Temp\ccRNOCMD.s 			page 56


 1996              	@ 211 "Middlewares/Third_Party/FreeRTOS/Source/portable/GCC/ARM_CM3/portmacro.h" 1
 1997 008c EFF31182 			mrs r2, basepri											
 1998 0090 4FF05003 		mov r3, #80												
 1999 0094 83F31188 		msr basepri, r3											
 2000 0098 BFF36F8F 		isb														
 2001 009c BFF34F8F 		dsb														
 2002              	
 2003              	@ 0 "" 2
 2004              		.thumb
 2005              		.syntax unified
 2006 00a0 BA61     		str	r2, [r7, #24]
 2007 00a2 7B61     		str	r3, [r7, #20]
 223:Middlewares/Third_Party/FreeRTOS/Source/portable/GCC/ARM_CM3/portmacro.h **** }
 2008              		.loc 2 223 9
 2009 00a4 BB69     		ldr	r3, [r7, #24]
 2010              	.LBE156:
 2011              	.LBE155:
 899:Middlewares/Third_Party/FreeRTOS/Source/stream_buffer.c **** 		{
 900:Middlewares/Third_Party/FreeRTOS/Source/stream_buffer.c **** 			sbRECEIVE_COMPLETED_FROM_ISR( pxStreamBuffer, pxHigherPriorityTaskWoken );
 2012              		.loc 1 900 4
 2013 00a6 7B62     		str	r3, [r7, #36]
 2014 00a8 FB6A     		ldr	r3, [r7, #44]
 2015 00aa 5B69     		ldr	r3, [r3, #20]
 2016 00ac 002B     		cmp	r3, #0
 2017 00ae 0BD0     		beq	.L125
 2018              		.loc 1 900 4 is_stmt 0 discriminator 1
 2019 00b0 FB6A     		ldr	r3, [r7, #44]
 2020 00b2 5869     		ldr	r0, [r3, #20]
 2021 00b4 3B68     		ldr	r3, [r7]
 2022 00b6 0093     		str	r3, [sp]
 2023 00b8 0023     		movs	r3, #0
 2024 00ba 0022     		movs	r2, #0
 2025 00bc 0021     		movs	r1, #0
 2026 00be FFF7FEFF 		bl	xTaskGenericNotifyFromISR
 2027 00c2 FB6A     		ldr	r3, [r7, #44]
 2028 00c4 0022     		movs	r2, #0
 2029 00c6 5A61     		str	r2, [r3, #20]
 2030              	.L125:
 2031 00c8 7B6A     		ldr	r3, [r7, #36]
 2032 00ca 3B61     		str	r3, [r7, #16]
 2033              	.LBB157:
 2034              	.LBB158:
 229:Middlewares/Third_Party/FreeRTOS/Source/portable/GCC/ARM_CM3/portmacro.h **** 	(
 2035              		.loc 2 229 2 is_stmt 1 discriminator 3
 2036 00cc 3B69     		ldr	r3, [r7, #16]
 2037              		.syntax unified
 2038              	@ 229 "Middlewares/Third_Party/FreeRTOS/Source/portable/GCC/ARM_CM3/portmacro.h" 1
 2039 00ce 83F31188 			msr basepri, r3	
 2040              	@ 0 "" 2
 2041              		.loc 2 233 1 discriminator 3
 2042              		.thumb
 2043              		.syntax unified
 2044 00d2 00BF     		nop
 2045              	.L123:
 2046              	.LBE158:
 2047              	.LBE157:
 2048              	.LBE154:
ARM GAS  C:\Users\Lenovo\AppData\Local\Temp\ccRNOCMD.s 			page 57


 901:Middlewares/Third_Party/FreeRTOS/Source/stream_buffer.c **** 		}
 902:Middlewares/Third_Party/FreeRTOS/Source/stream_buffer.c **** 		else
 903:Middlewares/Third_Party/FreeRTOS/Source/stream_buffer.c **** 		{
 904:Middlewares/Third_Party/FreeRTOS/Source/stream_buffer.c **** 			mtCOVERAGE_TEST_MARKER();
 905:Middlewares/Third_Party/FreeRTOS/Source/stream_buffer.c **** 		}
 906:Middlewares/Third_Party/FreeRTOS/Source/stream_buffer.c **** 	}
 907:Middlewares/Third_Party/FreeRTOS/Source/stream_buffer.c **** 	else
 908:Middlewares/Third_Party/FreeRTOS/Source/stream_buffer.c **** 	{
 909:Middlewares/Third_Party/FreeRTOS/Source/stream_buffer.c **** 		mtCOVERAGE_TEST_MARKER();
 910:Middlewares/Third_Party/FreeRTOS/Source/stream_buffer.c **** 	}
 911:Middlewares/Third_Party/FreeRTOS/Source/stream_buffer.c **** 
 912:Middlewares/Third_Party/FreeRTOS/Source/stream_buffer.c **** 	traceSTREAM_BUFFER_RECEIVE_FROM_ISR( xStreamBuffer, xReceivedLength );
 913:Middlewares/Third_Party/FreeRTOS/Source/stream_buffer.c **** 
 914:Middlewares/Third_Party/FreeRTOS/Source/stream_buffer.c **** 	return xReceivedLength;
 2049              		.loc 1 914 9
 2050 00d4 7B6B     		ldr	r3, [r7, #52]
 915:Middlewares/Third_Party/FreeRTOS/Source/stream_buffer.c **** }
 2051              		.loc 1 915 1
 2052 00d6 1846     		mov	r0, r3
 2053 00d8 3837     		adds	r7, r7, #56
 2054              	.LCFI65:
 2055              		.cfi_def_cfa_offset 8
 2056 00da BD46     		mov	sp, r7
 2057              	.LCFI66:
 2058              		.cfi_def_cfa_register 13
 2059              		@ sp needed
 2060 00dc 80BD     		pop	{r7, pc}
 2061              		.cfi_endproc
 2062              	.LFE16:
 2064              		.section	.text.prvReadMessageFromBuffer,"ax",%progbits
 2065              		.align	1
 2066              		.syntax unified
 2067              		.thumb
 2068              		.thumb_func
 2070              	prvReadMessageFromBuffer:
 2071              	.LFB17:
 916:Middlewares/Third_Party/FreeRTOS/Source/stream_buffer.c **** /*-----------------------------------------------------------*/
 917:Middlewares/Third_Party/FreeRTOS/Source/stream_buffer.c **** 
 918:Middlewares/Third_Party/FreeRTOS/Source/stream_buffer.c **** static size_t prvReadMessageFromBuffer( StreamBuffer_t *pxStreamBuffer,
 919:Middlewares/Third_Party/FreeRTOS/Source/stream_buffer.c **** 										void *pvRxData,
 920:Middlewares/Third_Party/FreeRTOS/Source/stream_buffer.c **** 										size_t xBufferLengthBytes,
 921:Middlewares/Third_Party/FreeRTOS/Source/stream_buffer.c **** 										size_t xBytesAvailable,
 922:Middlewares/Third_Party/FreeRTOS/Source/stream_buffer.c **** 										size_t xBytesToStoreMessageLength )
 923:Middlewares/Third_Party/FreeRTOS/Source/stream_buffer.c **** {
 2072              		.loc 1 923 1
 2073              		.cfi_startproc
 2074              		@ args = 4, pretend = 0, frame = 32
 2075              		@ frame_needed = 1, uses_anonymous_args = 0
 2076 0000 80B5     		push	{r7, lr}
 2077              	.LCFI67:
 2078              		.cfi_def_cfa_offset 8
 2079              		.cfi_offset 7, -8
 2080              		.cfi_offset 14, -4
 2081 0002 88B0     		sub	sp, sp, #32
 2082              	.LCFI68:
 2083              		.cfi_def_cfa_offset 40
 2084 0004 00AF     		add	r7, sp, #0
ARM GAS  C:\Users\Lenovo\AppData\Local\Temp\ccRNOCMD.s 			page 58


 2085              	.LCFI69:
 2086              		.cfi_def_cfa_register 7
 2087 0006 F860     		str	r0, [r7, #12]
 2088 0008 B960     		str	r1, [r7, #8]
 2089 000a 7A60     		str	r2, [r7, #4]
 2090 000c 3B60     		str	r3, [r7]
 924:Middlewares/Third_Party/FreeRTOS/Source/stream_buffer.c **** size_t xOriginalTail, xReceivedLength, xNextMessageLength;
 925:Middlewares/Third_Party/FreeRTOS/Source/stream_buffer.c **** configMESSAGE_BUFFER_LENGTH_TYPE xTempNextMessageLength;
 926:Middlewares/Third_Party/FreeRTOS/Source/stream_buffer.c **** 
 927:Middlewares/Third_Party/FreeRTOS/Source/stream_buffer.c **** 	if( xBytesToStoreMessageLength != ( size_t ) 0 )
 2091              		.loc 1 927 4
 2092 000e BB6A     		ldr	r3, [r7, #40]
 2093 0010 002B     		cmp	r3, #0
 2094 0012 19D0     		beq	.L128
 928:Middlewares/Third_Party/FreeRTOS/Source/stream_buffer.c **** 	{
 929:Middlewares/Third_Party/FreeRTOS/Source/stream_buffer.c **** 		/* A discrete message is being received.  First receive the length
 930:Middlewares/Third_Party/FreeRTOS/Source/stream_buffer.c **** 		of the message.  A copy of the tail is stored so the buffer can be
 931:Middlewares/Third_Party/FreeRTOS/Source/stream_buffer.c **** 		returned to its prior state if the length of the message is too
 932:Middlewares/Third_Party/FreeRTOS/Source/stream_buffer.c **** 		large for the provided buffer. */
 933:Middlewares/Third_Party/FreeRTOS/Source/stream_buffer.c **** 		xOriginalTail = pxStreamBuffer->xTail;
 2095              		.loc 1 933 17
 2096 0014 FB68     		ldr	r3, [r7, #12]
 2097 0016 1B68     		ldr	r3, [r3]
 2098 0018 BB61     		str	r3, [r7, #24]
 934:Middlewares/Third_Party/FreeRTOS/Source/stream_buffer.c **** 		( void ) prvReadBytesFromBuffer( pxStreamBuffer, ( uint8_t * ) &xTempNextMessageLength, xBytesToS
 2099              		.loc 1 934 12
 2100 001a 07F11001 		add	r1, r7, #16
 2101 001e 3B68     		ldr	r3, [r7]
 2102 0020 BA6A     		ldr	r2, [r7, #40]
 2103 0022 F868     		ldr	r0, [r7, #12]
 2104 0024 FFF7FEFF 		bl	prvReadBytesFromBuffer
 935:Middlewares/Third_Party/FreeRTOS/Source/stream_buffer.c **** 		xNextMessageLength = ( size_t ) xTempNextMessageLength;
 2105              		.loc 1 935 22
 2106 0028 3B69     		ldr	r3, [r7, #16]
 2107 002a FB61     		str	r3, [r7, #28]
 936:Middlewares/Third_Party/FreeRTOS/Source/stream_buffer.c **** 
 937:Middlewares/Third_Party/FreeRTOS/Source/stream_buffer.c **** 		/* Reduce the number of bytes available by the number of bytes just
 938:Middlewares/Third_Party/FreeRTOS/Source/stream_buffer.c **** 		read out. */
 939:Middlewares/Third_Party/FreeRTOS/Source/stream_buffer.c **** 		xBytesAvailable -= xBytesToStoreMessageLength;
 2108              		.loc 1 939 19
 2109 002c 3A68     		ldr	r2, [r7]
 2110 002e BB6A     		ldr	r3, [r7, #40]
 2111 0030 D31A     		subs	r3, r2, r3
 2112 0032 3B60     		str	r3, [r7]
 940:Middlewares/Third_Party/FreeRTOS/Source/stream_buffer.c **** 
 941:Middlewares/Third_Party/FreeRTOS/Source/stream_buffer.c **** 		/* Check there is enough space in the buffer provided by the
 942:Middlewares/Third_Party/FreeRTOS/Source/stream_buffer.c **** 		user. */
 943:Middlewares/Third_Party/FreeRTOS/Source/stream_buffer.c **** 		if( xNextMessageLength > xBufferLengthBytes )
 2113              		.loc 1 943 5
 2114 0034 FA69     		ldr	r2, [r7, #28]
 2115 0036 7B68     		ldr	r3, [r7, #4]
 2116 0038 9A42     		cmp	r2, r3
 2117 003a 07D9     		bls	.L129
 944:Middlewares/Third_Party/FreeRTOS/Source/stream_buffer.c **** 		{
 945:Middlewares/Third_Party/FreeRTOS/Source/stream_buffer.c **** 			/* The user has provided insufficient space to read the message
 946:Middlewares/Third_Party/FreeRTOS/Source/stream_buffer.c **** 			so return the buffer to its previous state (so the length of
 947:Middlewares/Third_Party/FreeRTOS/Source/stream_buffer.c **** 			the message is in the buffer again). */
ARM GAS  C:\Users\Lenovo\AppData\Local\Temp\ccRNOCMD.s 			page 59


 948:Middlewares/Third_Party/FreeRTOS/Source/stream_buffer.c **** 			pxStreamBuffer->xTail = xOriginalTail;
 2118              		.loc 1 948 26
 2119 003c FB68     		ldr	r3, [r7, #12]
 2120 003e BA69     		ldr	r2, [r7, #24]
 2121 0040 1A60     		str	r2, [r3]
 949:Middlewares/Third_Party/FreeRTOS/Source/stream_buffer.c **** 			xNextMessageLength = 0;
 2122              		.loc 1 949 23
 2123 0042 0023     		movs	r3, #0
 2124 0044 FB61     		str	r3, [r7, #28]
 2125 0046 01E0     		b	.L129
 2126              	.L128:
 950:Middlewares/Third_Party/FreeRTOS/Source/stream_buffer.c **** 		}
 951:Middlewares/Third_Party/FreeRTOS/Source/stream_buffer.c **** 		else
 952:Middlewares/Third_Party/FreeRTOS/Source/stream_buffer.c **** 		{
 953:Middlewares/Third_Party/FreeRTOS/Source/stream_buffer.c **** 			mtCOVERAGE_TEST_MARKER();
 954:Middlewares/Third_Party/FreeRTOS/Source/stream_buffer.c **** 		}
 955:Middlewares/Third_Party/FreeRTOS/Source/stream_buffer.c **** 	}
 956:Middlewares/Third_Party/FreeRTOS/Source/stream_buffer.c **** 	else
 957:Middlewares/Third_Party/FreeRTOS/Source/stream_buffer.c **** 	{
 958:Middlewares/Third_Party/FreeRTOS/Source/stream_buffer.c **** 		/* A stream of bytes is being received (as opposed to a discrete
 959:Middlewares/Third_Party/FreeRTOS/Source/stream_buffer.c **** 		message), so read as many bytes as possible. */
 960:Middlewares/Third_Party/FreeRTOS/Source/stream_buffer.c **** 		xNextMessageLength = xBufferLengthBytes;
 2127              		.loc 1 960 22
 2128 0048 7B68     		ldr	r3, [r7, #4]
 2129 004a FB61     		str	r3, [r7, #28]
 2130              	.L129:
 961:Middlewares/Third_Party/FreeRTOS/Source/stream_buffer.c **** 	}
 962:Middlewares/Third_Party/FreeRTOS/Source/stream_buffer.c **** 
 963:Middlewares/Third_Party/FreeRTOS/Source/stream_buffer.c **** 	/* Read the actual data. */
 964:Middlewares/Third_Party/FreeRTOS/Source/stream_buffer.c **** 	xReceivedLength = prvReadBytesFromBuffer( pxStreamBuffer, ( uint8_t * ) pvRxData, xNextMessageLeng
 2131              		.loc 1 964 20
 2132 004c 3B68     		ldr	r3, [r7]
 2133 004e FA69     		ldr	r2, [r7, #28]
 2134 0050 B968     		ldr	r1, [r7, #8]
 2135 0052 F868     		ldr	r0, [r7, #12]
 2136 0054 FFF7FEFF 		bl	prvReadBytesFromBuffer
 2137 0058 7861     		str	r0, [r7, #20]
 965:Middlewares/Third_Party/FreeRTOS/Source/stream_buffer.c **** 
 966:Middlewares/Third_Party/FreeRTOS/Source/stream_buffer.c **** 	return xReceivedLength;
 2138              		.loc 1 966 9
 2139 005a 7B69     		ldr	r3, [r7, #20]
 967:Middlewares/Third_Party/FreeRTOS/Source/stream_buffer.c **** }
 2140              		.loc 1 967 1
 2141 005c 1846     		mov	r0, r3
 2142 005e 2037     		adds	r7, r7, #32
 2143              	.LCFI70:
 2144              		.cfi_def_cfa_offset 8
 2145 0060 BD46     		mov	sp, r7
 2146              	.LCFI71:
 2147              		.cfi_def_cfa_register 13
 2148              		@ sp needed
 2149 0062 80BD     		pop	{r7, pc}
 2150              		.cfi_endproc
 2151              	.LFE17:
 2153              		.section	.text.xStreamBufferIsEmpty,"ax",%progbits
 2154              		.align	1
 2155              		.global	xStreamBufferIsEmpty
ARM GAS  C:\Users\Lenovo\AppData\Local\Temp\ccRNOCMD.s 			page 60


 2156              		.syntax unified
 2157              		.thumb
 2158              		.thumb_func
 2160              	xStreamBufferIsEmpty:
 2161              	.LFB18:
 968:Middlewares/Third_Party/FreeRTOS/Source/stream_buffer.c **** /*-----------------------------------------------------------*/
 969:Middlewares/Third_Party/FreeRTOS/Source/stream_buffer.c **** 
 970:Middlewares/Third_Party/FreeRTOS/Source/stream_buffer.c **** BaseType_t xStreamBufferIsEmpty( StreamBufferHandle_t xStreamBuffer )
 971:Middlewares/Third_Party/FreeRTOS/Source/stream_buffer.c **** {
 2162              		.loc 1 971 1
 2163              		.cfi_startproc
 2164              		@ args = 0, pretend = 0, frame = 24
 2165              		@ frame_needed = 1, uses_anonymous_args = 0
 2166              		@ link register save eliminated.
 2167 0000 80B4     		push	{r7}
 2168              	.LCFI72:
 2169              		.cfi_def_cfa_offset 4
 2170              		.cfi_offset 7, -4
 2171 0002 87B0     		sub	sp, sp, #28
 2172              	.LCFI73:
 2173              		.cfi_def_cfa_offset 32
 2174 0004 00AF     		add	r7, sp, #0
 2175              	.LCFI74:
 2176              		.cfi_def_cfa_register 7
 2177 0006 7860     		str	r0, [r7, #4]
 972:Middlewares/Third_Party/FreeRTOS/Source/stream_buffer.c **** const StreamBuffer_t * const pxStreamBuffer = xStreamBuffer;
 2178              		.loc 1 972 30
 2179 0008 7B68     		ldr	r3, [r7, #4]
 2180 000a 3B61     		str	r3, [r7, #16]
 973:Middlewares/Third_Party/FreeRTOS/Source/stream_buffer.c **** BaseType_t xReturn;
 974:Middlewares/Third_Party/FreeRTOS/Source/stream_buffer.c **** size_t xTail;
 975:Middlewares/Third_Party/FreeRTOS/Source/stream_buffer.c **** 
 976:Middlewares/Third_Party/FreeRTOS/Source/stream_buffer.c **** 	configASSERT( pxStreamBuffer );
 2181              		.loc 1 976 2
 2182 000c 3B69     		ldr	r3, [r7, #16]
 2183 000e 002B     		cmp	r3, #0
 2184 0010 0AD1     		bne	.L132
 2185              	.LBB159:
 2186              	.LBB160:
 195:Middlewares/Third_Party/FreeRTOS/Source/portable/GCC/ARM_CM3/portmacro.h **** 	(
 2187              		.loc 2 195 2
 2188              		.syntax unified
 2189              	@ 195 "Middlewares/Third_Party/FreeRTOS/Source/portable/GCC/ARM_CM3/portmacro.h" 1
 2190 0012 4FF05003 			mov r3, #80												
 2191 0016 83F31188 		msr basepri, r3											
 2192 001a BFF36F8F 		isb														
 2193 001e BFF34F8F 		dsb														
 2194              	
 2195              	@ 0 "" 2
 2196              		.thumb
 2197              		.syntax unified
 2198 0022 BB60     		str	r3, [r7, #8]
 203:Middlewares/Third_Party/FreeRTOS/Source/portable/GCC/ARM_CM3/portmacro.h **** 
 2199              		.loc 2 203 1
 2200 0024 00BF     		nop
 2201              	.L133:
 2202              	.LBE160:
ARM GAS  C:\Users\Lenovo\AppData\Local\Temp\ccRNOCMD.s 			page 61


 2203              	.LBE159:
 2204              		.loc 1 976 2 discriminator 1
 2205 0026 FEE7     		b	.L133
 2206              	.L132:
 977:Middlewares/Third_Party/FreeRTOS/Source/stream_buffer.c **** 
 978:Middlewares/Third_Party/FreeRTOS/Source/stream_buffer.c **** 	/* True if no bytes are available. */
 979:Middlewares/Third_Party/FreeRTOS/Source/stream_buffer.c **** 	xTail = pxStreamBuffer->xTail;
 2207              		.loc 1 979 8
 2208 0028 3B69     		ldr	r3, [r7, #16]
 2209 002a 1B68     		ldr	r3, [r3]
 2210 002c FB60     		str	r3, [r7, #12]
 980:Middlewares/Third_Party/FreeRTOS/Source/stream_buffer.c **** 	if( pxStreamBuffer->xHead == xTail )
 2211              		.loc 1 980 20
 2212 002e 3B69     		ldr	r3, [r7, #16]
 2213 0030 5B68     		ldr	r3, [r3, #4]
 2214              		.loc 1 980 4
 2215 0032 FA68     		ldr	r2, [r7, #12]
 2216 0034 9A42     		cmp	r2, r3
 2217 0036 02D1     		bne	.L134
 981:Middlewares/Third_Party/FreeRTOS/Source/stream_buffer.c **** 	{
 982:Middlewares/Third_Party/FreeRTOS/Source/stream_buffer.c **** 		xReturn = pdTRUE;
 2218              		.loc 1 982 11
 2219 0038 0123     		movs	r3, #1
 2220 003a 7B61     		str	r3, [r7, #20]
 2221 003c 01E0     		b	.L135
 2222              	.L134:
 983:Middlewares/Third_Party/FreeRTOS/Source/stream_buffer.c **** 	}
 984:Middlewares/Third_Party/FreeRTOS/Source/stream_buffer.c **** 	else
 985:Middlewares/Third_Party/FreeRTOS/Source/stream_buffer.c **** 	{
 986:Middlewares/Third_Party/FreeRTOS/Source/stream_buffer.c **** 		xReturn = pdFALSE;
 2223              		.loc 1 986 11
 2224 003e 0023     		movs	r3, #0
 2225 0040 7B61     		str	r3, [r7, #20]
 2226              	.L135:
 987:Middlewares/Third_Party/FreeRTOS/Source/stream_buffer.c **** 	}
 988:Middlewares/Third_Party/FreeRTOS/Source/stream_buffer.c **** 
 989:Middlewares/Third_Party/FreeRTOS/Source/stream_buffer.c **** 	return xReturn;
 2227              		.loc 1 989 9
 2228 0042 7B69     		ldr	r3, [r7, #20]
 990:Middlewares/Third_Party/FreeRTOS/Source/stream_buffer.c **** }
 2229              		.loc 1 990 1
 2230 0044 1846     		mov	r0, r3
 2231 0046 1C37     		adds	r7, r7, #28
 2232              	.LCFI75:
 2233              		.cfi_def_cfa_offset 4
 2234 0048 BD46     		mov	sp, r7
 2235              	.LCFI76:
 2236              		.cfi_def_cfa_register 13
 2237              		@ sp needed
 2238 004a 80BC     		pop	{r7}
 2239              	.LCFI77:
 2240              		.cfi_restore 7
 2241              		.cfi_def_cfa_offset 0
 2242 004c 7047     		bx	lr
 2243              		.cfi_endproc
 2244              	.LFE18:
 2246              		.section	.text.xStreamBufferIsFull,"ax",%progbits
ARM GAS  C:\Users\Lenovo\AppData\Local\Temp\ccRNOCMD.s 			page 62


 2247              		.align	1
 2248              		.global	xStreamBufferIsFull
 2249              		.syntax unified
 2250              		.thumb
 2251              		.thumb_func
 2253              	xStreamBufferIsFull:
 2254              	.LFB19:
 991:Middlewares/Third_Party/FreeRTOS/Source/stream_buffer.c **** /*-----------------------------------------------------------*/
 992:Middlewares/Third_Party/FreeRTOS/Source/stream_buffer.c **** 
 993:Middlewares/Third_Party/FreeRTOS/Source/stream_buffer.c **** BaseType_t xStreamBufferIsFull( StreamBufferHandle_t xStreamBuffer )
 994:Middlewares/Third_Party/FreeRTOS/Source/stream_buffer.c **** {
 2255              		.loc 1 994 1
 2256              		.cfi_startproc
 2257              		@ args = 0, pretend = 0, frame = 24
 2258              		@ frame_needed = 1, uses_anonymous_args = 0
 2259 0000 80B5     		push	{r7, lr}
 2260              	.LCFI78:
 2261              		.cfi_def_cfa_offset 8
 2262              		.cfi_offset 7, -8
 2263              		.cfi_offset 14, -4
 2264 0002 86B0     		sub	sp, sp, #24
 2265              	.LCFI79:
 2266              		.cfi_def_cfa_offset 32
 2267 0004 00AF     		add	r7, sp, #0
 2268              	.LCFI80:
 2269              		.cfi_def_cfa_register 7
 2270 0006 7860     		str	r0, [r7, #4]
 995:Middlewares/Third_Party/FreeRTOS/Source/stream_buffer.c **** BaseType_t xReturn;
 996:Middlewares/Third_Party/FreeRTOS/Source/stream_buffer.c **** size_t xBytesToStoreMessageLength;
 997:Middlewares/Third_Party/FreeRTOS/Source/stream_buffer.c **** const StreamBuffer_t * const pxStreamBuffer = xStreamBuffer;
 2271              		.loc 1 997 30
 2272 0008 7B68     		ldr	r3, [r7, #4]
 2273 000a FB60     		str	r3, [r7, #12]
 998:Middlewares/Third_Party/FreeRTOS/Source/stream_buffer.c **** 
 999:Middlewares/Third_Party/FreeRTOS/Source/stream_buffer.c **** 	configASSERT( pxStreamBuffer );
 2274              		.loc 1 999 2
 2275 000c FB68     		ldr	r3, [r7, #12]
 2276 000e 002B     		cmp	r3, #0
 2277 0010 0AD1     		bne	.L138
 2278              	.LBB161:
 2279              	.LBB162:
 195:Middlewares/Third_Party/FreeRTOS/Source/portable/GCC/ARM_CM3/portmacro.h **** 	(
 2280              		.loc 2 195 2
 2281              		.syntax unified
 2282              	@ 195 "Middlewares/Third_Party/FreeRTOS/Source/portable/GCC/ARM_CM3/portmacro.h" 1
 2283 0012 4FF05003 			mov r3, #80												
 2284 0016 83F31188 		msr basepri, r3											
 2285 001a BFF36F8F 		isb														
 2286 001e BFF34F8F 		dsb														
 2287              	
 2288              	@ 0 "" 2
 2289              		.thumb
 2290              		.syntax unified
 2291 0022 BB60     		str	r3, [r7, #8]
 203:Middlewares/Third_Party/FreeRTOS/Source/portable/GCC/ARM_CM3/portmacro.h **** 
 2292              		.loc 2 203 1
 2293 0024 00BF     		nop
ARM GAS  C:\Users\Lenovo\AppData\Local\Temp\ccRNOCMD.s 			page 63


 2294              	.L139:
 2295              	.LBE162:
 2296              	.LBE161:
 2297              		.loc 1 999 2 discriminator 1
 2298 0026 FEE7     		b	.L139
 2299              	.L138:
1000:Middlewares/Third_Party/FreeRTOS/Source/stream_buffer.c **** 
1001:Middlewares/Third_Party/FreeRTOS/Source/stream_buffer.c **** 	/* This generic version of the receive function is used by both message
1002:Middlewares/Third_Party/FreeRTOS/Source/stream_buffer.c **** 	buffers, which store discrete messages, and stream buffers, which store a
1003:Middlewares/Third_Party/FreeRTOS/Source/stream_buffer.c **** 	continuous stream of bytes.  Discrete messages include an additional
1004:Middlewares/Third_Party/FreeRTOS/Source/stream_buffer.c **** 	sbBYTES_TO_STORE_MESSAGE_LENGTH bytes that hold the length of the message. */
1005:Middlewares/Third_Party/FreeRTOS/Source/stream_buffer.c **** 	if( ( pxStreamBuffer->ucFlags & sbFLAGS_IS_MESSAGE_BUFFER ) != ( uint8_t ) 0 )
 2300              		.loc 1 1005 22
 2301 0028 FB68     		ldr	r3, [r7, #12]
 2302 002a 1B7F     		ldrb	r3, [r3, #28]	@ zero_extendqisi2
 2303              		.loc 1 1005 32
 2304 002c 03F00103 		and	r3, r3, #1
 2305              		.loc 1 1005 4
 2306 0030 002B     		cmp	r3, #0
 2307 0032 02D0     		beq	.L140
1006:Middlewares/Third_Party/FreeRTOS/Source/stream_buffer.c **** 	{
1007:Middlewares/Third_Party/FreeRTOS/Source/stream_buffer.c **** 		xBytesToStoreMessageLength = sbBYTES_TO_STORE_MESSAGE_LENGTH;
 2308              		.loc 1 1007 30
 2309 0034 0423     		movs	r3, #4
 2310 0036 3B61     		str	r3, [r7, #16]
 2311 0038 01E0     		b	.L141
 2312              	.L140:
1008:Middlewares/Third_Party/FreeRTOS/Source/stream_buffer.c **** 	}
1009:Middlewares/Third_Party/FreeRTOS/Source/stream_buffer.c **** 	else
1010:Middlewares/Third_Party/FreeRTOS/Source/stream_buffer.c **** 	{
1011:Middlewares/Third_Party/FreeRTOS/Source/stream_buffer.c **** 		xBytesToStoreMessageLength = 0;
 2313              		.loc 1 1011 30
 2314 003a 0023     		movs	r3, #0
 2315 003c 3B61     		str	r3, [r7, #16]
 2316              	.L141:
1012:Middlewares/Third_Party/FreeRTOS/Source/stream_buffer.c **** 	}
1013:Middlewares/Third_Party/FreeRTOS/Source/stream_buffer.c **** 
1014:Middlewares/Third_Party/FreeRTOS/Source/stream_buffer.c **** 	/* True if the available space equals zero. */
1015:Middlewares/Third_Party/FreeRTOS/Source/stream_buffer.c **** 	if( xStreamBufferSpacesAvailable( xStreamBuffer ) <= xBytesToStoreMessageLength )
 2317              		.loc 1 1015 6
 2318 003e 7868     		ldr	r0, [r7, #4]
 2319 0040 FFF7FEFF 		bl	xStreamBufferSpacesAvailable
 2320 0044 0246     		mov	r2, r0
 2321              		.loc 1 1015 4
 2322 0046 3B69     		ldr	r3, [r7, #16]
 2323 0048 9342     		cmp	r3, r2
 2324 004a 02D3     		bcc	.L142
1016:Middlewares/Third_Party/FreeRTOS/Source/stream_buffer.c **** 	{
1017:Middlewares/Third_Party/FreeRTOS/Source/stream_buffer.c **** 		xReturn = pdTRUE;
 2325              		.loc 1 1017 11
 2326 004c 0123     		movs	r3, #1
 2327 004e 7B61     		str	r3, [r7, #20]
 2328 0050 01E0     		b	.L143
 2329              	.L142:
1018:Middlewares/Third_Party/FreeRTOS/Source/stream_buffer.c **** 	}
1019:Middlewares/Third_Party/FreeRTOS/Source/stream_buffer.c **** 	else
1020:Middlewares/Third_Party/FreeRTOS/Source/stream_buffer.c **** 	{
ARM GAS  C:\Users\Lenovo\AppData\Local\Temp\ccRNOCMD.s 			page 64


1021:Middlewares/Third_Party/FreeRTOS/Source/stream_buffer.c **** 		xReturn = pdFALSE;
 2330              		.loc 1 1021 11
 2331 0052 0023     		movs	r3, #0
 2332 0054 7B61     		str	r3, [r7, #20]
 2333              	.L143:
1022:Middlewares/Third_Party/FreeRTOS/Source/stream_buffer.c **** 	}
1023:Middlewares/Third_Party/FreeRTOS/Source/stream_buffer.c **** 
1024:Middlewares/Third_Party/FreeRTOS/Source/stream_buffer.c **** 	return xReturn;
 2334              		.loc 1 1024 9
 2335 0056 7B69     		ldr	r3, [r7, #20]
1025:Middlewares/Third_Party/FreeRTOS/Source/stream_buffer.c **** }
 2336              		.loc 1 1025 1
 2337 0058 1846     		mov	r0, r3
 2338 005a 1837     		adds	r7, r7, #24
 2339              	.LCFI81:
 2340              		.cfi_def_cfa_offset 8
 2341 005c BD46     		mov	sp, r7
 2342              	.LCFI82:
 2343              		.cfi_def_cfa_register 13
 2344              		@ sp needed
 2345 005e 80BD     		pop	{r7, pc}
 2346              		.cfi_endproc
 2347              	.LFE19:
 2349              		.section	.text.xStreamBufferSendCompletedFromISR,"ax",%progbits
 2350              		.align	1
 2351              		.global	xStreamBufferSendCompletedFromISR
 2352              		.syntax unified
 2353              		.thumb
 2354              		.thumb_func
 2356              	xStreamBufferSendCompletedFromISR:
 2357              	.LFB20:
1026:Middlewares/Third_Party/FreeRTOS/Source/stream_buffer.c **** /*-----------------------------------------------------------*/
1027:Middlewares/Third_Party/FreeRTOS/Source/stream_buffer.c **** 
1028:Middlewares/Third_Party/FreeRTOS/Source/stream_buffer.c **** BaseType_t xStreamBufferSendCompletedFromISR( StreamBufferHandle_t xStreamBuffer, BaseType_t *pxHig
1029:Middlewares/Third_Party/FreeRTOS/Source/stream_buffer.c **** {
 2358              		.loc 1 1029 1
 2359              		.cfi_startproc
 2360              		@ args = 0, pretend = 0, frame = 40
 2361              		@ frame_needed = 1, uses_anonymous_args = 0
 2362 0000 80B5     		push	{r7, lr}
 2363              	.LCFI83:
 2364              		.cfi_def_cfa_offset 8
 2365              		.cfi_offset 7, -8
 2366              		.cfi_offset 14, -4
 2367 0002 8CB0     		sub	sp, sp, #48
 2368              	.LCFI84:
 2369              		.cfi_def_cfa_offset 56
 2370 0004 02AF     		add	r7, sp, #8
 2371              	.LCFI85:
 2372              		.cfi_def_cfa 7, 48
 2373 0006 7860     		str	r0, [r7, #4]
 2374 0008 3960     		str	r1, [r7]
1030:Middlewares/Third_Party/FreeRTOS/Source/stream_buffer.c **** StreamBuffer_t * const pxStreamBuffer = xStreamBuffer;
 2375              		.loc 1 1030 24
 2376 000a 7B68     		ldr	r3, [r7, #4]
 2377 000c 3B62     		str	r3, [r7, #32]
1031:Middlewares/Third_Party/FreeRTOS/Source/stream_buffer.c **** BaseType_t xReturn;
ARM GAS  C:\Users\Lenovo\AppData\Local\Temp\ccRNOCMD.s 			page 65


1032:Middlewares/Third_Party/FreeRTOS/Source/stream_buffer.c **** UBaseType_t uxSavedInterruptStatus;
1033:Middlewares/Third_Party/FreeRTOS/Source/stream_buffer.c **** 
1034:Middlewares/Third_Party/FreeRTOS/Source/stream_buffer.c **** 	configASSERT( pxStreamBuffer );
 2378              		.loc 1 1034 2
 2379 000e 3B6A     		ldr	r3, [r7, #32]
 2380 0010 002B     		cmp	r3, #0
 2381 0012 0AD1     		bne	.L146
 2382              	.LBB163:
 2383              	.LBB164:
 195:Middlewares/Third_Party/FreeRTOS/Source/portable/GCC/ARM_CM3/portmacro.h **** 	(
 2384              		.loc 2 195 2
 2385              		.syntax unified
 2386              	@ 195 "Middlewares/Third_Party/FreeRTOS/Source/portable/GCC/ARM_CM3/portmacro.h" 1
 2387 0014 4FF05003 			mov r3, #80												
 2388 0018 83F31188 		msr basepri, r3											
 2389 001c BFF36F8F 		isb														
 2390 0020 BFF34F8F 		dsb														
 2391              	
 2392              	@ 0 "" 2
 2393              		.thumb
 2394              		.syntax unified
 2395 0024 BB61     		str	r3, [r7, #24]
 203:Middlewares/Third_Party/FreeRTOS/Source/portable/GCC/ARM_CM3/portmacro.h **** 
 2396              		.loc 2 203 1
 2397 0026 00BF     		nop
 2398              	.L147:
 2399              	.LBE164:
 2400              	.LBE163:
 2401              		.loc 1 1034 2 discriminator 1
 2402 0028 FEE7     		b	.L147
 2403              	.L146:
 2404              	.LBB165:
 2405              	.LBB166:
 211:Middlewares/Third_Party/FreeRTOS/Source/portable/GCC/ARM_CM3/portmacro.h **** 	(
 2406              		.loc 2 211 2
 2407              		.syntax unified
 2408              	@ 211 "Middlewares/Third_Party/FreeRTOS/Source/portable/GCC/ARM_CM3/portmacro.h" 1
 2409 002a EFF31182 			mrs r2, basepri											
 2410 002e 4FF05003 		mov r3, #80												
 2411 0032 83F31188 		msr basepri, r3											
 2412 0036 BFF36F8F 		isb														
 2413 003a BFF34F8F 		dsb														
 2414              	
 2415              	@ 0 "" 2
 2416              		.thumb
 2417              		.syntax unified
 2418 003e 7A61     		str	r2, [r7, #20]
 2419 0040 3B61     		str	r3, [r7, #16]
 223:Middlewares/Third_Party/FreeRTOS/Source/portable/GCC/ARM_CM3/portmacro.h **** }
 2420              		.loc 2 223 9
 2421 0042 7B69     		ldr	r3, [r7, #20]
 2422              	.LBE166:
 2423              	.LBE165:
1035:Middlewares/Third_Party/FreeRTOS/Source/stream_buffer.c **** 
1036:Middlewares/Third_Party/FreeRTOS/Source/stream_buffer.c **** 	uxSavedInterruptStatus = ( UBaseType_t ) portSET_INTERRUPT_MASK_FROM_ISR();
 2424              		.loc 1 1036 43
 2425 0044 FB61     		str	r3, [r7, #28]
ARM GAS  C:\Users\Lenovo\AppData\Local\Temp\ccRNOCMD.s 			page 66


1037:Middlewares/Third_Party/FreeRTOS/Source/stream_buffer.c **** 	{
1038:Middlewares/Third_Party/FreeRTOS/Source/stream_buffer.c **** 		if( ( pxStreamBuffer )->xTaskWaitingToReceive != NULL )
 2426              		.loc 1 1038 25
 2427 0046 3B6A     		ldr	r3, [r7, #32]
 2428 0048 1B69     		ldr	r3, [r3, #16]
 2429              		.loc 1 1038 5
 2430 004a 002B     		cmp	r3, #0
 2431 004c 0ED0     		beq	.L149
1039:Middlewares/Third_Party/FreeRTOS/Source/stream_buffer.c **** 		{
1040:Middlewares/Third_Party/FreeRTOS/Source/stream_buffer.c **** 			( void ) xTaskNotifyFromISR( ( pxStreamBuffer )->xTaskWaitingToReceive,
 2432              		.loc 1 1040 13
 2433 004e 3B6A     		ldr	r3, [r7, #32]
 2434 0050 1869     		ldr	r0, [r3, #16]
 2435 0052 3B68     		ldr	r3, [r7]
 2436 0054 0093     		str	r3, [sp]
 2437 0056 0023     		movs	r3, #0
 2438 0058 0022     		movs	r2, #0
 2439 005a 0021     		movs	r1, #0
 2440 005c FFF7FEFF 		bl	xTaskGenericNotifyFromISR
1041:Middlewares/Third_Party/FreeRTOS/Source/stream_buffer.c **** 										 ( uint32_t ) 0,
1042:Middlewares/Third_Party/FreeRTOS/Source/stream_buffer.c **** 										 eNoAction,
1043:Middlewares/Third_Party/FreeRTOS/Source/stream_buffer.c **** 										 pxHigherPriorityTaskWoken );
1044:Middlewares/Third_Party/FreeRTOS/Source/stream_buffer.c **** 			( pxStreamBuffer )->xTaskWaitingToReceive = NULL;
 2441              		.loc 1 1044 46
 2442 0060 3B6A     		ldr	r3, [r7, #32]
 2443 0062 0022     		movs	r2, #0
 2444 0064 1A61     		str	r2, [r3, #16]
1045:Middlewares/Third_Party/FreeRTOS/Source/stream_buffer.c **** 			xReturn = pdTRUE;
 2445              		.loc 1 1045 12
 2446 0066 0123     		movs	r3, #1
 2447 0068 7B62     		str	r3, [r7, #36]
 2448 006a 01E0     		b	.L150
 2449              	.L149:
1046:Middlewares/Third_Party/FreeRTOS/Source/stream_buffer.c **** 		}
1047:Middlewares/Third_Party/FreeRTOS/Source/stream_buffer.c **** 		else
1048:Middlewares/Third_Party/FreeRTOS/Source/stream_buffer.c **** 		{
1049:Middlewares/Third_Party/FreeRTOS/Source/stream_buffer.c **** 			xReturn = pdFALSE;
 2450              		.loc 1 1049 12
 2451 006c 0023     		movs	r3, #0
 2452 006e 7B62     		str	r3, [r7, #36]
 2453              	.L150:
 2454 0070 FB69     		ldr	r3, [r7, #28]
 2455 0072 FB60     		str	r3, [r7, #12]
 2456              	.LBB167:
 2457              	.LBB168:
 229:Middlewares/Third_Party/FreeRTOS/Source/portable/GCC/ARM_CM3/portmacro.h **** 	(
 2458              		.loc 2 229 2
 2459 0074 FB68     		ldr	r3, [r7, #12]
 2460              		.syntax unified
 2461              	@ 229 "Middlewares/Third_Party/FreeRTOS/Source/portable/GCC/ARM_CM3/portmacro.h" 1
 2462 0076 83F31188 			msr basepri, r3	
 2463              	@ 0 "" 2
 2464              		.loc 2 233 1
 2465              		.thumb
 2466              		.syntax unified
 2467 007a 00BF     		nop
 2468              	.LBE168:
ARM GAS  C:\Users\Lenovo\AppData\Local\Temp\ccRNOCMD.s 			page 67


 2469              	.LBE167:
1050:Middlewares/Third_Party/FreeRTOS/Source/stream_buffer.c **** 		}
1051:Middlewares/Third_Party/FreeRTOS/Source/stream_buffer.c **** 	}
1052:Middlewares/Third_Party/FreeRTOS/Source/stream_buffer.c **** 	portCLEAR_INTERRUPT_MASK_FROM_ISR( uxSavedInterruptStatus );
1053:Middlewares/Third_Party/FreeRTOS/Source/stream_buffer.c **** 
1054:Middlewares/Third_Party/FreeRTOS/Source/stream_buffer.c **** 	return xReturn;
 2470              		.loc 1 1054 9
 2471 007c 7B6A     		ldr	r3, [r7, #36]
1055:Middlewares/Third_Party/FreeRTOS/Source/stream_buffer.c **** }
 2472              		.loc 1 1055 1
 2473 007e 1846     		mov	r0, r3
 2474 0080 2837     		adds	r7, r7, #40
 2475              	.LCFI86:
 2476              		.cfi_def_cfa_offset 8
 2477 0082 BD46     		mov	sp, r7
 2478              	.LCFI87:
 2479              		.cfi_def_cfa_register 13
 2480              		@ sp needed
 2481 0084 80BD     		pop	{r7, pc}
 2482              		.cfi_endproc
 2483              	.LFE20:
 2485              		.section	.text.xStreamBufferReceiveCompletedFromISR,"ax",%progbits
 2486              		.align	1
 2487              		.global	xStreamBufferReceiveCompletedFromISR
 2488              		.syntax unified
 2489              		.thumb
 2490              		.thumb_func
 2492              	xStreamBufferReceiveCompletedFromISR:
 2493              	.LFB21:
1056:Middlewares/Third_Party/FreeRTOS/Source/stream_buffer.c **** /*-----------------------------------------------------------*/
1057:Middlewares/Third_Party/FreeRTOS/Source/stream_buffer.c **** 
1058:Middlewares/Third_Party/FreeRTOS/Source/stream_buffer.c **** BaseType_t xStreamBufferReceiveCompletedFromISR( StreamBufferHandle_t xStreamBuffer, BaseType_t *px
1059:Middlewares/Third_Party/FreeRTOS/Source/stream_buffer.c **** {
 2494              		.loc 1 1059 1
 2495              		.cfi_startproc
 2496              		@ args = 0, pretend = 0, frame = 40
 2497              		@ frame_needed = 1, uses_anonymous_args = 0
 2498 0000 80B5     		push	{r7, lr}
 2499              	.LCFI88:
 2500              		.cfi_def_cfa_offset 8
 2501              		.cfi_offset 7, -8
 2502              		.cfi_offset 14, -4
 2503 0002 8CB0     		sub	sp, sp, #48
 2504              	.LCFI89:
 2505              		.cfi_def_cfa_offset 56
 2506 0004 02AF     		add	r7, sp, #8
 2507              	.LCFI90:
 2508              		.cfi_def_cfa 7, 48
 2509 0006 7860     		str	r0, [r7, #4]
 2510 0008 3960     		str	r1, [r7]
1060:Middlewares/Third_Party/FreeRTOS/Source/stream_buffer.c **** StreamBuffer_t * const pxStreamBuffer = xStreamBuffer;
 2511              		.loc 1 1060 24
 2512 000a 7B68     		ldr	r3, [r7, #4]
 2513 000c 3B62     		str	r3, [r7, #32]
1061:Middlewares/Third_Party/FreeRTOS/Source/stream_buffer.c **** BaseType_t xReturn;
1062:Middlewares/Third_Party/FreeRTOS/Source/stream_buffer.c **** UBaseType_t uxSavedInterruptStatus;
1063:Middlewares/Third_Party/FreeRTOS/Source/stream_buffer.c **** 
ARM GAS  C:\Users\Lenovo\AppData\Local\Temp\ccRNOCMD.s 			page 68


1064:Middlewares/Third_Party/FreeRTOS/Source/stream_buffer.c **** 	configASSERT( pxStreamBuffer );
 2514              		.loc 1 1064 2
 2515 000e 3B6A     		ldr	r3, [r7, #32]
 2516 0010 002B     		cmp	r3, #0
 2517 0012 0AD1     		bne	.L153
 2518              	.LBB169:
 2519              	.LBB170:
 195:Middlewares/Third_Party/FreeRTOS/Source/portable/GCC/ARM_CM3/portmacro.h **** 	(
 2520              		.loc 2 195 2
 2521              		.syntax unified
 2522              	@ 195 "Middlewares/Third_Party/FreeRTOS/Source/portable/GCC/ARM_CM3/portmacro.h" 1
 2523 0014 4FF05003 			mov r3, #80												
 2524 0018 83F31188 		msr basepri, r3											
 2525 001c BFF36F8F 		isb														
 2526 0020 BFF34F8F 		dsb														
 2527              	
 2528              	@ 0 "" 2
 2529              		.thumb
 2530              		.syntax unified
 2531 0024 BB61     		str	r3, [r7, #24]
 203:Middlewares/Third_Party/FreeRTOS/Source/portable/GCC/ARM_CM3/portmacro.h **** 
 2532              		.loc 2 203 1
 2533 0026 00BF     		nop
 2534              	.L154:
 2535              	.LBE170:
 2536              	.LBE169:
 2537              		.loc 1 1064 2 discriminator 1
 2538 0028 FEE7     		b	.L154
 2539              	.L153:
 2540              	.LBB171:
 2541              	.LBB172:
 211:Middlewares/Third_Party/FreeRTOS/Source/portable/GCC/ARM_CM3/portmacro.h **** 	(
 2542              		.loc 2 211 2
 2543              		.syntax unified
 2544              	@ 211 "Middlewares/Third_Party/FreeRTOS/Source/portable/GCC/ARM_CM3/portmacro.h" 1
 2545 002a EFF31182 			mrs r2, basepri											
 2546 002e 4FF05003 		mov r3, #80												
 2547 0032 83F31188 		msr basepri, r3											
 2548 0036 BFF36F8F 		isb														
 2549 003a BFF34F8F 		dsb														
 2550              	
 2551              	@ 0 "" 2
 2552              		.thumb
 2553              		.syntax unified
 2554 003e 7A61     		str	r2, [r7, #20]
 2555 0040 3B61     		str	r3, [r7, #16]
 223:Middlewares/Third_Party/FreeRTOS/Source/portable/GCC/ARM_CM3/portmacro.h **** }
 2556              		.loc 2 223 9
 2557 0042 7B69     		ldr	r3, [r7, #20]
 2558              	.LBE172:
 2559              	.LBE171:
1065:Middlewares/Third_Party/FreeRTOS/Source/stream_buffer.c **** 
1066:Middlewares/Third_Party/FreeRTOS/Source/stream_buffer.c **** 	uxSavedInterruptStatus = ( UBaseType_t ) portSET_INTERRUPT_MASK_FROM_ISR();
 2560              		.loc 1 1066 43
 2561 0044 FB61     		str	r3, [r7, #28]
1067:Middlewares/Third_Party/FreeRTOS/Source/stream_buffer.c **** 	{
1068:Middlewares/Third_Party/FreeRTOS/Source/stream_buffer.c **** 		if( ( pxStreamBuffer )->xTaskWaitingToSend != NULL )
ARM GAS  C:\Users\Lenovo\AppData\Local\Temp\ccRNOCMD.s 			page 69


 2562              		.loc 1 1068 25
 2563 0046 3B6A     		ldr	r3, [r7, #32]
 2564 0048 5B69     		ldr	r3, [r3, #20]
 2565              		.loc 1 1068 5
 2566 004a 002B     		cmp	r3, #0
 2567 004c 0ED0     		beq	.L156
1069:Middlewares/Third_Party/FreeRTOS/Source/stream_buffer.c **** 		{
1070:Middlewares/Third_Party/FreeRTOS/Source/stream_buffer.c **** 			( void ) xTaskNotifyFromISR( ( pxStreamBuffer )->xTaskWaitingToSend,
 2568              		.loc 1 1070 13
 2569 004e 3B6A     		ldr	r3, [r7, #32]
 2570 0050 5869     		ldr	r0, [r3, #20]
 2571 0052 3B68     		ldr	r3, [r7]
 2572 0054 0093     		str	r3, [sp]
 2573 0056 0023     		movs	r3, #0
 2574 0058 0022     		movs	r2, #0
 2575 005a 0021     		movs	r1, #0
 2576 005c FFF7FEFF 		bl	xTaskGenericNotifyFromISR
1071:Middlewares/Third_Party/FreeRTOS/Source/stream_buffer.c **** 										 ( uint32_t ) 0,
1072:Middlewares/Third_Party/FreeRTOS/Source/stream_buffer.c **** 										 eNoAction,
1073:Middlewares/Third_Party/FreeRTOS/Source/stream_buffer.c **** 										 pxHigherPriorityTaskWoken );
1074:Middlewares/Third_Party/FreeRTOS/Source/stream_buffer.c **** 			( pxStreamBuffer )->xTaskWaitingToSend = NULL;
 2577              		.loc 1 1074 43
 2578 0060 3B6A     		ldr	r3, [r7, #32]
 2579 0062 0022     		movs	r2, #0
 2580 0064 5A61     		str	r2, [r3, #20]
1075:Middlewares/Third_Party/FreeRTOS/Source/stream_buffer.c **** 			xReturn = pdTRUE;
 2581              		.loc 1 1075 12
 2582 0066 0123     		movs	r3, #1
 2583 0068 7B62     		str	r3, [r7, #36]
 2584 006a 01E0     		b	.L157
 2585              	.L156:
1076:Middlewares/Third_Party/FreeRTOS/Source/stream_buffer.c **** 		}
1077:Middlewares/Third_Party/FreeRTOS/Source/stream_buffer.c **** 		else
1078:Middlewares/Third_Party/FreeRTOS/Source/stream_buffer.c **** 		{
1079:Middlewares/Third_Party/FreeRTOS/Source/stream_buffer.c **** 			xReturn = pdFALSE;
 2586              		.loc 1 1079 12
 2587 006c 0023     		movs	r3, #0
 2588 006e 7B62     		str	r3, [r7, #36]
 2589              	.L157:
 2590 0070 FB69     		ldr	r3, [r7, #28]
 2591 0072 FB60     		str	r3, [r7, #12]
 2592              	.LBB173:
 2593              	.LBB174:
 229:Middlewares/Third_Party/FreeRTOS/Source/portable/GCC/ARM_CM3/portmacro.h **** 	(
 2594              		.loc 2 229 2
 2595 0074 FB68     		ldr	r3, [r7, #12]
 2596              		.syntax unified
 2597              	@ 229 "Middlewares/Third_Party/FreeRTOS/Source/portable/GCC/ARM_CM3/portmacro.h" 1
 2598 0076 83F31188 			msr basepri, r3	
 2599              	@ 0 "" 2
 2600              		.loc 2 233 1
 2601              		.thumb
 2602              		.syntax unified
 2603 007a 00BF     		nop
 2604              	.LBE174:
 2605              	.LBE173:
1080:Middlewares/Third_Party/FreeRTOS/Source/stream_buffer.c **** 		}
ARM GAS  C:\Users\Lenovo\AppData\Local\Temp\ccRNOCMD.s 			page 70


1081:Middlewares/Third_Party/FreeRTOS/Source/stream_buffer.c **** 	}
1082:Middlewares/Third_Party/FreeRTOS/Source/stream_buffer.c **** 	portCLEAR_INTERRUPT_MASK_FROM_ISR( uxSavedInterruptStatus );
1083:Middlewares/Third_Party/FreeRTOS/Source/stream_buffer.c **** 
1084:Middlewares/Third_Party/FreeRTOS/Source/stream_buffer.c **** 	return xReturn;
 2606              		.loc 1 1084 9
 2607 007c 7B6A     		ldr	r3, [r7, #36]
1085:Middlewares/Third_Party/FreeRTOS/Source/stream_buffer.c **** }
 2608              		.loc 1 1085 1
 2609 007e 1846     		mov	r0, r3
 2610 0080 2837     		adds	r7, r7, #40
 2611              	.LCFI91:
 2612              		.cfi_def_cfa_offset 8
 2613 0082 BD46     		mov	sp, r7
 2614              	.LCFI92:
 2615              		.cfi_def_cfa_register 13
 2616              		@ sp needed
 2617 0084 80BD     		pop	{r7, pc}
 2618              		.cfi_endproc
 2619              	.LFE21:
 2621              		.section	.text.prvWriteBytesToBuffer,"ax",%progbits
 2622              		.align	1
 2623              		.syntax unified
 2624              		.thumb
 2625              		.thumb_func
 2627              	prvWriteBytesToBuffer:
 2628              	.LFB22:
1086:Middlewares/Third_Party/FreeRTOS/Source/stream_buffer.c **** /*-----------------------------------------------------------*/
1087:Middlewares/Third_Party/FreeRTOS/Source/stream_buffer.c **** 
1088:Middlewares/Third_Party/FreeRTOS/Source/stream_buffer.c **** static size_t prvWriteBytesToBuffer( StreamBuffer_t * const pxStreamBuffer, const uint8_t *pucData,
1089:Middlewares/Third_Party/FreeRTOS/Source/stream_buffer.c **** {
 2629              		.loc 1 1089 1
 2630              		.cfi_startproc
 2631              		@ args = 0, pretend = 0, frame = 40
 2632              		@ frame_needed = 1, uses_anonymous_args = 0
 2633 0000 80B5     		push	{r7, lr}
 2634              	.LCFI93:
 2635              		.cfi_def_cfa_offset 8
 2636              		.cfi_offset 7, -8
 2637              		.cfi_offset 14, -4
 2638 0002 8AB0     		sub	sp, sp, #40
 2639              	.LCFI94:
 2640              		.cfi_def_cfa_offset 48
 2641 0004 00AF     		add	r7, sp, #0
 2642              	.LCFI95:
 2643              		.cfi_def_cfa_register 7
 2644 0006 F860     		str	r0, [r7, #12]
 2645 0008 B960     		str	r1, [r7, #8]
 2646 000a 7A60     		str	r2, [r7, #4]
1090:Middlewares/Third_Party/FreeRTOS/Source/stream_buffer.c **** size_t xNextHead, xFirstLength;
1091:Middlewares/Third_Party/FreeRTOS/Source/stream_buffer.c **** 
1092:Middlewares/Third_Party/FreeRTOS/Source/stream_buffer.c **** 	configASSERT( xCount > ( size_t ) 0 );
 2647              		.loc 1 1092 2
 2648 000c 7B68     		ldr	r3, [r7, #4]
 2649 000e 002B     		cmp	r3, #0
 2650 0010 0AD1     		bne	.L160
 2651              	.LBB175:
 2652              	.LBB176:
ARM GAS  C:\Users\Lenovo\AppData\Local\Temp\ccRNOCMD.s 			page 71


 195:Middlewares/Third_Party/FreeRTOS/Source/portable/GCC/ARM_CM3/portmacro.h **** 	(
 2653              		.loc 2 195 2
 2654              		.syntax unified
 2655              	@ 195 "Middlewares/Third_Party/FreeRTOS/Source/portable/GCC/ARM_CM3/portmacro.h" 1
 2656 0012 4FF05003 			mov r3, #80												
 2657 0016 83F31188 		msr basepri, r3											
 2658 001a BFF36F8F 		isb														
 2659 001e BFF34F8F 		dsb														
 2660              	
 2661              	@ 0 "" 2
 2662              		.thumb
 2663              		.syntax unified
 2664 0022 FB61     		str	r3, [r7, #28]
 203:Middlewares/Third_Party/FreeRTOS/Source/portable/GCC/ARM_CM3/portmacro.h **** 
 2665              		.loc 2 203 1
 2666 0024 00BF     		nop
 2667              	.L161:
 2668              	.LBE176:
 2669              	.LBE175:
 2670              		.loc 1 1092 2 discriminator 1
 2671 0026 FEE7     		b	.L161
 2672              	.L160:
1093:Middlewares/Third_Party/FreeRTOS/Source/stream_buffer.c **** 
1094:Middlewares/Third_Party/FreeRTOS/Source/stream_buffer.c **** 	xNextHead = pxStreamBuffer->xHead;
 2673              		.loc 1 1094 12
 2674 0028 FB68     		ldr	r3, [r7, #12]
 2675 002a 5B68     		ldr	r3, [r3, #4]
 2676 002c 7B62     		str	r3, [r7, #36]
1095:Middlewares/Third_Party/FreeRTOS/Source/stream_buffer.c **** 
1096:Middlewares/Third_Party/FreeRTOS/Source/stream_buffer.c **** 	/* Calculate the number of bytes that can be added in the first write -
1097:Middlewares/Third_Party/FreeRTOS/Source/stream_buffer.c **** 	which may be less than the total number of bytes that need to be added if
1098:Middlewares/Third_Party/FreeRTOS/Source/stream_buffer.c **** 	the buffer will wrap back to the beginning. */
1099:Middlewares/Third_Party/FreeRTOS/Source/stream_buffer.c **** 	xFirstLength = configMIN( pxStreamBuffer->xLength - xNextHead, xCount );
 2677              		.loc 1 1099 17
 2678 002e FB68     		ldr	r3, [r7, #12]
 2679 0030 9A68     		ldr	r2, [r3, #8]
 2680 0032 7B6A     		ldr	r3, [r7, #36]
 2681 0034 D31A     		subs	r3, r2, r3
 2682              		.loc 1 1099 15
 2683 0036 7A68     		ldr	r2, [r7, #4]
 2684 0038 9342     		cmp	r3, r2
 2685 003a 28BF     		it	cs
 2686 003c 1346     		movcs	r3, r2
 2687 003e 3B62     		str	r3, [r7, #32]
1100:Middlewares/Third_Party/FreeRTOS/Source/stream_buffer.c **** 
1101:Middlewares/Third_Party/FreeRTOS/Source/stream_buffer.c **** 	/* Write as many bytes as can be written in the first write. */
1102:Middlewares/Third_Party/FreeRTOS/Source/stream_buffer.c **** 	configASSERT( ( xNextHead + xFirstLength ) <= pxStreamBuffer->xLength );
 2688              		.loc 1 1102 2
 2689 0040 7A6A     		ldr	r2, [r7, #36]
 2690 0042 3B6A     		ldr	r3, [r7, #32]
 2691 0044 1A44     		add	r2, r2, r3
 2692 0046 FB68     		ldr	r3, [r7, #12]
 2693 0048 9B68     		ldr	r3, [r3, #8]
 2694 004a 9A42     		cmp	r2, r3
 2695 004c 0AD9     		bls	.L162
 2696              	.LBB177:
 2697              	.LBB178:
ARM GAS  C:\Users\Lenovo\AppData\Local\Temp\ccRNOCMD.s 			page 72


 195:Middlewares/Third_Party/FreeRTOS/Source/portable/GCC/ARM_CM3/portmacro.h **** 	(
 2698              		.loc 2 195 2
 2699              		.syntax unified
 2700              	@ 195 "Middlewares/Third_Party/FreeRTOS/Source/portable/GCC/ARM_CM3/portmacro.h" 1
 2701 004e 4FF05003 			mov r3, #80												
 2702 0052 83F31188 		msr basepri, r3											
 2703 0056 BFF36F8F 		isb														
 2704 005a BFF34F8F 		dsb														
 2705              	
 2706              	@ 0 "" 2
 2707              		.thumb
 2708              		.syntax unified
 2709 005e BB61     		str	r3, [r7, #24]
 203:Middlewares/Third_Party/FreeRTOS/Source/portable/GCC/ARM_CM3/portmacro.h **** 
 2710              		.loc 2 203 1
 2711 0060 00BF     		nop
 2712              	.L163:
 2713              	.LBE178:
 2714              	.LBE177:
 2715              		.loc 1 1102 2 discriminator 2
 2716 0062 FEE7     		b	.L163
 2717              	.L162:
1103:Middlewares/Third_Party/FreeRTOS/Source/stream_buffer.c **** 	( void ) memcpy( ( void* ) ( &( pxStreamBuffer->pucBuffer[ xNextHead ] ) ), ( const void * ) pucDa
 2718              		.loc 1 1103 48
 2719 0064 FB68     		ldr	r3, [r7, #12]
 2720 0066 9A69     		ldr	r2, [r3, #24]
 2721              		.loc 1 1103 31
 2722 0068 7B6A     		ldr	r3, [r7, #36]
 2723 006a 1344     		add	r3, r3, r2
 2724              		.loc 1 1103 11
 2725 006c 3A6A     		ldr	r2, [r7, #32]
 2726 006e B968     		ldr	r1, [r7, #8]
 2727 0070 1846     		mov	r0, r3
 2728 0072 FFF7FEFF 		bl	memcpy
1104:Middlewares/Third_Party/FreeRTOS/Source/stream_buffer.c **** 
1105:Middlewares/Third_Party/FreeRTOS/Source/stream_buffer.c **** 	/* If the number of bytes written was less than the number that could be
1106:Middlewares/Third_Party/FreeRTOS/Source/stream_buffer.c **** 	written in the first write... */
1107:Middlewares/Third_Party/FreeRTOS/Source/stream_buffer.c **** 	if( xCount > xFirstLength )
 2729              		.loc 1 1107 4
 2730 0076 7A68     		ldr	r2, [r7, #4]
 2731 0078 3B6A     		ldr	r3, [r7, #32]
 2732 007a 9A42     		cmp	r2, r3
 2733 007c 1CD9     		bls	.L164
1108:Middlewares/Third_Party/FreeRTOS/Source/stream_buffer.c **** 	{
1109:Middlewares/Third_Party/FreeRTOS/Source/stream_buffer.c **** 		/* ...then write the remaining bytes to the start of the buffer. */
1110:Middlewares/Third_Party/FreeRTOS/Source/stream_buffer.c **** 		configASSERT( ( xCount - xFirstLength ) <= pxStreamBuffer->xLength );
 2734              		.loc 1 1110 3
 2735 007e 7A68     		ldr	r2, [r7, #4]
 2736 0080 3B6A     		ldr	r3, [r7, #32]
 2737 0082 D21A     		subs	r2, r2, r3
 2738 0084 FB68     		ldr	r3, [r7, #12]
 2739 0086 9B68     		ldr	r3, [r3, #8]
 2740 0088 9A42     		cmp	r2, r3
 2741 008a 0AD9     		bls	.L165
 2742              	.LBB179:
 2743              	.LBB180:
 195:Middlewares/Third_Party/FreeRTOS/Source/portable/GCC/ARM_CM3/portmacro.h **** 	(
ARM GAS  C:\Users\Lenovo\AppData\Local\Temp\ccRNOCMD.s 			page 73


 2744              		.loc 2 195 2
 2745              		.syntax unified
 2746              	@ 195 "Middlewares/Third_Party/FreeRTOS/Source/portable/GCC/ARM_CM3/portmacro.h" 1
 2747 008c 4FF05003 			mov r3, #80												
 2748 0090 83F31188 		msr basepri, r3											
 2749 0094 BFF36F8F 		isb														
 2750 0098 BFF34F8F 		dsb														
 2751              	
 2752              	@ 0 "" 2
 2753              		.thumb
 2754              		.syntax unified
 2755 009c 7B61     		str	r3, [r7, #20]
 203:Middlewares/Third_Party/FreeRTOS/Source/portable/GCC/ARM_CM3/portmacro.h **** 
 2756              		.loc 2 203 1
 2757 009e 00BF     		nop
 2758              	.L166:
 2759              	.LBE180:
 2760              	.LBE179:
 2761              		.loc 1 1110 3 discriminator 3
 2762 00a0 FEE7     		b	.L166
 2763              	.L165:
1111:Middlewares/Third_Party/FreeRTOS/Source/stream_buffer.c **** 		( void ) memcpy( ( void * ) pxStreamBuffer->pucBuffer, ( const void * ) &( pucData[ xFirstLength 
 2764              		.loc 1 1111 45
 2765 00a2 FB68     		ldr	r3, [r7, #12]
 2766 00a4 9869     		ldr	r0, [r3, #24]
 2767              		.loc 1 1111 75
 2768 00a6 BA68     		ldr	r2, [r7, #8]
 2769 00a8 3B6A     		ldr	r3, [r7, #32]
 2770 00aa D118     		adds	r1, r2, r3
 2771              		.loc 1 1111 12
 2772 00ac 7A68     		ldr	r2, [r7, #4]
 2773 00ae 3B6A     		ldr	r3, [r7, #32]
 2774 00b0 D31A     		subs	r3, r2, r3
 2775 00b2 1A46     		mov	r2, r3
 2776 00b4 FFF7FEFF 		bl	memcpy
 2777              	.L164:
1112:Middlewares/Third_Party/FreeRTOS/Source/stream_buffer.c **** 	}
1113:Middlewares/Third_Party/FreeRTOS/Source/stream_buffer.c **** 	else
1114:Middlewares/Third_Party/FreeRTOS/Source/stream_buffer.c **** 	{
1115:Middlewares/Third_Party/FreeRTOS/Source/stream_buffer.c **** 		mtCOVERAGE_TEST_MARKER();
1116:Middlewares/Third_Party/FreeRTOS/Source/stream_buffer.c **** 	}
1117:Middlewares/Third_Party/FreeRTOS/Source/stream_buffer.c **** 
1118:Middlewares/Third_Party/FreeRTOS/Source/stream_buffer.c **** 	xNextHead += xCount;
 2778              		.loc 1 1118 12
 2779 00b8 7A6A     		ldr	r2, [r7, #36]
 2780 00ba 7B68     		ldr	r3, [r7, #4]
 2781 00bc 1344     		add	r3, r3, r2
 2782 00be 7B62     		str	r3, [r7, #36]
1119:Middlewares/Third_Party/FreeRTOS/Source/stream_buffer.c **** 	if( xNextHead >= pxStreamBuffer->xLength )
 2783              		.loc 1 1119 33
 2784 00c0 FB68     		ldr	r3, [r7, #12]
 2785 00c2 9B68     		ldr	r3, [r3, #8]
 2786              		.loc 1 1119 4
 2787 00c4 7A6A     		ldr	r2, [r7, #36]
 2788 00c6 9A42     		cmp	r2, r3
 2789 00c8 04D3     		bcc	.L167
1120:Middlewares/Third_Party/FreeRTOS/Source/stream_buffer.c **** 	{
ARM GAS  C:\Users\Lenovo\AppData\Local\Temp\ccRNOCMD.s 			page 74


1121:Middlewares/Third_Party/FreeRTOS/Source/stream_buffer.c **** 		xNextHead -= pxStreamBuffer->xLength;
 2790              		.loc 1 1121 30
 2791 00ca FB68     		ldr	r3, [r7, #12]
 2792 00cc 9B68     		ldr	r3, [r3, #8]
 2793              		.loc 1 1121 13
 2794 00ce 7A6A     		ldr	r2, [r7, #36]
 2795 00d0 D31A     		subs	r3, r2, r3
 2796 00d2 7B62     		str	r3, [r7, #36]
 2797              	.L167:
1122:Middlewares/Third_Party/FreeRTOS/Source/stream_buffer.c **** 	}
1123:Middlewares/Third_Party/FreeRTOS/Source/stream_buffer.c **** 	else
1124:Middlewares/Third_Party/FreeRTOS/Source/stream_buffer.c **** 	{
1125:Middlewares/Third_Party/FreeRTOS/Source/stream_buffer.c **** 		mtCOVERAGE_TEST_MARKER();
1126:Middlewares/Third_Party/FreeRTOS/Source/stream_buffer.c **** 	}
1127:Middlewares/Third_Party/FreeRTOS/Source/stream_buffer.c **** 
1128:Middlewares/Third_Party/FreeRTOS/Source/stream_buffer.c **** 	pxStreamBuffer->xHead = xNextHead;
 2798              		.loc 1 1128 24
