ARM GAS  C:\Users\Lenovo\AppData\Local\Temp\cci3TShy.s 			page 1


   1              		.cpu cortex-m4
   2              		.arch armv7e-m
   3              		.fpu softvfp
   4              		.eabi_attribute 20, 1
   5              		.eabi_attribute 21, 1
   6              		.eabi_attribute 23, 3
   7              		.eabi_attribute 24, 1
   8              		.eabi_attribute 25, 1
   9              		.eabi_attribute 26, 1
  10              		.eabi_attribute 30, 1
  11              		.eabi_attribute 34, 1
  12              		.eabi_attribute 18, 4
  13              		.file	"cmsis_os.c"
  14              		.text
  15              	.Ltext0:
  16              		.cfi_sections	.debug_frame
  17              		.section	.text.makeFreeRtosPriority,"ax",%progbits
  18              		.align	1
  19              		.syntax unified
  20              		.thumb
  21              		.thumb_func
  23              	makeFreeRtosPriority:
  24              	.LVL0:
  25              	.LFB109:
  26              		.file 1 "Middlewares/Third_Party/FreeRTOS/Source/CMSIS_RTOS/cmsis_os.c"
   1:Middlewares/Third_Party/FreeRTOS/Source/CMSIS_RTOS/cmsis_os.c **** /* ----------------------------------------------------------------------
   2:Middlewares/Third_Party/FreeRTOS/Source/CMSIS_RTOS/cmsis_os.c ****  * $Date:        5. February 2013
   3:Middlewares/Third_Party/FreeRTOS/Source/CMSIS_RTOS/cmsis_os.c ****  * $Revision:    V1.02
   4:Middlewares/Third_Party/FreeRTOS/Source/CMSIS_RTOS/cmsis_os.c ****  *
   5:Middlewares/Third_Party/FreeRTOS/Source/CMSIS_RTOS/cmsis_os.c ****  * Project:      CMSIS-RTOS API
   6:Middlewares/Third_Party/FreeRTOS/Source/CMSIS_RTOS/cmsis_os.c ****  * Title:        cmsis_os.c
   7:Middlewares/Third_Party/FreeRTOS/Source/CMSIS_RTOS/cmsis_os.c ****  *
   8:Middlewares/Third_Party/FreeRTOS/Source/CMSIS_RTOS/cmsis_os.c ****  * Version 0.02
   9:Middlewares/Third_Party/FreeRTOS/Source/CMSIS_RTOS/cmsis_os.c ****  *    Initial Proposal Phase
  10:Middlewares/Third_Party/FreeRTOS/Source/CMSIS_RTOS/cmsis_os.c ****  * Version 0.03
  11:Middlewares/Third_Party/FreeRTOS/Source/CMSIS_RTOS/cmsis_os.c ****  *    osKernelStart added, optional feature: main started as thread
  12:Middlewares/Third_Party/FreeRTOS/Source/CMSIS_RTOS/cmsis_os.c ****  *    osSemaphores have standard behavior
  13:Middlewares/Third_Party/FreeRTOS/Source/CMSIS_RTOS/cmsis_os.c ****  *    osTimerCreate does not start the timer, added osTimerStart
  14:Middlewares/Third_Party/FreeRTOS/Source/CMSIS_RTOS/cmsis_os.c ****  *    osThreadPass is renamed to osThreadYield
  15:Middlewares/Third_Party/FreeRTOS/Source/CMSIS_RTOS/cmsis_os.c ****  * Version 1.01
  16:Middlewares/Third_Party/FreeRTOS/Source/CMSIS_RTOS/cmsis_os.c ****  *    Support for C++ interface
  17:Middlewares/Third_Party/FreeRTOS/Source/CMSIS_RTOS/cmsis_os.c ****  *     - const attribute removed from the osXxxxDef_t typedef's
  18:Middlewares/Third_Party/FreeRTOS/Source/CMSIS_RTOS/cmsis_os.c ****  *     - const attribute added to the osXxxxDef macros
  19:Middlewares/Third_Party/FreeRTOS/Source/CMSIS_RTOS/cmsis_os.c ****  *    Added: osTimerDelete, osMutexDelete, osSemaphoreDelete
  20:Middlewares/Third_Party/FreeRTOS/Source/CMSIS_RTOS/cmsis_os.c ****  *    Added: osKernelInitialize
  21:Middlewares/Third_Party/FreeRTOS/Source/CMSIS_RTOS/cmsis_os.c ****  * Version 1.02
  22:Middlewares/Third_Party/FreeRTOS/Source/CMSIS_RTOS/cmsis_os.c ****  *    Control functions for short timeouts in microsecond resolution:
  23:Middlewares/Third_Party/FreeRTOS/Source/CMSIS_RTOS/cmsis_os.c ****  *    Added: osKernelSysTick, osKernelSysTickFrequency, osKernelSysTickMicroSec
  24:Middlewares/Third_Party/FreeRTOS/Source/CMSIS_RTOS/cmsis_os.c ****  *    Removed: osSignalGet 
  25:Middlewares/Third_Party/FreeRTOS/Source/CMSIS_RTOS/cmsis_os.c ****  *    
  26:Middlewares/Third_Party/FreeRTOS/Source/CMSIS_RTOS/cmsis_os.c ****  *  
  27:Middlewares/Third_Party/FreeRTOS/Source/CMSIS_RTOS/cmsis_os.c ****  *----------------------------------------------------------------------------
  28:Middlewares/Third_Party/FreeRTOS/Source/CMSIS_RTOS/cmsis_os.c ****  *
  29:Middlewares/Third_Party/FreeRTOS/Source/CMSIS_RTOS/cmsis_os.c ****  * Portions Copyright © 2016 STMicroelectronics International N.V. All rights reserved.
  30:Middlewares/Third_Party/FreeRTOS/Source/CMSIS_RTOS/cmsis_os.c ****  * Portions Copyright (c) 2013 ARM LIMITED
  31:Middlewares/Third_Party/FreeRTOS/Source/CMSIS_RTOS/cmsis_os.c ****  * All rights reserved.
  32:Middlewares/Third_Party/FreeRTOS/Source/CMSIS_RTOS/cmsis_os.c ****  * Redistribution and use in source and binary forms, with or without
ARM GAS  C:\Users\Lenovo\AppData\Local\Temp\cci3TShy.s 			page 2


  33:Middlewares/Third_Party/FreeRTOS/Source/CMSIS_RTOS/cmsis_os.c ****  * modification, are permitted provided that the following conditions are met:
  34:Middlewares/Third_Party/FreeRTOS/Source/CMSIS_RTOS/cmsis_os.c ****  *  - Redistributions of source code must retain the above copyright
  35:Middlewares/Third_Party/FreeRTOS/Source/CMSIS_RTOS/cmsis_os.c ****  *    notice, this list of conditions and the following disclaimer.
  36:Middlewares/Third_Party/FreeRTOS/Source/CMSIS_RTOS/cmsis_os.c ****  *  - Redistributions in binary form must reproduce the above copyright
  37:Middlewares/Third_Party/FreeRTOS/Source/CMSIS_RTOS/cmsis_os.c ****  *    notice, this list of conditions and the following disclaimer in the
  38:Middlewares/Third_Party/FreeRTOS/Source/CMSIS_RTOS/cmsis_os.c ****  *    documentation and/or other materials provided with the distribution.
  39:Middlewares/Third_Party/FreeRTOS/Source/CMSIS_RTOS/cmsis_os.c ****  *  - Neither the name of ARM  nor the names of its contributors may be used
  40:Middlewares/Third_Party/FreeRTOS/Source/CMSIS_RTOS/cmsis_os.c ****  *    to endorse or promote products derived from this software without
  41:Middlewares/Third_Party/FreeRTOS/Source/CMSIS_RTOS/cmsis_os.c ****  *    specific prior written permission.
  42:Middlewares/Third_Party/FreeRTOS/Source/CMSIS_RTOS/cmsis_os.c ****  *
  43:Middlewares/Third_Party/FreeRTOS/Source/CMSIS_RTOS/cmsis_os.c ****  * THIS SOFTWARE IS PROVIDED BY THE COPYRIGHT HOLDERS AND CONTRIBUTORS "AS IS"
  44:Middlewares/Third_Party/FreeRTOS/Source/CMSIS_RTOS/cmsis_os.c ****  * AND ANY EXPRESS OR IMPLIED WARRANTIES, INCLUDING, BUT NOT LIMITED TO, THE
  45:Middlewares/Third_Party/FreeRTOS/Source/CMSIS_RTOS/cmsis_os.c ****  * IMPLIED WARRANTIES OF MERCHANTABILITY AND FITNESS FOR A PARTICULAR PURPOSE
  46:Middlewares/Third_Party/FreeRTOS/Source/CMSIS_RTOS/cmsis_os.c ****  * ARE DISCLAIMED. IN NO EVENT SHALL COPYRIGHT HOLDERS AND CONTRIBUTORS BE
  47:Middlewares/Third_Party/FreeRTOS/Source/CMSIS_RTOS/cmsis_os.c ****  * LIABLE FOR ANY DIRECT, INDIRECT, INCIDENTAL, SPECIAL, EXEMPLARY, OR
  48:Middlewares/Third_Party/FreeRTOS/Source/CMSIS_RTOS/cmsis_os.c ****  * CONSEQUENTIAL DAMAGES (INCLUDING, BUT NOT LIMITED TO, PROCUREMENT OF
  49:Middlewares/Third_Party/FreeRTOS/Source/CMSIS_RTOS/cmsis_os.c ****  * SUBSTITUTE GOODS OR SERVICES; LOSS OF USE, DATA, OR PROFITS; OR BUSINESS
  50:Middlewares/Third_Party/FreeRTOS/Source/CMSIS_RTOS/cmsis_os.c ****  * INTERRUPTION) HOWEVER CAUSED AND ON ANY THEORY OF LIABILITY, WHETHER IN
  51:Middlewares/Third_Party/FreeRTOS/Source/CMSIS_RTOS/cmsis_os.c ****  * CONTRACT, STRICT LIABILITY, OR TORT (INCLUDING NEGLIGENCE OR OTHERWISE)
  52:Middlewares/Third_Party/FreeRTOS/Source/CMSIS_RTOS/cmsis_os.c ****  * ARISING IN ANY WAY OUT OF THE USE OF THIS SOFTWARE, EVEN IF ADVISED OF THE
  53:Middlewares/Third_Party/FreeRTOS/Source/CMSIS_RTOS/cmsis_os.c ****  * POSSIBILITY OF SUCH DAMAGE.
  54:Middlewares/Third_Party/FreeRTOS/Source/CMSIS_RTOS/cmsis_os.c ****  *---------------------------------------------------------------------------*/
  55:Middlewares/Third_Party/FreeRTOS/Source/CMSIS_RTOS/cmsis_os.c **** 
  56:Middlewares/Third_Party/FreeRTOS/Source/CMSIS_RTOS/cmsis_os.c **** #include <string.h>
  57:Middlewares/Third_Party/FreeRTOS/Source/CMSIS_RTOS/cmsis_os.c **** #include "cmsis_os.h"
  58:Middlewares/Third_Party/FreeRTOS/Source/CMSIS_RTOS/cmsis_os.c **** 
  59:Middlewares/Third_Party/FreeRTOS/Source/CMSIS_RTOS/cmsis_os.c **** /*
  60:Middlewares/Third_Party/FreeRTOS/Source/CMSIS_RTOS/cmsis_os.c ****  * ARM Compiler 4/5
  61:Middlewares/Third_Party/FreeRTOS/Source/CMSIS_RTOS/cmsis_os.c ****  */
  62:Middlewares/Third_Party/FreeRTOS/Source/CMSIS_RTOS/cmsis_os.c **** #if   defined ( __CC_ARM )
  63:Middlewares/Third_Party/FreeRTOS/Source/CMSIS_RTOS/cmsis_os.c **** 
  64:Middlewares/Third_Party/FreeRTOS/Source/CMSIS_RTOS/cmsis_os.c ****   #define __ASM            __asm                                      
  65:Middlewares/Third_Party/FreeRTOS/Source/CMSIS_RTOS/cmsis_os.c ****   #define __INLINE         __inline                                     
  66:Middlewares/Third_Party/FreeRTOS/Source/CMSIS_RTOS/cmsis_os.c ****   #define __STATIC_INLINE  static __inline
  67:Middlewares/Third_Party/FreeRTOS/Source/CMSIS_RTOS/cmsis_os.c **** 
  68:Middlewares/Third_Party/FreeRTOS/Source/CMSIS_RTOS/cmsis_os.c ****   #include "cmsis_armcc.h"
  69:Middlewares/Third_Party/FreeRTOS/Source/CMSIS_RTOS/cmsis_os.c **** 
  70:Middlewares/Third_Party/FreeRTOS/Source/CMSIS_RTOS/cmsis_os.c **** /*
  71:Middlewares/Third_Party/FreeRTOS/Source/CMSIS_RTOS/cmsis_os.c ****  * GNU Compiler
  72:Middlewares/Third_Party/FreeRTOS/Source/CMSIS_RTOS/cmsis_os.c ****  */
  73:Middlewares/Third_Party/FreeRTOS/Source/CMSIS_RTOS/cmsis_os.c **** #elif defined ( __GNUC__ )
  74:Middlewares/Third_Party/FreeRTOS/Source/CMSIS_RTOS/cmsis_os.c **** 
  75:Middlewares/Third_Party/FreeRTOS/Source/CMSIS_RTOS/cmsis_os.c ****   #define __ASM            __asm                                      /*!< asm keyword for GNU Comp
  76:Middlewares/Third_Party/FreeRTOS/Source/CMSIS_RTOS/cmsis_os.c ****   #define __INLINE         inline                                     /*!< inline keyword for GNU C
  77:Middlewares/Third_Party/FreeRTOS/Source/CMSIS_RTOS/cmsis_os.c ****   #define __STATIC_INLINE  static inline
  78:Middlewares/Third_Party/FreeRTOS/Source/CMSIS_RTOS/cmsis_os.c **** 
  79:Middlewares/Third_Party/FreeRTOS/Source/CMSIS_RTOS/cmsis_os.c ****   #include "cmsis_gcc.h"
  80:Middlewares/Third_Party/FreeRTOS/Source/CMSIS_RTOS/cmsis_os.c **** 
  81:Middlewares/Third_Party/FreeRTOS/Source/CMSIS_RTOS/cmsis_os.c **** 
  82:Middlewares/Third_Party/FreeRTOS/Source/CMSIS_RTOS/cmsis_os.c **** /*
  83:Middlewares/Third_Party/FreeRTOS/Source/CMSIS_RTOS/cmsis_os.c ****  * IAR Compiler
  84:Middlewares/Third_Party/FreeRTOS/Source/CMSIS_RTOS/cmsis_os.c ****  */
  85:Middlewares/Third_Party/FreeRTOS/Source/CMSIS_RTOS/cmsis_os.c **** #elif defined ( __ICCARM__ )
  86:Middlewares/Third_Party/FreeRTOS/Source/CMSIS_RTOS/cmsis_os.c **** 
  87:Middlewares/Third_Party/FreeRTOS/Source/CMSIS_RTOS/cmsis_os.c ****   #ifndef   __ASM
  88:Middlewares/Third_Party/FreeRTOS/Source/CMSIS_RTOS/cmsis_os.c ****     #define __ASM                     __asm
  89:Middlewares/Third_Party/FreeRTOS/Source/CMSIS_RTOS/cmsis_os.c ****   #endif
ARM GAS  C:\Users\Lenovo\AppData\Local\Temp\cci3TShy.s 			page 3


  90:Middlewares/Third_Party/FreeRTOS/Source/CMSIS_RTOS/cmsis_os.c ****   #ifndef   __INLINE
  91:Middlewares/Third_Party/FreeRTOS/Source/CMSIS_RTOS/cmsis_os.c ****     #define __INLINE                  inline
  92:Middlewares/Third_Party/FreeRTOS/Source/CMSIS_RTOS/cmsis_os.c ****   #endif
  93:Middlewares/Third_Party/FreeRTOS/Source/CMSIS_RTOS/cmsis_os.c ****   #ifndef   __STATIC_INLINE
  94:Middlewares/Third_Party/FreeRTOS/Source/CMSIS_RTOS/cmsis_os.c ****     #define __STATIC_INLINE           static inline
  95:Middlewares/Third_Party/FreeRTOS/Source/CMSIS_RTOS/cmsis_os.c ****   #endif
  96:Middlewares/Third_Party/FreeRTOS/Source/CMSIS_RTOS/cmsis_os.c **** 
  97:Middlewares/Third_Party/FreeRTOS/Source/CMSIS_RTOS/cmsis_os.c ****   #include <cmsis_iar.h>
  98:Middlewares/Third_Party/FreeRTOS/Source/CMSIS_RTOS/cmsis_os.c **** #endif
  99:Middlewares/Third_Party/FreeRTOS/Source/CMSIS_RTOS/cmsis_os.c **** 
 100:Middlewares/Third_Party/FreeRTOS/Source/CMSIS_RTOS/cmsis_os.c **** extern void xPortSysTickHandler(void);
 101:Middlewares/Third_Party/FreeRTOS/Source/CMSIS_RTOS/cmsis_os.c **** 
 102:Middlewares/Third_Party/FreeRTOS/Source/CMSIS_RTOS/cmsis_os.c **** /* Convert from CMSIS type osPriority to FreeRTOS priority number */
 103:Middlewares/Third_Party/FreeRTOS/Source/CMSIS_RTOS/cmsis_os.c **** static unsigned portBASE_TYPE makeFreeRtosPriority (osPriority priority)
 104:Middlewares/Third_Party/FreeRTOS/Source/CMSIS_RTOS/cmsis_os.c **** {
  27              		.loc 1 104 1 view -0
  28              		.cfi_startproc
  29              		@ args = 0, pretend = 0, frame = 0
  30              		@ frame_needed = 0, uses_anonymous_args = 0
  31              		@ link register save eliminated.
 105:Middlewares/Third_Party/FreeRTOS/Source/CMSIS_RTOS/cmsis_os.c ****   unsigned portBASE_TYPE fpriority = tskIDLE_PRIORITY;
  32              		.loc 1 105 3 view .LVU1
 106:Middlewares/Third_Party/FreeRTOS/Source/CMSIS_RTOS/cmsis_os.c ****   
 107:Middlewares/Third_Party/FreeRTOS/Source/CMSIS_RTOS/cmsis_os.c ****   if (priority != osPriorityError) {
  33              		.loc 1 107 3 view .LVU2
  34              		.loc 1 107 6 is_stmt 0 view .LVU3
  35 0000 8428     		cmp	r0, #132
  36 0002 01D0     		beq	.L3
 108:Middlewares/Third_Party/FreeRTOS/Source/CMSIS_RTOS/cmsis_os.c ****     fpriority += (priority - osPriorityIdle);
  37              		.loc 1 108 5 is_stmt 1 view .LVU4
  38              		.loc 1 108 15 is_stmt 0 view .LVU5
  39 0004 0330     		adds	r0, r0, #3
  40              	.LVL1:
  41              		.loc 1 108 15 view .LVU6
  42 0006 7047     		bx	lr
  43              	.LVL2:
  44              	.L3:
 105:Middlewares/Third_Party/FreeRTOS/Source/CMSIS_RTOS/cmsis_os.c ****   unsigned portBASE_TYPE fpriority = tskIDLE_PRIORITY;
  45              		.loc 1 105 26 view .LVU7
  46 0008 0020     		movs	r0, #0
  47              	.LVL3:
 109:Middlewares/Third_Party/FreeRTOS/Source/CMSIS_RTOS/cmsis_os.c ****   }
 110:Middlewares/Third_Party/FreeRTOS/Source/CMSIS_RTOS/cmsis_os.c ****   
 111:Middlewares/Third_Party/FreeRTOS/Source/CMSIS_RTOS/cmsis_os.c ****   return fpriority;
  48              		.loc 1 111 3 is_stmt 1 view .LVU8
 112:Middlewares/Third_Party/FreeRTOS/Source/CMSIS_RTOS/cmsis_os.c **** }
  49              		.loc 1 112 1 is_stmt 0 view .LVU9
  50 000a 7047     		bx	lr
  51              		.cfi_endproc
  52              	.LFE109:
  54              		.section	.text.makeCmsisPriority,"ax",%progbits
  55              		.align	1
  56              		.syntax unified
  57              		.thumb
  58              		.thumb_func
  60              	makeCmsisPriority:
  61              	.LVL4:
ARM GAS  C:\Users\Lenovo\AppData\Local\Temp\cci3TShy.s 			page 4


  62              	.LFB110:
 113:Middlewares/Third_Party/FreeRTOS/Source/CMSIS_RTOS/cmsis_os.c **** 
 114:Middlewares/Third_Party/FreeRTOS/Source/CMSIS_RTOS/cmsis_os.c **** #if (INCLUDE_uxTaskPriorityGet == 1)
 115:Middlewares/Third_Party/FreeRTOS/Source/CMSIS_RTOS/cmsis_os.c **** /* Convert from FreeRTOS priority number to CMSIS type osPriority */
 116:Middlewares/Third_Party/FreeRTOS/Source/CMSIS_RTOS/cmsis_os.c **** static osPriority makeCmsisPriority (unsigned portBASE_TYPE fpriority)
 117:Middlewares/Third_Party/FreeRTOS/Source/CMSIS_RTOS/cmsis_os.c **** {
  63              		.loc 1 117 1 is_stmt 1 view -0
  64              		.cfi_startproc
  65              		@ args = 0, pretend = 0, frame = 0
  66              		@ frame_needed = 0, uses_anonymous_args = 0
  67              		@ link register save eliminated.
 118:Middlewares/Third_Party/FreeRTOS/Source/CMSIS_RTOS/cmsis_os.c ****   osPriority priority = osPriorityError;
  68              		.loc 1 118 3 view .LVU11
 119:Middlewares/Third_Party/FreeRTOS/Source/CMSIS_RTOS/cmsis_os.c ****   
 120:Middlewares/Third_Party/FreeRTOS/Source/CMSIS_RTOS/cmsis_os.c ****   if ((fpriority - tskIDLE_PRIORITY) <= (osPriorityRealtime - osPriorityIdle)) {
  69              		.loc 1 120 3 view .LVU12
  70              		.loc 1 120 6 is_stmt 0 view .LVU13
  71 0000 0628     		cmp	r0, #6
  72 0002 02D8     		bhi	.L6
 121:Middlewares/Third_Party/FreeRTOS/Source/CMSIS_RTOS/cmsis_os.c ****     priority = (osPriority)((int)osPriorityIdle + (int)(fpriority - tskIDLE_PRIORITY));
  73              		.loc 1 121 5 is_stmt 1 view .LVU14
  74              		.loc 1 121 49 is_stmt 0 view .LVU15
  75 0004 0338     		subs	r0, r0, #3
  76              	.LVL5:
  77              		.loc 1 121 14 view .LVU16
  78 0006 00B2     		sxth	r0, r0
  79              	.LVL6:
  80              		.loc 1 121 14 view .LVU17
  81 0008 7047     		bx	lr
  82              	.LVL7:
  83              	.L6:
 118:Middlewares/Third_Party/FreeRTOS/Source/CMSIS_RTOS/cmsis_os.c ****   osPriority priority = osPriorityError;
  84              		.loc 1 118 14 view .LVU18
  85 000a 8420     		movs	r0, #132
  86              	.LVL8:
 122:Middlewares/Third_Party/FreeRTOS/Source/CMSIS_RTOS/cmsis_os.c ****   }
 123:Middlewares/Third_Party/FreeRTOS/Source/CMSIS_RTOS/cmsis_os.c ****   
 124:Middlewares/Third_Party/FreeRTOS/Source/CMSIS_RTOS/cmsis_os.c ****   return priority;
  87              		.loc 1 124 3 is_stmt 1 view .LVU19
 125:Middlewares/Third_Party/FreeRTOS/Source/CMSIS_RTOS/cmsis_os.c **** }
  88              		.loc 1 125 1 is_stmt 0 view .LVU20
  89 000c 7047     		bx	lr
  90              		.cfi_endproc
  91              	.LFE110:
  93              		.section	.text.inHandlerMode,"ax",%progbits
  94              		.align	1
  95              		.syntax unified
  96              		.thumb
  97              		.thumb_func
  99              	inHandlerMode:
 100              	.LFB111:
 126:Middlewares/Third_Party/FreeRTOS/Source/CMSIS_RTOS/cmsis_os.c **** #endif
 127:Middlewares/Third_Party/FreeRTOS/Source/CMSIS_RTOS/cmsis_os.c **** 
 128:Middlewares/Third_Party/FreeRTOS/Source/CMSIS_RTOS/cmsis_os.c **** 
 129:Middlewares/Third_Party/FreeRTOS/Source/CMSIS_RTOS/cmsis_os.c **** /* Determine whether we are in thread mode or handler mode. */
 130:Middlewares/Third_Party/FreeRTOS/Source/CMSIS_RTOS/cmsis_os.c **** static int inHandlerMode (void)
 131:Middlewares/Third_Party/FreeRTOS/Source/CMSIS_RTOS/cmsis_os.c **** {
ARM GAS  C:\Users\Lenovo\AppData\Local\Temp\cci3TShy.s 			page 5


 101              		.loc 1 131 1 is_stmt 1 view -0
 102              		.cfi_startproc
 103              		@ args = 0, pretend = 0, frame = 0
 104              		@ frame_needed = 0, uses_anonymous_args = 0
 105              		@ link register save eliminated.
 132:Middlewares/Third_Party/FreeRTOS/Source/CMSIS_RTOS/cmsis_os.c ****   return __get_IPSR() != 0;
 106              		.loc 1 132 3 view .LVU22
 107              	.LBB8:
 108              	.LBI8:
 109              		.file 2 "Drivers/CMSIS/Include/cmsis_gcc.h"
   1:Drivers/CMSIS/Include/cmsis_gcc.h **** /**************************************************************************//**
   2:Drivers/CMSIS/Include/cmsis_gcc.h ****  * @file     cmsis_gcc.h
   3:Drivers/CMSIS/Include/cmsis_gcc.h ****  * @brief    CMSIS compiler GCC header file
   4:Drivers/CMSIS/Include/cmsis_gcc.h ****  * @version  V5.2.0
   5:Drivers/CMSIS/Include/cmsis_gcc.h ****  * @date     08. May 2019
   6:Drivers/CMSIS/Include/cmsis_gcc.h ****  ******************************************************************************/
   7:Drivers/CMSIS/Include/cmsis_gcc.h **** /*
   8:Drivers/CMSIS/Include/cmsis_gcc.h ****  * Copyright (c) 2009-2019 Arm Limited. All rights reserved.
   9:Drivers/CMSIS/Include/cmsis_gcc.h ****  *
  10:Drivers/CMSIS/Include/cmsis_gcc.h ****  * SPDX-License-Identifier: Apache-2.0
  11:Drivers/CMSIS/Include/cmsis_gcc.h ****  *
  12:Drivers/CMSIS/Include/cmsis_gcc.h ****  * Licensed under the Apache License, Version 2.0 (the License); you may
  13:Drivers/CMSIS/Include/cmsis_gcc.h ****  * not use this file except in compliance with the License.
  14:Drivers/CMSIS/Include/cmsis_gcc.h ****  * You may obtain a copy of the License at
  15:Drivers/CMSIS/Include/cmsis_gcc.h ****  *
  16:Drivers/CMSIS/Include/cmsis_gcc.h ****  * www.apache.org/licenses/LICENSE-2.0
  17:Drivers/CMSIS/Include/cmsis_gcc.h ****  *
  18:Drivers/CMSIS/Include/cmsis_gcc.h ****  * Unless required by applicable law or agreed to in writing, software
  19:Drivers/CMSIS/Include/cmsis_gcc.h ****  * distributed under the License is distributed on an AS IS BASIS, WITHOUT
  20:Drivers/CMSIS/Include/cmsis_gcc.h ****  * WARRANTIES OR CONDITIONS OF ANY KIND, either express or implied.
  21:Drivers/CMSIS/Include/cmsis_gcc.h ****  * See the License for the specific language governing permissions and
  22:Drivers/CMSIS/Include/cmsis_gcc.h ****  * limitations under the License.
  23:Drivers/CMSIS/Include/cmsis_gcc.h ****  */
  24:Drivers/CMSIS/Include/cmsis_gcc.h **** 
  25:Drivers/CMSIS/Include/cmsis_gcc.h **** #ifndef __CMSIS_GCC_H
  26:Drivers/CMSIS/Include/cmsis_gcc.h **** #define __CMSIS_GCC_H
  27:Drivers/CMSIS/Include/cmsis_gcc.h **** 
  28:Drivers/CMSIS/Include/cmsis_gcc.h **** /* ignore some GCC warnings */
  29:Drivers/CMSIS/Include/cmsis_gcc.h **** #pragma GCC diagnostic push
  30:Drivers/CMSIS/Include/cmsis_gcc.h **** #pragma GCC diagnostic ignored "-Wsign-conversion"
  31:Drivers/CMSIS/Include/cmsis_gcc.h **** #pragma GCC diagnostic ignored "-Wconversion"
  32:Drivers/CMSIS/Include/cmsis_gcc.h **** #pragma GCC diagnostic ignored "-Wunused-parameter"
  33:Drivers/CMSIS/Include/cmsis_gcc.h **** 
  34:Drivers/CMSIS/Include/cmsis_gcc.h **** /* Fallback for __has_builtin */
  35:Drivers/CMSIS/Include/cmsis_gcc.h **** #ifndef __has_builtin
  36:Drivers/CMSIS/Include/cmsis_gcc.h ****   #define __has_builtin(x) (0)
  37:Drivers/CMSIS/Include/cmsis_gcc.h **** #endif
  38:Drivers/CMSIS/Include/cmsis_gcc.h **** 
  39:Drivers/CMSIS/Include/cmsis_gcc.h **** /* CMSIS compiler specific defines */
  40:Drivers/CMSIS/Include/cmsis_gcc.h **** #ifndef   __ASM
  41:Drivers/CMSIS/Include/cmsis_gcc.h ****   #define __ASM                                  __asm
  42:Drivers/CMSIS/Include/cmsis_gcc.h **** #endif
  43:Drivers/CMSIS/Include/cmsis_gcc.h **** #ifndef   __INLINE
  44:Drivers/CMSIS/Include/cmsis_gcc.h ****   #define __INLINE                               inline
  45:Drivers/CMSIS/Include/cmsis_gcc.h **** #endif
  46:Drivers/CMSIS/Include/cmsis_gcc.h **** #ifndef   __STATIC_INLINE
  47:Drivers/CMSIS/Include/cmsis_gcc.h ****   #define __STATIC_INLINE                        static inline
ARM GAS  C:\Users\Lenovo\AppData\Local\Temp\cci3TShy.s 			page 6


  48:Drivers/CMSIS/Include/cmsis_gcc.h **** #endif
  49:Drivers/CMSIS/Include/cmsis_gcc.h **** #ifndef   __STATIC_FORCEINLINE                 
  50:Drivers/CMSIS/Include/cmsis_gcc.h ****   #define __STATIC_FORCEINLINE                   __attribute__((always_inline)) static inline
  51:Drivers/CMSIS/Include/cmsis_gcc.h **** #endif                                           
  52:Drivers/CMSIS/Include/cmsis_gcc.h **** #ifndef   __NO_RETURN
  53:Drivers/CMSIS/Include/cmsis_gcc.h ****   #define __NO_RETURN                            __attribute__((__noreturn__))
  54:Drivers/CMSIS/Include/cmsis_gcc.h **** #endif
  55:Drivers/CMSIS/Include/cmsis_gcc.h **** #ifndef   __USED
  56:Drivers/CMSIS/Include/cmsis_gcc.h ****   #define __USED                                 __attribute__((used))
  57:Drivers/CMSIS/Include/cmsis_gcc.h **** #endif
  58:Drivers/CMSIS/Include/cmsis_gcc.h **** #ifndef   __WEAK
  59:Drivers/CMSIS/Include/cmsis_gcc.h ****   #define __WEAK                                 __attribute__((weak))
  60:Drivers/CMSIS/Include/cmsis_gcc.h **** #endif
  61:Drivers/CMSIS/Include/cmsis_gcc.h **** #ifndef   __PACKED
  62:Drivers/CMSIS/Include/cmsis_gcc.h ****   #define __PACKED                               __attribute__((packed, aligned(1)))
  63:Drivers/CMSIS/Include/cmsis_gcc.h **** #endif
  64:Drivers/CMSIS/Include/cmsis_gcc.h **** #ifndef   __PACKED_STRUCT
  65:Drivers/CMSIS/Include/cmsis_gcc.h ****   #define __PACKED_STRUCT                        struct __attribute__((packed, aligned(1)))
  66:Drivers/CMSIS/Include/cmsis_gcc.h **** #endif
  67:Drivers/CMSIS/Include/cmsis_gcc.h **** #ifndef   __PACKED_UNION
  68:Drivers/CMSIS/Include/cmsis_gcc.h ****   #define __PACKED_UNION                         union __attribute__((packed, aligned(1)))
  69:Drivers/CMSIS/Include/cmsis_gcc.h **** #endif
  70:Drivers/CMSIS/Include/cmsis_gcc.h **** #ifndef   __UNALIGNED_UINT32        /* deprecated */
  71:Drivers/CMSIS/Include/cmsis_gcc.h ****   #pragma GCC diagnostic push
  72:Drivers/CMSIS/Include/cmsis_gcc.h ****   #pragma GCC diagnostic ignored "-Wpacked"
  73:Drivers/CMSIS/Include/cmsis_gcc.h ****   #pragma GCC diagnostic ignored "-Wattributes"
  74:Drivers/CMSIS/Include/cmsis_gcc.h ****   struct __attribute__((packed)) T_UINT32 { uint32_t v; };
  75:Drivers/CMSIS/Include/cmsis_gcc.h ****   #pragma GCC diagnostic pop
  76:Drivers/CMSIS/Include/cmsis_gcc.h ****   #define __UNALIGNED_UINT32(x)                  (((struct T_UINT32 *)(x))->v)
  77:Drivers/CMSIS/Include/cmsis_gcc.h **** #endif
  78:Drivers/CMSIS/Include/cmsis_gcc.h **** #ifndef   __UNALIGNED_UINT16_WRITE
  79:Drivers/CMSIS/Include/cmsis_gcc.h ****   #pragma GCC diagnostic push
  80:Drivers/CMSIS/Include/cmsis_gcc.h ****   #pragma GCC diagnostic ignored "-Wpacked"
  81:Drivers/CMSIS/Include/cmsis_gcc.h ****   #pragma GCC diagnostic ignored "-Wattributes"
  82:Drivers/CMSIS/Include/cmsis_gcc.h ****   __PACKED_STRUCT T_UINT16_WRITE { uint16_t v; };
  83:Drivers/CMSIS/Include/cmsis_gcc.h ****   #pragma GCC diagnostic pop
  84:Drivers/CMSIS/Include/cmsis_gcc.h ****   #define __UNALIGNED_UINT16_WRITE(addr, val)    (void)((((struct T_UINT16_WRITE *)(void *)(addr))-
  85:Drivers/CMSIS/Include/cmsis_gcc.h **** #endif
  86:Drivers/CMSIS/Include/cmsis_gcc.h **** #ifndef   __UNALIGNED_UINT16_READ
  87:Drivers/CMSIS/Include/cmsis_gcc.h ****   #pragma GCC diagnostic push
  88:Drivers/CMSIS/Include/cmsis_gcc.h ****   #pragma GCC diagnostic ignored "-Wpacked"
  89:Drivers/CMSIS/Include/cmsis_gcc.h ****   #pragma GCC diagnostic ignored "-Wattributes"
  90:Drivers/CMSIS/Include/cmsis_gcc.h ****   __PACKED_STRUCT T_UINT16_READ { uint16_t v; };
  91:Drivers/CMSIS/Include/cmsis_gcc.h ****   #pragma GCC diagnostic pop
  92:Drivers/CMSIS/Include/cmsis_gcc.h ****   #define __UNALIGNED_UINT16_READ(addr)          (((const struct T_UINT16_READ *)(const void *)(add
  93:Drivers/CMSIS/Include/cmsis_gcc.h **** #endif
  94:Drivers/CMSIS/Include/cmsis_gcc.h **** #ifndef   __UNALIGNED_UINT32_WRITE
  95:Drivers/CMSIS/Include/cmsis_gcc.h ****   #pragma GCC diagnostic push
  96:Drivers/CMSIS/Include/cmsis_gcc.h ****   #pragma GCC diagnostic ignored "-Wpacked"
  97:Drivers/CMSIS/Include/cmsis_gcc.h ****   #pragma GCC diagnostic ignored "-Wattributes"
  98:Drivers/CMSIS/Include/cmsis_gcc.h ****   __PACKED_STRUCT T_UINT32_WRITE { uint32_t v; };
  99:Drivers/CMSIS/Include/cmsis_gcc.h ****   #pragma GCC diagnostic pop
 100:Drivers/CMSIS/Include/cmsis_gcc.h ****   #define __UNALIGNED_UINT32_WRITE(addr, val)    (void)((((struct T_UINT32_WRITE *)(void *)(addr))-
 101:Drivers/CMSIS/Include/cmsis_gcc.h **** #endif
 102:Drivers/CMSIS/Include/cmsis_gcc.h **** #ifndef   __UNALIGNED_UINT32_READ
 103:Drivers/CMSIS/Include/cmsis_gcc.h ****   #pragma GCC diagnostic push
 104:Drivers/CMSIS/Include/cmsis_gcc.h ****   #pragma GCC diagnostic ignored "-Wpacked"
ARM GAS  C:\Users\Lenovo\AppData\Local\Temp\cci3TShy.s 			page 7


 105:Drivers/CMSIS/Include/cmsis_gcc.h ****   #pragma GCC diagnostic ignored "-Wattributes"
 106:Drivers/CMSIS/Include/cmsis_gcc.h ****   __PACKED_STRUCT T_UINT32_READ { uint32_t v; };
 107:Drivers/CMSIS/Include/cmsis_gcc.h ****   #pragma GCC diagnostic pop
 108:Drivers/CMSIS/Include/cmsis_gcc.h ****   #define __UNALIGNED_UINT32_READ(addr)          (((const struct T_UINT32_READ *)(const void *)(add
 109:Drivers/CMSIS/Include/cmsis_gcc.h **** #endif
 110:Drivers/CMSIS/Include/cmsis_gcc.h **** #ifndef   __ALIGNED
 111:Drivers/CMSIS/Include/cmsis_gcc.h ****   #define __ALIGNED(x)                           __attribute__((aligned(x)))
 112:Drivers/CMSIS/Include/cmsis_gcc.h **** #endif
 113:Drivers/CMSIS/Include/cmsis_gcc.h **** #ifndef   __RESTRICT
 114:Drivers/CMSIS/Include/cmsis_gcc.h ****   #define __RESTRICT                             __restrict
 115:Drivers/CMSIS/Include/cmsis_gcc.h **** #endif
 116:Drivers/CMSIS/Include/cmsis_gcc.h **** #ifndef   __COMPILER_BARRIER
 117:Drivers/CMSIS/Include/cmsis_gcc.h ****   #define __COMPILER_BARRIER()                   __ASM volatile("":::"memory")
 118:Drivers/CMSIS/Include/cmsis_gcc.h **** #endif
 119:Drivers/CMSIS/Include/cmsis_gcc.h **** 
 120:Drivers/CMSIS/Include/cmsis_gcc.h **** /* #########################  Startup and Lowlevel Init  ######################## */
 121:Drivers/CMSIS/Include/cmsis_gcc.h **** 
 122:Drivers/CMSIS/Include/cmsis_gcc.h **** #ifndef __PROGRAM_START
 123:Drivers/CMSIS/Include/cmsis_gcc.h **** 
 124:Drivers/CMSIS/Include/cmsis_gcc.h **** /**
 125:Drivers/CMSIS/Include/cmsis_gcc.h ****   \brief   Initializes data and bss sections
 126:Drivers/CMSIS/Include/cmsis_gcc.h ****   \details This default implementations initialized all data and additional bss
 127:Drivers/CMSIS/Include/cmsis_gcc.h ****            sections relying on .copy.table and .zero.table specified properly
 128:Drivers/CMSIS/Include/cmsis_gcc.h ****            in the used linker script.
 129:Drivers/CMSIS/Include/cmsis_gcc.h ****   
 130:Drivers/CMSIS/Include/cmsis_gcc.h ****  */
 131:Drivers/CMSIS/Include/cmsis_gcc.h **** __STATIC_FORCEINLINE __NO_RETURN void __cmsis_start(void)
 132:Drivers/CMSIS/Include/cmsis_gcc.h **** {
 133:Drivers/CMSIS/Include/cmsis_gcc.h ****   extern void _start(void) __NO_RETURN;
 134:Drivers/CMSIS/Include/cmsis_gcc.h ****   
 135:Drivers/CMSIS/Include/cmsis_gcc.h ****   typedef struct {
 136:Drivers/CMSIS/Include/cmsis_gcc.h ****     uint32_t const* src;
 137:Drivers/CMSIS/Include/cmsis_gcc.h ****     uint32_t* dest;
 138:Drivers/CMSIS/Include/cmsis_gcc.h ****     uint32_t  wlen;
 139:Drivers/CMSIS/Include/cmsis_gcc.h ****   } __copy_table_t;
 140:Drivers/CMSIS/Include/cmsis_gcc.h ****   
 141:Drivers/CMSIS/Include/cmsis_gcc.h ****   typedef struct {
 142:Drivers/CMSIS/Include/cmsis_gcc.h ****     uint32_t* dest;
 143:Drivers/CMSIS/Include/cmsis_gcc.h ****     uint32_t  wlen;
 144:Drivers/CMSIS/Include/cmsis_gcc.h ****   } __zero_table_t;
 145:Drivers/CMSIS/Include/cmsis_gcc.h ****   
 146:Drivers/CMSIS/Include/cmsis_gcc.h ****   extern const __copy_table_t __copy_table_start__;
 147:Drivers/CMSIS/Include/cmsis_gcc.h ****   extern const __copy_table_t __copy_table_end__;
 148:Drivers/CMSIS/Include/cmsis_gcc.h ****   extern const __zero_table_t __zero_table_start__;
 149:Drivers/CMSIS/Include/cmsis_gcc.h ****   extern const __zero_table_t __zero_table_end__;
 150:Drivers/CMSIS/Include/cmsis_gcc.h **** 
 151:Drivers/CMSIS/Include/cmsis_gcc.h ****   for (__copy_table_t const* pTable = &__copy_table_start__; pTable < &__copy_table_end__; ++pTable
 152:Drivers/CMSIS/Include/cmsis_gcc.h ****     for(uint32_t i=0u; i<pTable->wlen; ++i) {
 153:Drivers/CMSIS/Include/cmsis_gcc.h ****       pTable->dest[i] = pTable->src[i];
 154:Drivers/CMSIS/Include/cmsis_gcc.h ****     }
 155:Drivers/CMSIS/Include/cmsis_gcc.h ****   }
 156:Drivers/CMSIS/Include/cmsis_gcc.h ****  
 157:Drivers/CMSIS/Include/cmsis_gcc.h ****   for (__zero_table_t const* pTable = &__zero_table_start__; pTable < &__zero_table_end__; ++pTable
 158:Drivers/CMSIS/Include/cmsis_gcc.h ****     for(uint32_t i=0u; i<pTable->wlen; ++i) {
 159:Drivers/CMSIS/Include/cmsis_gcc.h ****       pTable->dest[i] = 0u;
 160:Drivers/CMSIS/Include/cmsis_gcc.h ****     }
 161:Drivers/CMSIS/Include/cmsis_gcc.h ****   }
ARM GAS  C:\Users\Lenovo\AppData\Local\Temp\cci3TShy.s 			page 8


 162:Drivers/CMSIS/Include/cmsis_gcc.h ****  
 163:Drivers/CMSIS/Include/cmsis_gcc.h ****   _start();
 164:Drivers/CMSIS/Include/cmsis_gcc.h **** }
 165:Drivers/CMSIS/Include/cmsis_gcc.h ****   
 166:Drivers/CMSIS/Include/cmsis_gcc.h **** #define __PROGRAM_START           __cmsis_start
 167:Drivers/CMSIS/Include/cmsis_gcc.h **** #endif
 168:Drivers/CMSIS/Include/cmsis_gcc.h **** 
 169:Drivers/CMSIS/Include/cmsis_gcc.h **** #ifndef __INITIAL_SP
 170:Drivers/CMSIS/Include/cmsis_gcc.h **** #define __INITIAL_SP              __StackTop
 171:Drivers/CMSIS/Include/cmsis_gcc.h **** #endif
 172:Drivers/CMSIS/Include/cmsis_gcc.h **** 
 173:Drivers/CMSIS/Include/cmsis_gcc.h **** #ifndef __STACK_LIMIT
 174:Drivers/CMSIS/Include/cmsis_gcc.h **** #define __STACK_LIMIT             __StackLimit
 175:Drivers/CMSIS/Include/cmsis_gcc.h **** #endif
 176:Drivers/CMSIS/Include/cmsis_gcc.h **** 
 177:Drivers/CMSIS/Include/cmsis_gcc.h **** #ifndef __VECTOR_TABLE
 178:Drivers/CMSIS/Include/cmsis_gcc.h **** #define __VECTOR_TABLE            __Vectors
 179:Drivers/CMSIS/Include/cmsis_gcc.h **** #endif
 180:Drivers/CMSIS/Include/cmsis_gcc.h **** 
 181:Drivers/CMSIS/Include/cmsis_gcc.h **** #ifndef __VECTOR_TABLE_ATTRIBUTE
 182:Drivers/CMSIS/Include/cmsis_gcc.h **** #define __VECTOR_TABLE_ATTRIBUTE  __attribute((used, section(".vectors")))
 183:Drivers/CMSIS/Include/cmsis_gcc.h **** #endif
 184:Drivers/CMSIS/Include/cmsis_gcc.h **** 
 185:Drivers/CMSIS/Include/cmsis_gcc.h **** /* ###########################  Core Function Access  ########################### */
 186:Drivers/CMSIS/Include/cmsis_gcc.h **** /** \ingroup  CMSIS_Core_FunctionInterface
 187:Drivers/CMSIS/Include/cmsis_gcc.h ****     \defgroup CMSIS_Core_RegAccFunctions CMSIS Core Register Access Functions
 188:Drivers/CMSIS/Include/cmsis_gcc.h ****   @{
 189:Drivers/CMSIS/Include/cmsis_gcc.h ****  */
 190:Drivers/CMSIS/Include/cmsis_gcc.h **** 
 191:Drivers/CMSIS/Include/cmsis_gcc.h **** /**
 192:Drivers/CMSIS/Include/cmsis_gcc.h ****   \brief   Enable IRQ Interrupts
 193:Drivers/CMSIS/Include/cmsis_gcc.h ****   \details Enables IRQ interrupts by clearing the I-bit in the CPSR.
 194:Drivers/CMSIS/Include/cmsis_gcc.h ****            Can only be executed in Privileged modes.
 195:Drivers/CMSIS/Include/cmsis_gcc.h ****  */
 196:Drivers/CMSIS/Include/cmsis_gcc.h **** __STATIC_FORCEINLINE void __enable_irq(void)
 197:Drivers/CMSIS/Include/cmsis_gcc.h **** {
 198:Drivers/CMSIS/Include/cmsis_gcc.h ****   __ASM volatile ("cpsie i" : : : "memory");
 199:Drivers/CMSIS/Include/cmsis_gcc.h **** }
 200:Drivers/CMSIS/Include/cmsis_gcc.h **** 
 201:Drivers/CMSIS/Include/cmsis_gcc.h **** 
 202:Drivers/CMSIS/Include/cmsis_gcc.h **** /**
 203:Drivers/CMSIS/Include/cmsis_gcc.h ****   \brief   Disable IRQ Interrupts
 204:Drivers/CMSIS/Include/cmsis_gcc.h ****   \details Disables IRQ interrupts by setting the I-bit in the CPSR.
 205:Drivers/CMSIS/Include/cmsis_gcc.h ****            Can only be executed in Privileged modes.
 206:Drivers/CMSIS/Include/cmsis_gcc.h ****  */
 207:Drivers/CMSIS/Include/cmsis_gcc.h **** __STATIC_FORCEINLINE void __disable_irq(void)
 208:Drivers/CMSIS/Include/cmsis_gcc.h **** {
 209:Drivers/CMSIS/Include/cmsis_gcc.h ****   __ASM volatile ("cpsid i" : : : "memory");
 210:Drivers/CMSIS/Include/cmsis_gcc.h **** }
 211:Drivers/CMSIS/Include/cmsis_gcc.h **** 
 212:Drivers/CMSIS/Include/cmsis_gcc.h **** 
 213:Drivers/CMSIS/Include/cmsis_gcc.h **** /**
 214:Drivers/CMSIS/Include/cmsis_gcc.h ****   \brief   Get Control Register
 215:Drivers/CMSIS/Include/cmsis_gcc.h ****   \details Returns the content of the Control Register.
 216:Drivers/CMSIS/Include/cmsis_gcc.h ****   \return               Control Register value
 217:Drivers/CMSIS/Include/cmsis_gcc.h ****  */
 218:Drivers/CMSIS/Include/cmsis_gcc.h **** __STATIC_FORCEINLINE uint32_t __get_CONTROL(void)
ARM GAS  C:\Users\Lenovo\AppData\Local\Temp\cci3TShy.s 			page 9


 219:Drivers/CMSIS/Include/cmsis_gcc.h **** {
 220:Drivers/CMSIS/Include/cmsis_gcc.h ****   uint32_t result;
 221:Drivers/CMSIS/Include/cmsis_gcc.h **** 
 222:Drivers/CMSIS/Include/cmsis_gcc.h ****   __ASM volatile ("MRS %0, control" : "=r" (result) );
 223:Drivers/CMSIS/Include/cmsis_gcc.h ****   return(result);
 224:Drivers/CMSIS/Include/cmsis_gcc.h **** }
 225:Drivers/CMSIS/Include/cmsis_gcc.h **** 
 226:Drivers/CMSIS/Include/cmsis_gcc.h **** 
 227:Drivers/CMSIS/Include/cmsis_gcc.h **** #if (defined (__ARM_FEATURE_CMSE ) && (__ARM_FEATURE_CMSE == 3))
 228:Drivers/CMSIS/Include/cmsis_gcc.h **** /**
 229:Drivers/CMSIS/Include/cmsis_gcc.h ****   \brief   Get Control Register (non-secure)
 230:Drivers/CMSIS/Include/cmsis_gcc.h ****   \details Returns the content of the non-secure Control Register when in secure mode.
 231:Drivers/CMSIS/Include/cmsis_gcc.h ****   \return               non-secure Control Register value
 232:Drivers/CMSIS/Include/cmsis_gcc.h ****  */
 233:Drivers/CMSIS/Include/cmsis_gcc.h **** __STATIC_FORCEINLINE uint32_t __TZ_get_CONTROL_NS(void)
 234:Drivers/CMSIS/Include/cmsis_gcc.h **** {
 235:Drivers/CMSIS/Include/cmsis_gcc.h ****   uint32_t result;
 236:Drivers/CMSIS/Include/cmsis_gcc.h **** 
 237:Drivers/CMSIS/Include/cmsis_gcc.h ****   __ASM volatile ("MRS %0, control_ns" : "=r" (result) );
 238:Drivers/CMSIS/Include/cmsis_gcc.h ****   return(result);
 239:Drivers/CMSIS/Include/cmsis_gcc.h **** }
 240:Drivers/CMSIS/Include/cmsis_gcc.h **** #endif
 241:Drivers/CMSIS/Include/cmsis_gcc.h **** 
 242:Drivers/CMSIS/Include/cmsis_gcc.h **** 
 243:Drivers/CMSIS/Include/cmsis_gcc.h **** /**
 244:Drivers/CMSIS/Include/cmsis_gcc.h ****   \brief   Set Control Register
 245:Drivers/CMSIS/Include/cmsis_gcc.h ****   \details Writes the given value to the Control Register.
 246:Drivers/CMSIS/Include/cmsis_gcc.h ****   \param [in]    control  Control Register value to set
 247:Drivers/CMSIS/Include/cmsis_gcc.h ****  */
 248:Drivers/CMSIS/Include/cmsis_gcc.h **** __STATIC_FORCEINLINE void __set_CONTROL(uint32_t control)
 249:Drivers/CMSIS/Include/cmsis_gcc.h **** {
 250:Drivers/CMSIS/Include/cmsis_gcc.h ****   __ASM volatile ("MSR control, %0" : : "r" (control) : "memory");
 251:Drivers/CMSIS/Include/cmsis_gcc.h **** }
 252:Drivers/CMSIS/Include/cmsis_gcc.h **** 
 253:Drivers/CMSIS/Include/cmsis_gcc.h **** 
 254:Drivers/CMSIS/Include/cmsis_gcc.h **** #if (defined (__ARM_FEATURE_CMSE ) && (__ARM_FEATURE_CMSE == 3))
 255:Drivers/CMSIS/Include/cmsis_gcc.h **** /**
 256:Drivers/CMSIS/Include/cmsis_gcc.h ****   \brief   Set Control Register (non-secure)
 257:Drivers/CMSIS/Include/cmsis_gcc.h ****   \details Writes the given value to the non-secure Control Register when in secure state.
 258:Drivers/CMSIS/Include/cmsis_gcc.h ****   \param [in]    control  Control Register value to set
 259:Drivers/CMSIS/Include/cmsis_gcc.h ****  */
 260:Drivers/CMSIS/Include/cmsis_gcc.h **** __STATIC_FORCEINLINE void __TZ_set_CONTROL_NS(uint32_t control)
 261:Drivers/CMSIS/Include/cmsis_gcc.h **** {
 262:Drivers/CMSIS/Include/cmsis_gcc.h ****   __ASM volatile ("MSR control_ns, %0" : : "r" (control) : "memory");
 263:Drivers/CMSIS/Include/cmsis_gcc.h **** }
 264:Drivers/CMSIS/Include/cmsis_gcc.h **** #endif
 265:Drivers/CMSIS/Include/cmsis_gcc.h **** 
 266:Drivers/CMSIS/Include/cmsis_gcc.h **** 
 267:Drivers/CMSIS/Include/cmsis_gcc.h **** /**
 268:Drivers/CMSIS/Include/cmsis_gcc.h ****   \brief   Get IPSR Register
 269:Drivers/CMSIS/Include/cmsis_gcc.h ****   \details Returns the content of the IPSR Register.
 270:Drivers/CMSIS/Include/cmsis_gcc.h ****   \return               IPSR Register value
 271:Drivers/CMSIS/Include/cmsis_gcc.h ****  */
 272:Drivers/CMSIS/Include/cmsis_gcc.h **** __STATIC_FORCEINLINE uint32_t __get_IPSR(void)
 110              		.loc 2 272 31 view .LVU23
 111              	.LBB9:
 273:Drivers/CMSIS/Include/cmsis_gcc.h **** {
ARM GAS  C:\Users\Lenovo\AppData\Local\Temp\cci3TShy.s 			page 10


 274:Drivers/CMSIS/Include/cmsis_gcc.h ****   uint32_t result;
 112              		.loc 2 274 3 view .LVU24
 275:Drivers/CMSIS/Include/cmsis_gcc.h **** 
 276:Drivers/CMSIS/Include/cmsis_gcc.h ****   __ASM volatile ("MRS %0, ipsr" : "=r" (result) );
 113              		.loc 2 276 3 view .LVU25
 114              		.syntax unified
 115              	@ 276 "Drivers/CMSIS/Include/cmsis_gcc.h" 1
 116 0000 EFF30580 		MRS r0, ipsr
 117              	@ 0 "" 2
 118              	.LVL9:
 277:Drivers/CMSIS/Include/cmsis_gcc.h ****   return(result);
 119              		.loc 2 277 3 view .LVU26
 120              		.loc 2 277 3 is_stmt 0 view .LVU27
 121              		.thumb
 122              		.syntax unified
 123              	.LBE9:
 124              	.LBE8:
 133:Middlewares/Third_Party/FreeRTOS/Source/CMSIS_RTOS/cmsis_os.c **** }
 125              		.loc 1 133 1 view .LVU28
 126 0004 0038     		subs	r0, r0, #0
 127 0006 18BF     		it	ne
 128 0008 0120     		movne	r0, #1
 129 000a 7047     		bx	lr
 130              		.cfi_endproc
 131              	.LFE111:
 133              		.section	.text.osKernelStart,"ax",%progbits
 134              		.align	1
 135              		.global	osKernelStart
 136              		.syntax unified
 137              		.thumb
 138              		.thumb_func
 140              	osKernelStart:
 141              	.LFB112:
 134:Middlewares/Third_Party/FreeRTOS/Source/CMSIS_RTOS/cmsis_os.c **** 
 135:Middlewares/Third_Party/FreeRTOS/Source/CMSIS_RTOS/cmsis_os.c **** /*********************** Kernel Control Functions *****************************/
 136:Middlewares/Third_Party/FreeRTOS/Source/CMSIS_RTOS/cmsis_os.c **** /**
 137:Middlewares/Third_Party/FreeRTOS/Source/CMSIS_RTOS/cmsis_os.c **** * @brief  Initialize the RTOS Kernel for creating objects.
 138:Middlewares/Third_Party/FreeRTOS/Source/CMSIS_RTOS/cmsis_os.c **** * @retval status code that indicates the execution status of the function.
 139:Middlewares/Third_Party/FreeRTOS/Source/CMSIS_RTOS/cmsis_os.c **** * @note   MUST REMAIN UNCHANGED: \b osKernelInitialize shall be consistent in every CMSIS-RTOS.
 140:Middlewares/Third_Party/FreeRTOS/Source/CMSIS_RTOS/cmsis_os.c **** */
 141:Middlewares/Third_Party/FreeRTOS/Source/CMSIS_RTOS/cmsis_os.c **** osStatus osKernelInitialize (void);
 142:Middlewares/Third_Party/FreeRTOS/Source/CMSIS_RTOS/cmsis_os.c **** 
 143:Middlewares/Third_Party/FreeRTOS/Source/CMSIS_RTOS/cmsis_os.c **** /**
 144:Middlewares/Third_Party/FreeRTOS/Source/CMSIS_RTOS/cmsis_os.c **** * @brief  Start the RTOS Kernel with executing the specified thread.
 145:Middlewares/Third_Party/FreeRTOS/Source/CMSIS_RTOS/cmsis_os.c **** * @param  thread_def    thread definition referenced with \ref osThread.
 146:Middlewares/Third_Party/FreeRTOS/Source/CMSIS_RTOS/cmsis_os.c **** * @param  argument      pointer that is passed to the thread function as start argument.
 147:Middlewares/Third_Party/FreeRTOS/Source/CMSIS_RTOS/cmsis_os.c **** * @retval status code that indicates the execution status of the function
 148:Middlewares/Third_Party/FreeRTOS/Source/CMSIS_RTOS/cmsis_os.c **** * @note   MUST REMAIN UNCHANGED: \b osKernelStart shall be consistent in every CMSIS-RTOS.
 149:Middlewares/Third_Party/FreeRTOS/Source/CMSIS_RTOS/cmsis_os.c **** */
 150:Middlewares/Third_Party/FreeRTOS/Source/CMSIS_RTOS/cmsis_os.c **** osStatus osKernelStart (void)
 151:Middlewares/Third_Party/FreeRTOS/Source/CMSIS_RTOS/cmsis_os.c **** {
 142              		.loc 1 151 1 is_stmt 1 view -0
 143              		.cfi_startproc
 144              		@ args = 0, pretend = 0, frame = 0
 145              		@ frame_needed = 0, uses_anonymous_args = 0
 146 0000 08B5     		push	{r3, lr}
 147              	.LCFI0:
ARM GAS  C:\Users\Lenovo\AppData\Local\Temp\cci3TShy.s 			page 11


 148              		.cfi_def_cfa_offset 8
 149              		.cfi_offset 3, -8
 150              		.cfi_offset 14, -4
 152:Middlewares/Third_Party/FreeRTOS/Source/CMSIS_RTOS/cmsis_os.c ****   vTaskStartScheduler();
 151              		.loc 1 152 3 view .LVU30
 152 0002 FFF7FEFF 		bl	vTaskStartScheduler
 153              	.LVL10:
 153:Middlewares/Third_Party/FreeRTOS/Source/CMSIS_RTOS/cmsis_os.c ****   
 154:Middlewares/Third_Party/FreeRTOS/Source/CMSIS_RTOS/cmsis_os.c ****   return osOK;
 154              		.loc 1 154 3 view .LVU31
 155:Middlewares/Third_Party/FreeRTOS/Source/CMSIS_RTOS/cmsis_os.c **** }
 155              		.loc 1 155 1 is_stmt 0 view .LVU32
 156 0006 0020     		movs	r0, #0
 157 0008 08BD     		pop	{r3, pc}
 158              		.cfi_endproc
 159              	.LFE112:
 161              		.section	.text.osKernelRunning,"ax",%progbits
 162              		.align	1
 163              		.global	osKernelRunning
 164              		.syntax unified
 165              		.thumb
 166              		.thumb_func
 168              	osKernelRunning:
 169              	.LFB113:
 156:Middlewares/Third_Party/FreeRTOS/Source/CMSIS_RTOS/cmsis_os.c **** 
 157:Middlewares/Third_Party/FreeRTOS/Source/CMSIS_RTOS/cmsis_os.c **** /**
 158:Middlewares/Third_Party/FreeRTOS/Source/CMSIS_RTOS/cmsis_os.c **** * @brief  Check if the RTOS kernel is already started
 159:Middlewares/Third_Party/FreeRTOS/Source/CMSIS_RTOS/cmsis_os.c **** * @param  None
 160:Middlewares/Third_Party/FreeRTOS/Source/CMSIS_RTOS/cmsis_os.c **** * @retval (0) RTOS is not started
 161:Middlewares/Third_Party/FreeRTOS/Source/CMSIS_RTOS/cmsis_os.c **** *         (1) RTOS is started
 162:Middlewares/Third_Party/FreeRTOS/Source/CMSIS_RTOS/cmsis_os.c **** *         (-1) if this feature is disabled in FreeRTOSConfig.h 
 163:Middlewares/Third_Party/FreeRTOS/Source/CMSIS_RTOS/cmsis_os.c **** * @note  MUST REMAIN UNCHANGED: \b osKernelRunning shall be consistent in every CMSIS-RTOS.
 164:Middlewares/Third_Party/FreeRTOS/Source/CMSIS_RTOS/cmsis_os.c **** */
 165:Middlewares/Third_Party/FreeRTOS/Source/CMSIS_RTOS/cmsis_os.c **** int32_t osKernelRunning(void)
 166:Middlewares/Third_Party/FreeRTOS/Source/CMSIS_RTOS/cmsis_os.c **** {
 170              		.loc 1 166 1 is_stmt 1 view -0
 171              		.cfi_startproc
 172              		@ args = 0, pretend = 0, frame = 0
 173              		@ frame_needed = 0, uses_anonymous_args = 0
 174 0000 08B5     		push	{r3, lr}
 175              	.LCFI1:
 176              		.cfi_def_cfa_offset 8
 177              		.cfi_offset 3, -8
 178              		.cfi_offset 14, -4
 167:Middlewares/Third_Party/FreeRTOS/Source/CMSIS_RTOS/cmsis_os.c **** #if ( ( INCLUDE_xTaskGetSchedulerState == 1 ) || ( configUSE_TIMERS == 1 ) )
 168:Middlewares/Third_Party/FreeRTOS/Source/CMSIS_RTOS/cmsis_os.c ****   if (xTaskGetSchedulerState() == taskSCHEDULER_NOT_STARTED)
 179              		.loc 1 168 3 view .LVU34
 180              		.loc 1 168 7 is_stmt 0 view .LVU35
 181 0002 FFF7FEFF 		bl	xTaskGetSchedulerState
 182              	.LVL11:
 183              		.loc 1 168 6 view .LVU36
 184 0006 0128     		cmp	r0, #1
 185 0008 01D0     		beq	.L14
 169:Middlewares/Third_Party/FreeRTOS/Source/CMSIS_RTOS/cmsis_os.c ****     return 0;
 170:Middlewares/Third_Party/FreeRTOS/Source/CMSIS_RTOS/cmsis_os.c ****   else
 171:Middlewares/Third_Party/FreeRTOS/Source/CMSIS_RTOS/cmsis_os.c ****     return 1;
 186              		.loc 1 171 12 view .LVU37
ARM GAS  C:\Users\Lenovo\AppData\Local\Temp\cci3TShy.s 			page 12


 187 000a 0120     		movs	r0, #1
 188              	.L10:
 172:Middlewares/Third_Party/FreeRTOS/Source/CMSIS_RTOS/cmsis_os.c **** #else
 173:Middlewares/Third_Party/FreeRTOS/Source/CMSIS_RTOS/cmsis_os.c **** 	return (-1);
 174:Middlewares/Third_Party/FreeRTOS/Source/CMSIS_RTOS/cmsis_os.c **** #endif	
 175:Middlewares/Third_Party/FreeRTOS/Source/CMSIS_RTOS/cmsis_os.c **** }
 189              		.loc 1 175 1 view .LVU38
 190 000c 08BD     		pop	{r3, pc}
 191              	.L14:
 169:Middlewares/Third_Party/FreeRTOS/Source/CMSIS_RTOS/cmsis_os.c ****     return 0;
 192              		.loc 1 169 12 view .LVU39
 193 000e 0020     		movs	r0, #0
 194 0010 FCE7     		b	.L10
 195              		.cfi_endproc
 196              	.LFE113:
 198              		.section	.text.osKernelSysTick,"ax",%progbits
 199              		.align	1
 200              		.global	osKernelSysTick
 201              		.syntax unified
 202              		.thumb
 203              		.thumb_func
 205              	osKernelSysTick:
 206              	.LFB114:
 176:Middlewares/Third_Party/FreeRTOS/Source/CMSIS_RTOS/cmsis_os.c **** 
 177:Middlewares/Third_Party/FreeRTOS/Source/CMSIS_RTOS/cmsis_os.c **** #if (defined (osFeature_SysTick)  &&  (osFeature_SysTick != 0))     // System Timer available
 178:Middlewares/Third_Party/FreeRTOS/Source/CMSIS_RTOS/cmsis_os.c **** /**
 179:Middlewares/Third_Party/FreeRTOS/Source/CMSIS_RTOS/cmsis_os.c **** * @brief  Get the value of the Kernel SysTick timer
 180:Middlewares/Third_Party/FreeRTOS/Source/CMSIS_RTOS/cmsis_os.c **** * @param  None
 181:Middlewares/Third_Party/FreeRTOS/Source/CMSIS_RTOS/cmsis_os.c **** * @retval None
 182:Middlewares/Third_Party/FreeRTOS/Source/CMSIS_RTOS/cmsis_os.c **** * @note   MUST REMAIN UNCHANGED: \b osKernelSysTick shall be consistent in every CMSIS-RTOS.
 183:Middlewares/Third_Party/FreeRTOS/Source/CMSIS_RTOS/cmsis_os.c **** */
 184:Middlewares/Third_Party/FreeRTOS/Source/CMSIS_RTOS/cmsis_os.c **** uint32_t osKernelSysTick(void)
 185:Middlewares/Third_Party/FreeRTOS/Source/CMSIS_RTOS/cmsis_os.c **** {
 207              		.loc 1 185 1 is_stmt 1 view -0
 208              		.cfi_startproc
 209              		@ args = 0, pretend = 0, frame = 0
 210              		@ frame_needed = 0, uses_anonymous_args = 0
 211 0000 08B5     		push	{r3, lr}
 212              	.LCFI2:
 213              		.cfi_def_cfa_offset 8
 214              		.cfi_offset 3, -8
 215              		.cfi_offset 14, -4
 186:Middlewares/Third_Party/FreeRTOS/Source/CMSIS_RTOS/cmsis_os.c ****   if (inHandlerMode()) {
 216              		.loc 1 186 3 view .LVU41
 217              		.loc 1 186 7 is_stmt 0 view .LVU42
 218 0002 FFF7FEFF 		bl	inHandlerMode
 219              	.LVL12:
 220              		.loc 1 186 6 view .LVU43
 221 0006 10B1     		cbz	r0, .L16
 187:Middlewares/Third_Party/FreeRTOS/Source/CMSIS_RTOS/cmsis_os.c ****     return xTaskGetTickCountFromISR();
 222              		.loc 1 187 5 is_stmt 1 view .LVU44
 223              		.loc 1 187 12 is_stmt 0 view .LVU45
 224 0008 FFF7FEFF 		bl	xTaskGetTickCountFromISR
 225              	.LVL13:
 226              	.L15:
 188:Middlewares/Third_Party/FreeRTOS/Source/CMSIS_RTOS/cmsis_os.c ****   }
 189:Middlewares/Third_Party/FreeRTOS/Source/CMSIS_RTOS/cmsis_os.c ****   else {
ARM GAS  C:\Users\Lenovo\AppData\Local\Temp\cci3TShy.s 			page 13


 190:Middlewares/Third_Party/FreeRTOS/Source/CMSIS_RTOS/cmsis_os.c ****     return xTaskGetTickCount();
 191:Middlewares/Third_Party/FreeRTOS/Source/CMSIS_RTOS/cmsis_os.c ****   }
 192:Middlewares/Third_Party/FreeRTOS/Source/CMSIS_RTOS/cmsis_os.c **** }
 227              		.loc 1 192 1 view .LVU46
 228 000c 08BD     		pop	{r3, pc}
 229              	.L16:
 190:Middlewares/Third_Party/FreeRTOS/Source/CMSIS_RTOS/cmsis_os.c ****   }
 230              		.loc 1 190 5 is_stmt 1 view .LVU47
 190:Middlewares/Third_Party/FreeRTOS/Source/CMSIS_RTOS/cmsis_os.c ****   }
 231              		.loc 1 190 12 is_stmt 0 view .LVU48
 232 000e FFF7FEFF 		bl	xTaskGetTickCount
 233              	.LVL14:
 234 0012 FBE7     		b	.L15
 235              		.cfi_endproc
 236              	.LFE114:
 238              		.section	.text.osThreadCreate,"ax",%progbits
 239              		.align	1
 240              		.global	osThreadCreate
 241              		.syntax unified
 242              		.thumb
 243              		.thumb_func
 245              	osThreadCreate:
 246              	.LVL15:
 247              	.LFB115:
 193:Middlewares/Third_Party/FreeRTOS/Source/CMSIS_RTOS/cmsis_os.c **** #endif    // System Timer available
 194:Middlewares/Third_Party/FreeRTOS/Source/CMSIS_RTOS/cmsis_os.c **** /*********************** Thread Management *****************************/
 195:Middlewares/Third_Party/FreeRTOS/Source/CMSIS_RTOS/cmsis_os.c **** /**
 196:Middlewares/Third_Party/FreeRTOS/Source/CMSIS_RTOS/cmsis_os.c **** * @brief  Create a thread and add it to Active Threads and set it to state READY.
 197:Middlewares/Third_Party/FreeRTOS/Source/CMSIS_RTOS/cmsis_os.c **** * @param  thread_def    thread definition referenced with \ref osThread.
 198:Middlewares/Third_Party/FreeRTOS/Source/CMSIS_RTOS/cmsis_os.c **** * @param  argument      pointer that is passed to the thread function as start argument.
 199:Middlewares/Third_Party/FreeRTOS/Source/CMSIS_RTOS/cmsis_os.c **** * @retval thread ID for reference by other functions or NULL in case of error.
 200:Middlewares/Third_Party/FreeRTOS/Source/CMSIS_RTOS/cmsis_os.c **** * @note   MUST REMAIN UNCHANGED: \b osThreadCreate shall be consistent in every CMSIS-RTOS.
 201:Middlewares/Third_Party/FreeRTOS/Source/CMSIS_RTOS/cmsis_os.c **** */
 202:Middlewares/Third_Party/FreeRTOS/Source/CMSIS_RTOS/cmsis_os.c **** osThreadId osThreadCreate (const osThreadDef_t *thread_def, void *argument)
 203:Middlewares/Third_Party/FreeRTOS/Source/CMSIS_RTOS/cmsis_os.c **** {
 248              		.loc 1 203 1 is_stmt 1 view -0
 249              		.cfi_startproc
 250              		@ args = 0, pretend = 0, frame = 8
 251              		@ frame_needed = 0, uses_anonymous_args = 0
 252              		.loc 1 203 1 is_stmt 0 view .LVU50
 253 0000 2DE9F043 		push	{r4, r5, r6, r7, r8, r9, lr}
 254              	.LCFI3:
 255              		.cfi_def_cfa_offset 28
 256              		.cfi_offset 4, -28
 257              		.cfi_offset 5, -24
 258              		.cfi_offset 6, -20
 259              		.cfi_offset 7, -16
 260              		.cfi_offset 8, -12
 261              		.cfi_offset 9, -8
 262              		.cfi_offset 14, -4
 263 0004 87B0     		sub	sp, sp, #28
 264              	.LCFI4:
 265              		.cfi_def_cfa_offset 56
 266 0006 0446     		mov	r4, r0
 267 0008 0F46     		mov	r7, r1
 204:Middlewares/Third_Party/FreeRTOS/Source/CMSIS_RTOS/cmsis_os.c ****   TaskHandle_t handle;
 268              		.loc 1 204 3 is_stmt 1 view .LVU51
ARM GAS  C:\Users\Lenovo\AppData\Local\Temp\cci3TShy.s 			page 14


 205:Middlewares/Third_Party/FreeRTOS/Source/CMSIS_RTOS/cmsis_os.c ****   
 206:Middlewares/Third_Party/FreeRTOS/Source/CMSIS_RTOS/cmsis_os.c **** #if( configSUPPORT_STATIC_ALLOCATION == 1 ) &&  ( configSUPPORT_DYNAMIC_ALLOCATION == 1 )
 207:Middlewares/Third_Party/FreeRTOS/Source/CMSIS_RTOS/cmsis_os.c ****   if((thread_def->buffer != NULL) && (thread_def->controlblock != NULL)) {
 269              		.loc 1 207 3 view .LVU52
 270              		.loc 1 207 17 is_stmt 0 view .LVU53
 271 000a 4569     		ldr	r5, [r0, #20]
 272              		.loc 1 207 5 view .LVU54
 273 000c BDB1     		cbz	r5, .L20
 274              		.loc 1 207 49 discriminator 1 view .LVU55
 275 000e 8669     		ldr	r6, [r0, #24]
 276              		.loc 1 207 35 discriminator 1 view .LVU56
 277 0010 AEB1     		cbz	r6, .L20
 208:Middlewares/Third_Party/FreeRTOS/Source/CMSIS_RTOS/cmsis_os.c ****     handle = xTaskCreateStatic((TaskFunction_t)thread_def->pthread,(const portCHAR *)thread_def->na
 278              		.loc 1 208 5 is_stmt 1 view .LVU57
 279              		.loc 1 208 58 is_stmt 0 view .LVU58
 280 0012 D0F80480 		ldr	r8, [r0, #4]
 281              		.loc 1 208 96 view .LVU59
 282 0016 D0F80090 		ldr	r9, [r0]
 283              		.loc 1 208 14 view .LVU60
 284 001a B0F90800 		ldrsh	r0, [r0, #8]
 285              	.LVL16:
 286              		.loc 1 208 14 view .LVU61
 287 001e FFF7FEFF 		bl	makeFreeRtosPriority
 288              	.LVL17:
 289              		.loc 1 208 14 view .LVU62
 290 0022 0296     		str	r6, [sp, #8]
 291 0024 0195     		str	r5, [sp, #4]
 292 0026 0090     		str	r0, [sp]
 293 0028 3B46     		mov	r3, r7
 294 002a 2269     		ldr	r2, [r4, #16]
 295 002c 4946     		mov	r1, r9
 296 002e 4046     		mov	r0, r8
 297 0030 FFF7FEFF 		bl	xTaskCreateStatic
 298              	.LVL18:
 299              		.loc 1 208 12 view .LVU63
 300 0034 0590     		str	r0, [sp, #20]
 301              	.L21:
 209:Middlewares/Third_Party/FreeRTOS/Source/CMSIS_RTOS/cmsis_os.c ****               thread_def->stacksize, argument, makeFreeRtosPriority(thread_def->tpriority),
 210:Middlewares/Third_Party/FreeRTOS/Source/CMSIS_RTOS/cmsis_os.c ****               thread_def->buffer, thread_def->controlblock);
 211:Middlewares/Third_Party/FreeRTOS/Source/CMSIS_RTOS/cmsis_os.c ****   }
 212:Middlewares/Third_Party/FreeRTOS/Source/CMSIS_RTOS/cmsis_os.c ****   else {
 213:Middlewares/Third_Party/FreeRTOS/Source/CMSIS_RTOS/cmsis_os.c ****     if (xTaskCreate((TaskFunction_t)thread_def->pthread,(const portCHAR *)thread_def->name,
 214:Middlewares/Third_Party/FreeRTOS/Source/CMSIS_RTOS/cmsis_os.c ****               thread_def->stacksize, argument, makeFreeRtosPriority(thread_def->tpriority),
 215:Middlewares/Third_Party/FreeRTOS/Source/CMSIS_RTOS/cmsis_os.c ****               &handle) != pdPASS)  {
 216:Middlewares/Third_Party/FreeRTOS/Source/CMSIS_RTOS/cmsis_os.c ****       return NULL;
 217:Middlewares/Third_Party/FreeRTOS/Source/CMSIS_RTOS/cmsis_os.c ****     } 
 218:Middlewares/Third_Party/FreeRTOS/Source/CMSIS_RTOS/cmsis_os.c ****   }
 219:Middlewares/Third_Party/FreeRTOS/Source/CMSIS_RTOS/cmsis_os.c **** #elif( configSUPPORT_STATIC_ALLOCATION == 1 )
 220:Middlewares/Third_Party/FreeRTOS/Source/CMSIS_RTOS/cmsis_os.c **** 
 221:Middlewares/Third_Party/FreeRTOS/Source/CMSIS_RTOS/cmsis_os.c ****     handle = xTaskCreateStatic((TaskFunction_t)thread_def->pthread,(const portCHAR *)thread_def->na
 222:Middlewares/Third_Party/FreeRTOS/Source/CMSIS_RTOS/cmsis_os.c ****               thread_def->stacksize, argument, makeFreeRtosPriority(thread_def->tpriority),
 223:Middlewares/Third_Party/FreeRTOS/Source/CMSIS_RTOS/cmsis_os.c ****               thread_def->buffer, thread_def->controlblock);
 224:Middlewares/Third_Party/FreeRTOS/Source/CMSIS_RTOS/cmsis_os.c **** #else
 225:Middlewares/Third_Party/FreeRTOS/Source/CMSIS_RTOS/cmsis_os.c ****   if (xTaskCreate((TaskFunction_t)thread_def->pthread,(const portCHAR *)thread_def->name,
 226:Middlewares/Third_Party/FreeRTOS/Source/CMSIS_RTOS/cmsis_os.c ****                    thread_def->stacksize, argument, makeFreeRtosPriority(thread_def->tpriority),
 227:Middlewares/Third_Party/FreeRTOS/Source/CMSIS_RTOS/cmsis_os.c ****                    &handle) != pdPASS)  {
 228:Middlewares/Third_Party/FreeRTOS/Source/CMSIS_RTOS/cmsis_os.c ****     return NULL;
ARM GAS  C:\Users\Lenovo\AppData\Local\Temp\cci3TShy.s 			page 15


 229:Middlewares/Third_Party/FreeRTOS/Source/CMSIS_RTOS/cmsis_os.c ****   }     
 230:Middlewares/Third_Party/FreeRTOS/Source/CMSIS_RTOS/cmsis_os.c **** #endif
 231:Middlewares/Third_Party/FreeRTOS/Source/CMSIS_RTOS/cmsis_os.c ****   
 232:Middlewares/Third_Party/FreeRTOS/Source/CMSIS_RTOS/cmsis_os.c ****   return handle;
 302              		.loc 1 232 3 is_stmt 1 view .LVU64
 303              		.loc 1 232 10 is_stmt 0 view .LVU65
 304 0036 0598     		ldr	r0, [sp, #20]
 305              	.L19:
 233:Middlewares/Third_Party/FreeRTOS/Source/CMSIS_RTOS/cmsis_os.c **** }
 306              		.loc 1 233 1 view .LVU66
 307 0038 07B0     		add	sp, sp, #28
 308              	.LCFI5:
 309              		.cfi_remember_state
 310              		.cfi_def_cfa_offset 28
 311              		@ sp needed
 312 003a BDE8F083 		pop	{r4, r5, r6, r7, r8, r9, pc}
 313              	.LVL19:
 314              	.L20:
 315              	.LCFI6:
 316              		.cfi_restore_state
 213:Middlewares/Third_Party/FreeRTOS/Source/CMSIS_RTOS/cmsis_os.c ****               thread_def->stacksize, argument, makeFreeRtosPriority(thread_def->tpriority),
 317              		.loc 1 213 5 is_stmt 1 view .LVU67
 213:Middlewares/Third_Party/FreeRTOS/Source/CMSIS_RTOS/cmsis_os.c ****               thread_def->stacksize, argument, makeFreeRtosPriority(thread_def->tpriority),
 318              		.loc 1 213 47 is_stmt 0 view .LVU68
 319 003e 6568     		ldr	r5, [r4, #4]
 213:Middlewares/Third_Party/FreeRTOS/Source/CMSIS_RTOS/cmsis_os.c ****               thread_def->stacksize, argument, makeFreeRtosPriority(thread_def->tpriority),
 320              		.loc 1 213 85 view .LVU69
 321 0040 2668     		ldr	r6, [r4]
 214:Middlewares/Third_Party/FreeRTOS/Source/CMSIS_RTOS/cmsis_os.c ****               &handle) != pdPASS)  {
 322              		.loc 1 214 25 view .LVU70
 323 0042 D4F81080 		ldr	r8, [r4, #16]
 213:Middlewares/Third_Party/FreeRTOS/Source/CMSIS_RTOS/cmsis_os.c ****               thread_def->stacksize, argument, makeFreeRtosPriority(thread_def->tpriority),
 324              		.loc 1 213 9 view .LVU71
 325 0046 B4F90800 		ldrsh	r0, [r4, #8]
 326              	.LVL20:
 213:Middlewares/Third_Party/FreeRTOS/Source/CMSIS_RTOS/cmsis_os.c ****               thread_def->stacksize, argument, makeFreeRtosPriority(thread_def->tpriority),
 327              		.loc 1 213 9 view .LVU72
 328 004a FFF7FEFF 		bl	makeFreeRtosPriority
 329              	.LVL21:
 213:Middlewares/Third_Party/FreeRTOS/Source/CMSIS_RTOS/cmsis_os.c ****               thread_def->stacksize, argument, makeFreeRtosPriority(thread_def->tpriority),
 330              		.loc 1 213 9 view .LVU73
 331 004e 05AB     		add	r3, sp, #20
 332 0050 0193     		str	r3, [sp, #4]
 333 0052 0090     		str	r0, [sp]
 334 0054 3B46     		mov	r3, r7
 335 0056 1FFA88F2 		uxth	r2, r8
 336 005a 3146     		mov	r1, r6
 337 005c 2846     		mov	r0, r5
 338 005e FFF7FEFF 		bl	xTaskCreate
 339              	.LVL22:
 213:Middlewares/Third_Party/FreeRTOS/Source/CMSIS_RTOS/cmsis_os.c ****               thread_def->stacksize, argument, makeFreeRtosPriority(thread_def->tpriority),
 340              		.loc 1 213 8 view .LVU74
 341 0062 0128     		cmp	r0, #1
 342 0064 E7D0     		beq	.L21
 216:Middlewares/Third_Party/FreeRTOS/Source/CMSIS_RTOS/cmsis_os.c ****     } 
 343              		.loc 1 216 14 view .LVU75
 344 0066 0020     		movs	r0, #0
ARM GAS  C:\Users\Lenovo\AppData\Local\Temp\cci3TShy.s 			page 16


 345 0068 E6E7     		b	.L19
 346              		.cfi_endproc
 347              	.LFE115:
 349              		.section	.text.osThreadGetId,"ax",%progbits
 350              		.align	1
 351              		.global	osThreadGetId
 352              		.syntax unified
 353              		.thumb
 354              		.thumb_func
 356              	osThreadGetId:
 357              	.LFB116:
 234:Middlewares/Third_Party/FreeRTOS/Source/CMSIS_RTOS/cmsis_os.c **** 
 235:Middlewares/Third_Party/FreeRTOS/Source/CMSIS_RTOS/cmsis_os.c **** /**
 236:Middlewares/Third_Party/FreeRTOS/Source/CMSIS_RTOS/cmsis_os.c **** * @brief  Return the thread ID of the current running thread.
 237:Middlewares/Third_Party/FreeRTOS/Source/CMSIS_RTOS/cmsis_os.c **** * @retval thread ID for reference by other functions or NULL in case of error.
 238:Middlewares/Third_Party/FreeRTOS/Source/CMSIS_RTOS/cmsis_os.c **** * @note   MUST REMAIN UNCHANGED: \b osThreadGetId shall be consistent in every CMSIS-RTOS.
 239:Middlewares/Third_Party/FreeRTOS/Source/CMSIS_RTOS/cmsis_os.c **** */
 240:Middlewares/Third_Party/FreeRTOS/Source/CMSIS_RTOS/cmsis_os.c **** osThreadId osThreadGetId (void)
 241:Middlewares/Third_Party/FreeRTOS/Source/CMSIS_RTOS/cmsis_os.c **** {
 358              		.loc 1 241 1 is_stmt 1 view -0
 359              		.cfi_startproc
 360              		@ args = 0, pretend = 0, frame = 0
 361              		@ frame_needed = 0, uses_anonymous_args = 0
 362 0000 08B5     		push	{r3, lr}
 363              	.LCFI7:
 364              		.cfi_def_cfa_offset 8
 365              		.cfi_offset 3, -8
 366              		.cfi_offset 14, -4
 242:Middlewares/Third_Party/FreeRTOS/Source/CMSIS_RTOS/cmsis_os.c **** #if ( ( INCLUDE_xTaskGetCurrentTaskHandle == 1 ) || ( configUSE_MUTEXES == 1 ) )
 243:Middlewares/Third_Party/FreeRTOS/Source/CMSIS_RTOS/cmsis_os.c ****   return xTaskGetCurrentTaskHandle();
 367              		.loc 1 243 3 view .LVU77
 368              		.loc 1 243 10 is_stmt 0 view .LVU78
 369 0002 FFF7FEFF 		bl	xTaskGetCurrentTaskHandle
 370              	.LVL23:
 244:Middlewares/Third_Party/FreeRTOS/Source/CMSIS_RTOS/cmsis_os.c **** #else
 245:Middlewares/Third_Party/FreeRTOS/Source/CMSIS_RTOS/cmsis_os.c **** 	return NULL;
 246:Middlewares/Third_Party/FreeRTOS/Source/CMSIS_RTOS/cmsis_os.c **** #endif
 247:Middlewares/Third_Party/FreeRTOS/Source/CMSIS_RTOS/cmsis_os.c **** }
 371              		.loc 1 247 1 view .LVU79
 372 0006 08BD     		pop	{r3, pc}
 373              		.cfi_endproc
 374              	.LFE116:
 376              		.section	.text.osThreadTerminate,"ax",%progbits
 377              		.align	1
 378              		.global	osThreadTerminate
 379              		.syntax unified
 380              		.thumb
 381              		.thumb_func
 383              	osThreadTerminate:
 384              	.LVL24:
 385              	.LFB117:
 248:Middlewares/Third_Party/FreeRTOS/Source/CMSIS_RTOS/cmsis_os.c **** 
 249:Middlewares/Third_Party/FreeRTOS/Source/CMSIS_RTOS/cmsis_os.c **** /**
 250:Middlewares/Third_Party/FreeRTOS/Source/CMSIS_RTOS/cmsis_os.c **** * @brief  Terminate execution of a thread and remove it from Active Threads.
 251:Middlewares/Third_Party/FreeRTOS/Source/CMSIS_RTOS/cmsis_os.c **** * @param   thread_id   thread ID obtained by \ref osThreadCreate or \ref osThreadGetId.
 252:Middlewares/Third_Party/FreeRTOS/Source/CMSIS_RTOS/cmsis_os.c **** * @retval  status code that indicates the execution status of the function.
 253:Middlewares/Third_Party/FreeRTOS/Source/CMSIS_RTOS/cmsis_os.c **** * @note   MUST REMAIN UNCHANGED: \b osThreadTerminate shall be consistent in every CMSIS-RTOS.
ARM GAS  C:\Users\Lenovo\AppData\Local\Temp\cci3TShy.s 			page 17


 254:Middlewares/Third_Party/FreeRTOS/Source/CMSIS_RTOS/cmsis_os.c **** */
 255:Middlewares/Third_Party/FreeRTOS/Source/CMSIS_RTOS/cmsis_os.c **** osStatus osThreadTerminate (osThreadId thread_id)
 256:Middlewares/Third_Party/FreeRTOS/Source/CMSIS_RTOS/cmsis_os.c **** {
 386              		.loc 1 256 1 is_stmt 1 view -0
 387              		.cfi_startproc
 388              		@ args = 0, pretend = 0, frame = 0
 389              		@ frame_needed = 0, uses_anonymous_args = 0
 390              		.loc 1 256 1 is_stmt 0 view .LVU81
 391 0000 08B5     		push	{r3, lr}
 392              	.LCFI8:
 393              		.cfi_def_cfa_offset 8
 394              		.cfi_offset 3, -8
 395              		.cfi_offset 14, -4
 257:Middlewares/Third_Party/FreeRTOS/Source/CMSIS_RTOS/cmsis_os.c **** #if (INCLUDE_vTaskDelete == 1)
 258:Middlewares/Third_Party/FreeRTOS/Source/CMSIS_RTOS/cmsis_os.c ****   vTaskDelete(thread_id);
 396              		.loc 1 258 3 is_stmt 1 view .LVU82
 397 0002 FFF7FEFF 		bl	vTaskDelete
 398              	.LVL25:
 259:Middlewares/Third_Party/FreeRTOS/Source/CMSIS_RTOS/cmsis_os.c ****   return osOK;
 399              		.loc 1 259 3 view .LVU83
 260:Middlewares/Third_Party/FreeRTOS/Source/CMSIS_RTOS/cmsis_os.c **** #else
 261:Middlewares/Third_Party/FreeRTOS/Source/CMSIS_RTOS/cmsis_os.c ****   return osErrorOS;
 262:Middlewares/Third_Party/FreeRTOS/Source/CMSIS_RTOS/cmsis_os.c **** #endif
 263:Middlewares/Third_Party/FreeRTOS/Source/CMSIS_RTOS/cmsis_os.c **** }
 400              		.loc 1 263 1 is_stmt 0 view .LVU84
 401 0006 0020     		movs	r0, #0
 402 0008 08BD     		pop	{r3, pc}
 403              		.cfi_endproc
 404              	.LFE117:
 406              		.section	.text.osThreadYield,"ax",%progbits
 407              		.align	1
 408              		.global	osThreadYield
 409              		.syntax unified
 410              		.thumb
 411              		.thumb_func
 413              	osThreadYield:
 414              	.LFB118:
 264:Middlewares/Third_Party/FreeRTOS/Source/CMSIS_RTOS/cmsis_os.c **** 
 265:Middlewares/Third_Party/FreeRTOS/Source/CMSIS_RTOS/cmsis_os.c **** /**
 266:Middlewares/Third_Party/FreeRTOS/Source/CMSIS_RTOS/cmsis_os.c **** * @brief  Pass control to next thread that is in state \b READY.
 267:Middlewares/Third_Party/FreeRTOS/Source/CMSIS_RTOS/cmsis_os.c **** * @retval status code that indicates the execution status of the function.
 268:Middlewares/Third_Party/FreeRTOS/Source/CMSIS_RTOS/cmsis_os.c **** * @note   MUST REMAIN UNCHANGED: \b osThreadYield shall be consistent in every CMSIS-RTOS.
 269:Middlewares/Third_Party/FreeRTOS/Source/CMSIS_RTOS/cmsis_os.c **** */
 270:Middlewares/Third_Party/FreeRTOS/Source/CMSIS_RTOS/cmsis_os.c **** osStatus osThreadYield (void)
 271:Middlewares/Third_Party/FreeRTOS/Source/CMSIS_RTOS/cmsis_os.c **** {
 415              		.loc 1 271 1 is_stmt 1 view -0
 416              		.cfi_startproc
 417              		@ args = 0, pretend = 0, frame = 0
 418              		@ frame_needed = 0, uses_anonymous_args = 0
 419              		@ link register save eliminated.
 272:Middlewares/Third_Party/FreeRTOS/Source/CMSIS_RTOS/cmsis_os.c ****   taskYIELD();
 420              		.loc 1 272 3 view .LVU86
 421 0000 4FF0E023 		mov	r3, #-536813568
 422 0004 4FF08052 		mov	r2, #268435456
 423 0008 C3F8042D 		str	r2, [r3, #3332]
 424              		.loc 1 272 3 view .LVU87
 425              		.syntax unified
ARM GAS  C:\Users\Lenovo\AppData\Local\Temp\cci3TShy.s 			page 18


 426              	@ 272 "Middlewares/Third_Party/FreeRTOS/Source/CMSIS_RTOS/cmsis_os.c" 1
 427 000c BFF34F8F 		dsb
 428              	@ 0 "" 2
 429              		.loc 1 272 3 view .LVU88
 430              	@ 272 "Middlewares/Third_Party/FreeRTOS/Source/CMSIS_RTOS/cmsis_os.c" 1
 431 0010 BFF36F8F 		isb
 432              	@ 0 "" 2
 433              		.loc 1 272 14 view .LVU89
 273:Middlewares/Third_Party/FreeRTOS/Source/CMSIS_RTOS/cmsis_os.c ****   
 274:Middlewares/Third_Party/FreeRTOS/Source/CMSIS_RTOS/cmsis_os.c ****   return osOK;
 434              		.loc 1 274 3 view .LVU90
 275:Middlewares/Third_Party/FreeRTOS/Source/CMSIS_RTOS/cmsis_os.c **** }
 435              		.loc 1 275 1 is_stmt 0 view .LVU91
 436              		.thumb
 437              		.syntax unified
 438 0014 0020     		movs	r0, #0
 439 0016 7047     		bx	lr
 440              		.cfi_endproc
 441              	.LFE118:
 443              		.section	.text.osThreadSetPriority,"ax",%progbits
 444              		.align	1
 445              		.global	osThreadSetPriority
 446              		.syntax unified
 447              		.thumb
 448              		.thumb_func
 450              	osThreadSetPriority:
 451              	.LVL26:
 452              	.LFB119:
 276:Middlewares/Third_Party/FreeRTOS/Source/CMSIS_RTOS/cmsis_os.c **** 
 277:Middlewares/Third_Party/FreeRTOS/Source/CMSIS_RTOS/cmsis_os.c **** /**
 278:Middlewares/Third_Party/FreeRTOS/Source/CMSIS_RTOS/cmsis_os.c **** * @brief   Change priority of an active thread.
 279:Middlewares/Third_Party/FreeRTOS/Source/CMSIS_RTOS/cmsis_os.c **** * @param   thread_id     thread ID obtained by \ref osThreadCreate or \ref osThreadGetId.
 280:Middlewares/Third_Party/FreeRTOS/Source/CMSIS_RTOS/cmsis_os.c **** * @param   priority      new priority value for the thread function.
 281:Middlewares/Third_Party/FreeRTOS/Source/CMSIS_RTOS/cmsis_os.c **** * @retval  status code that indicates the execution status of the function.
 282:Middlewares/Third_Party/FreeRTOS/Source/CMSIS_RTOS/cmsis_os.c **** * @note   MUST REMAIN UNCHANGED: \b osThreadSetPriority shall be consistent in every CMSIS-RTOS.
 283:Middlewares/Third_Party/FreeRTOS/Source/CMSIS_RTOS/cmsis_os.c **** */
 284:Middlewares/Third_Party/FreeRTOS/Source/CMSIS_RTOS/cmsis_os.c **** osStatus osThreadSetPriority (osThreadId thread_id, osPriority priority)
 285:Middlewares/Third_Party/FreeRTOS/Source/CMSIS_RTOS/cmsis_os.c **** {
 453              		.loc 1 285 1 is_stmt 1 view -0
 454              		.cfi_startproc
 455              		@ args = 0, pretend = 0, frame = 0
 456              		@ frame_needed = 0, uses_anonymous_args = 0
 457              		.loc 1 285 1 is_stmt 0 view .LVU93
 458 0000 10B5     		push	{r4, lr}
 459              	.LCFI9:
 460              		.cfi_def_cfa_offset 8
 461              		.cfi_offset 4, -8
 462              		.cfi_offset 14, -4
 463 0002 0446     		mov	r4, r0
 286:Middlewares/Third_Party/FreeRTOS/Source/CMSIS_RTOS/cmsis_os.c **** #if (INCLUDE_vTaskPrioritySet == 1)
 287:Middlewares/Third_Party/FreeRTOS/Source/CMSIS_RTOS/cmsis_os.c ****   vTaskPrioritySet(thread_id, makeFreeRtosPriority(priority));
 464              		.loc 1 287 3 is_stmt 1 view .LVU94
 465 0004 0846     		mov	r0, r1
 466              	.LVL27:
 467              		.loc 1 287 3 is_stmt 0 view .LVU95
 468 0006 FFF7FEFF 		bl	makeFreeRtosPriority
 469              	.LVL28:
ARM GAS  C:\Users\Lenovo\AppData\Local\Temp\cci3TShy.s 			page 19


 470              		.loc 1 287 3 view .LVU96
 471 000a 0146     		mov	r1, r0
 472 000c 2046     		mov	r0, r4
 473 000e FFF7FEFF 		bl	vTaskPrioritySet
 474              	.LVL29:
 288:Middlewares/Third_Party/FreeRTOS/Source/CMSIS_RTOS/cmsis_os.c ****   return osOK;
 475              		.loc 1 288 3 is_stmt 1 view .LVU97
 289:Middlewares/Third_Party/FreeRTOS/Source/CMSIS_RTOS/cmsis_os.c **** #else
 290:Middlewares/Third_Party/FreeRTOS/Source/CMSIS_RTOS/cmsis_os.c ****   return osErrorOS;
 291:Middlewares/Third_Party/FreeRTOS/Source/CMSIS_RTOS/cmsis_os.c **** #endif
 292:Middlewares/Third_Party/FreeRTOS/Source/CMSIS_RTOS/cmsis_os.c **** }
 476              		.loc 1 292 1 is_stmt 0 view .LVU98
 477 0012 0020     		movs	r0, #0
 478 0014 10BD     		pop	{r4, pc}
 479              		.loc 1 292 1 view .LVU99
 480              		.cfi_endproc
 481              	.LFE119:
 483              		.section	.text.osThreadGetPriority,"ax",%progbits
 484              		.align	1
 485              		.global	osThreadGetPriority
 486              		.syntax unified
 487              		.thumb
 488              		.thumb_func
 490              	osThreadGetPriority:
 491              	.LVL30:
 492              	.LFB120:
 293:Middlewares/Third_Party/FreeRTOS/Source/CMSIS_RTOS/cmsis_os.c **** 
 294:Middlewares/Third_Party/FreeRTOS/Source/CMSIS_RTOS/cmsis_os.c **** /**
 295:Middlewares/Third_Party/FreeRTOS/Source/CMSIS_RTOS/cmsis_os.c **** * @brief   Get current priority of an active thread.
 296:Middlewares/Third_Party/FreeRTOS/Source/CMSIS_RTOS/cmsis_os.c **** * @param   thread_id     thread ID obtained by \ref osThreadCreate or \ref osThreadGetId.
 297:Middlewares/Third_Party/FreeRTOS/Source/CMSIS_RTOS/cmsis_os.c **** * @retval  current priority value of the thread function.
 298:Middlewares/Third_Party/FreeRTOS/Source/CMSIS_RTOS/cmsis_os.c **** * @note   MUST REMAIN UNCHANGED: \b osThreadGetPriority shall be consistent in every CMSIS-RTOS.
 299:Middlewares/Third_Party/FreeRTOS/Source/CMSIS_RTOS/cmsis_os.c **** */
 300:Middlewares/Third_Party/FreeRTOS/Source/CMSIS_RTOS/cmsis_os.c **** osPriority osThreadGetPriority (osThreadId thread_id)
 301:Middlewares/Third_Party/FreeRTOS/Source/CMSIS_RTOS/cmsis_os.c **** {
 493              		.loc 1 301 1 is_stmt 1 view -0
 494              		.cfi_startproc
 495              		@ args = 0, pretend = 0, frame = 0
 496              		@ frame_needed = 0, uses_anonymous_args = 0
 497              		.loc 1 301 1 is_stmt 0 view .LVU101
 498 0000 10B5     		push	{r4, lr}
 499              	.LCFI10:
 500              		.cfi_def_cfa_offset 8
 501              		.cfi_offset 4, -8
 502              		.cfi_offset 14, -4
 503 0002 0446     		mov	r4, r0
 302:Middlewares/Third_Party/FreeRTOS/Source/CMSIS_RTOS/cmsis_os.c **** #if (INCLUDE_uxTaskPriorityGet == 1)
 303:Middlewares/Third_Party/FreeRTOS/Source/CMSIS_RTOS/cmsis_os.c ****   if (inHandlerMode())
 504              		.loc 1 303 3 is_stmt 1 view .LVU102
 505              		.loc 1 303 7 is_stmt 0 view .LVU103
 506 0004 FFF7FEFF 		bl	inHandlerMode
 507              	.LVL31:
 508              		.loc 1 303 6 view .LVU104
 509 0008 28B1     		cbz	r0, .L33
 304:Middlewares/Third_Party/FreeRTOS/Source/CMSIS_RTOS/cmsis_os.c ****   {
 305:Middlewares/Third_Party/FreeRTOS/Source/CMSIS_RTOS/cmsis_os.c ****     return makeCmsisPriority(uxTaskPriorityGetFromISR(thread_id));  
 510              		.loc 1 305 5 is_stmt 1 view .LVU105
ARM GAS  C:\Users\Lenovo\AppData\Local\Temp\cci3TShy.s 			page 20


 511              		.loc 1 305 12 is_stmt 0 view .LVU106
 512 000a 2046     		mov	r0, r4
 513 000c FFF7FEFF 		bl	uxTaskPriorityGetFromISR
 514              	.LVL32:
 515 0010 FFF7FEFF 		bl	makeCmsisPriority
 516              	.LVL33:
 517              	.L34:
 306:Middlewares/Third_Party/FreeRTOS/Source/CMSIS_RTOS/cmsis_os.c ****   }
 307:Middlewares/Third_Party/FreeRTOS/Source/CMSIS_RTOS/cmsis_os.c ****   else
 308:Middlewares/Third_Party/FreeRTOS/Source/CMSIS_RTOS/cmsis_os.c ****   {  
 309:Middlewares/Third_Party/FreeRTOS/Source/CMSIS_RTOS/cmsis_os.c ****     return makeCmsisPriority(uxTaskPriorityGet(thread_id));
 310:Middlewares/Third_Party/FreeRTOS/Source/CMSIS_RTOS/cmsis_os.c ****   }
 311:Middlewares/Third_Party/FreeRTOS/Source/CMSIS_RTOS/cmsis_os.c **** #else
 312:Middlewares/Third_Party/FreeRTOS/Source/CMSIS_RTOS/cmsis_os.c ****   return osPriorityError;
 313:Middlewares/Third_Party/FreeRTOS/Source/CMSIS_RTOS/cmsis_os.c **** #endif
 314:Middlewares/Third_Party/FreeRTOS/Source/CMSIS_RTOS/cmsis_os.c **** }
 518              		.loc 1 314 1 view .LVU107
 519 0014 10BD     		pop	{r4, pc}
 520              	.LVL34:
 521              	.L33:
 309:Middlewares/Third_Party/FreeRTOS/Source/CMSIS_RTOS/cmsis_os.c ****   }
 522              		.loc 1 309 5 is_stmt 1 view .LVU108
 309:Middlewares/Third_Party/FreeRTOS/Source/CMSIS_RTOS/cmsis_os.c ****   }
 523              		.loc 1 309 12 is_stmt 0 view .LVU109
 524 0016 2046     		mov	r0, r4
 525 0018 FFF7FEFF 		bl	uxTaskPriorityGet
 526              	.LVL35:
 527 001c FFF7FEFF 		bl	makeCmsisPriority
 528              	.LVL36:
 529 0020 F8E7     		b	.L34
 530              		.cfi_endproc
 531              	.LFE120:
 533              		.section	.text.osDelay,"ax",%progbits
 534              		.align	1
 535              		.global	osDelay
 536              		.syntax unified
 537              		.thumb
 538              		.thumb_func
 540              	osDelay:
 541              	.LVL37:
 542              	.LFB121:
 315:Middlewares/Third_Party/FreeRTOS/Source/CMSIS_RTOS/cmsis_os.c **** 
 316:Middlewares/Third_Party/FreeRTOS/Source/CMSIS_RTOS/cmsis_os.c **** /*********************** Generic Wait Functions *******************************/
 317:Middlewares/Third_Party/FreeRTOS/Source/CMSIS_RTOS/cmsis_os.c **** /**
 318:Middlewares/Third_Party/FreeRTOS/Source/CMSIS_RTOS/cmsis_os.c **** * @brief   Wait for Timeout (Time Delay)
 319:Middlewares/Third_Party/FreeRTOS/Source/CMSIS_RTOS/cmsis_os.c **** * @param   millisec      time delay value
 320:Middlewares/Third_Party/FreeRTOS/Source/CMSIS_RTOS/cmsis_os.c **** * @retval  status code that indicates the execution status of the function.
 321:Middlewares/Third_Party/FreeRTOS/Source/CMSIS_RTOS/cmsis_os.c **** */
 322:Middlewares/Third_Party/FreeRTOS/Source/CMSIS_RTOS/cmsis_os.c **** osStatus osDelay (uint32_t millisec)
 323:Middlewares/Third_Party/FreeRTOS/Source/CMSIS_RTOS/cmsis_os.c **** {
 543              		.loc 1 323 1 is_stmt 1 view -0
 544              		.cfi_startproc
 545              		@ args = 0, pretend = 0, frame = 0
 546              		@ frame_needed = 0, uses_anonymous_args = 0
 547              		.loc 1 323 1 is_stmt 0 view .LVU111
 548 0000 08B5     		push	{r3, lr}
 549              	.LCFI11:
ARM GAS  C:\Users\Lenovo\AppData\Local\Temp\cci3TShy.s 			page 21


 550              		.cfi_def_cfa_offset 8
 551              		.cfi_offset 3, -8
 552              		.cfi_offset 14, -4
 324:Middlewares/Third_Party/FreeRTOS/Source/CMSIS_RTOS/cmsis_os.c **** #if INCLUDE_vTaskDelay
 325:Middlewares/Third_Party/FreeRTOS/Source/CMSIS_RTOS/cmsis_os.c ****   TickType_t ticks = millisec / portTICK_PERIOD_MS;
 553              		.loc 1 325 3 is_stmt 1 view .LVU112
 554              	.LVL38:
 326:Middlewares/Third_Party/FreeRTOS/Source/CMSIS_RTOS/cmsis_os.c ****   
 327:Middlewares/Third_Party/FreeRTOS/Source/CMSIS_RTOS/cmsis_os.c ****   vTaskDelay(ticks ? ticks : 1);          /* Minimum delay = 1 tick */
 555              		.loc 1 327 3 view .LVU113
 556 0002 00B9     		cbnz	r0, .L37
 557 0004 0120     		movs	r0, #1
 558              	.LVL39:
 559              	.L37:
 560              		.loc 1 327 3 is_stmt 0 discriminator 4 view .LVU114
 561 0006 FFF7FEFF 		bl	vTaskDelay
 562              	.LVL40:
 328:Middlewares/Third_Party/FreeRTOS/Source/CMSIS_RTOS/cmsis_os.c ****   
 329:Middlewares/Third_Party/FreeRTOS/Source/CMSIS_RTOS/cmsis_os.c ****   return osOK;
 563              		.loc 1 329 3 is_stmt 1 discriminator 4 view .LVU115
 330:Middlewares/Third_Party/FreeRTOS/Source/CMSIS_RTOS/cmsis_os.c **** #else
 331:Middlewares/Third_Party/FreeRTOS/Source/CMSIS_RTOS/cmsis_os.c ****   (void) millisec;
 332:Middlewares/Third_Party/FreeRTOS/Source/CMSIS_RTOS/cmsis_os.c ****   
 333:Middlewares/Third_Party/FreeRTOS/Source/CMSIS_RTOS/cmsis_os.c ****   return osErrorResource;
 334:Middlewares/Third_Party/FreeRTOS/Source/CMSIS_RTOS/cmsis_os.c **** #endif
 335:Middlewares/Third_Party/FreeRTOS/Source/CMSIS_RTOS/cmsis_os.c **** }
 564              		.loc 1 335 1 is_stmt 0 discriminator 4 view .LVU116
 565 000a 0020     		movs	r0, #0
 566 000c 08BD     		pop	{r3, pc}
 567              		.cfi_endproc
 568              	.LFE121:
 570              		.section	.rodata.osTimerCreate.str1.4,"aMS",%progbits,1
 571              		.align	2
 572              	.LC0:
 573 0000 00       		.ascii	"\000"
 574              		.section	.text.osTimerCreate,"ax",%progbits
 575              		.align	1
 576              		.global	osTimerCreate
 577              		.syntax unified
 578              		.thumb
 579              		.thumb_func
 581              	osTimerCreate:
 582              	.LVL41:
 583              	.LFB122:
 336:Middlewares/Third_Party/FreeRTOS/Source/CMSIS_RTOS/cmsis_os.c **** 
 337:Middlewares/Third_Party/FreeRTOS/Source/CMSIS_RTOS/cmsis_os.c **** #if (defined (osFeature_Wait)  &&  (osFeature_Wait != 0)) /* Generic Wait available */
 338:Middlewares/Third_Party/FreeRTOS/Source/CMSIS_RTOS/cmsis_os.c **** /**
 339:Middlewares/Third_Party/FreeRTOS/Source/CMSIS_RTOS/cmsis_os.c **** * @brief  Wait for Signal, Message, Mail, or Timeout
 340:Middlewares/Third_Party/FreeRTOS/Source/CMSIS_RTOS/cmsis_os.c **** * @param   millisec  timeout value or 0 in case of no time-out
 341:Middlewares/Third_Party/FreeRTOS/Source/CMSIS_RTOS/cmsis_os.c **** * @retval  event that contains signal, message, or mail information or error code.
 342:Middlewares/Third_Party/FreeRTOS/Source/CMSIS_RTOS/cmsis_os.c **** * @note   MUST REMAIN UNCHANGED: \b osWait shall be consistent in every CMSIS-RTOS.
 343:Middlewares/Third_Party/FreeRTOS/Source/CMSIS_RTOS/cmsis_os.c **** */
 344:Middlewares/Third_Party/FreeRTOS/Source/CMSIS_RTOS/cmsis_os.c **** osEvent osWait (uint32_t millisec);
 345:Middlewares/Third_Party/FreeRTOS/Source/CMSIS_RTOS/cmsis_os.c **** 
 346:Middlewares/Third_Party/FreeRTOS/Source/CMSIS_RTOS/cmsis_os.c **** #endif  /* Generic Wait available */
 347:Middlewares/Third_Party/FreeRTOS/Source/CMSIS_RTOS/cmsis_os.c **** 
 348:Middlewares/Third_Party/FreeRTOS/Source/CMSIS_RTOS/cmsis_os.c **** /***********************  Timer Management Functions ***************************/
ARM GAS  C:\Users\Lenovo\AppData\Local\Temp\cci3TShy.s 			page 22


 349:Middlewares/Third_Party/FreeRTOS/Source/CMSIS_RTOS/cmsis_os.c **** /**
 350:Middlewares/Third_Party/FreeRTOS/Source/CMSIS_RTOS/cmsis_os.c **** * @brief  Create a timer.
 351:Middlewares/Third_Party/FreeRTOS/Source/CMSIS_RTOS/cmsis_os.c **** * @param  timer_def     timer object referenced with \ref osTimer.
 352:Middlewares/Third_Party/FreeRTOS/Source/CMSIS_RTOS/cmsis_os.c **** * @param  type          osTimerOnce for one-shot or osTimerPeriodic for periodic behavior.
 353:Middlewares/Third_Party/FreeRTOS/Source/CMSIS_RTOS/cmsis_os.c **** * @param  argument      argument to the timer call back function.
 354:Middlewares/Third_Party/FreeRTOS/Source/CMSIS_RTOS/cmsis_os.c **** * @retval  timer ID for reference by other functions or NULL in case of error.
 355:Middlewares/Third_Party/FreeRTOS/Source/CMSIS_RTOS/cmsis_os.c **** * @note   MUST REMAIN UNCHANGED: \b osTimerCreate shall be consistent in every CMSIS-RTOS.
 356:Middlewares/Third_Party/FreeRTOS/Source/CMSIS_RTOS/cmsis_os.c **** */
 357:Middlewares/Third_Party/FreeRTOS/Source/CMSIS_RTOS/cmsis_os.c **** osTimerId osTimerCreate (const osTimerDef_t *timer_def, os_timer_type type, void *argument)
 358:Middlewares/Third_Party/FreeRTOS/Source/CMSIS_RTOS/cmsis_os.c **** {
 584              		.loc 1 358 1 is_stmt 1 view -0
 585              		.cfi_startproc
 586              		@ args = 0, pretend = 0, frame = 0
 587              		@ frame_needed = 0, uses_anonymous_args = 0
 588              		.loc 1 358 1 is_stmt 0 view .LVU118
 589 0000 10B5     		push	{r4, lr}
 590              	.LCFI12:
 591              		.cfi_def_cfa_offset 8
 592              		.cfi_offset 4, -8
 593              		.cfi_offset 14, -4
 594 0002 82B0     		sub	sp, sp, #8
 595              	.LCFI13:
 596              		.cfi_def_cfa_offset 16
 597 0004 1346     		mov	r3, r2
 359:Middlewares/Third_Party/FreeRTOS/Source/CMSIS_RTOS/cmsis_os.c **** #if (configUSE_TIMERS == 1)
 360:Middlewares/Third_Party/FreeRTOS/Source/CMSIS_RTOS/cmsis_os.c **** 
 361:Middlewares/Third_Party/FreeRTOS/Source/CMSIS_RTOS/cmsis_os.c **** #if( ( configSUPPORT_STATIC_ALLOCATION == 1 ) && ( configSUPPORT_DYNAMIC_ALLOCATION == 1 ) ) 
 362:Middlewares/Third_Party/FreeRTOS/Source/CMSIS_RTOS/cmsis_os.c ****   if(timer_def->controlblock != NULL) {
 598              		.loc 1 362 3 is_stmt 1 view .LVU119
 599              		.loc 1 362 15 is_stmt 0 view .LVU120
 600 0006 4468     		ldr	r4, [r0, #4]
 601              		.loc 1 362 5 view .LVU121
 602 0008 6CB1     		cbz	r4, .L41
 363:Middlewares/Third_Party/FreeRTOS/Source/CMSIS_RTOS/cmsis_os.c ****     return xTimerCreateStatic((const char *)"",
 603              		.loc 1 363 5 is_stmt 1 view .LVU122
 604              		.loc 1 363 12 is_stmt 0 view .LVU123
 605 000a 0129     		cmp	r1, #1
 606 000c 09D0     		beq	.L48
 607 000e 0022     		movs	r2, #0
 608              	.LVL42:
 609              	.L42:
 364:Middlewares/Third_Party/FreeRTOS/Source/CMSIS_RTOS/cmsis_os.c ****                       1, // period should be filled when starting the Timer using osTimerStart
 365:Middlewares/Third_Party/FreeRTOS/Source/CMSIS_RTOS/cmsis_os.c ****                       (type == osTimerPeriodic) ? pdTRUE : pdFALSE,
 366:Middlewares/Third_Party/FreeRTOS/Source/CMSIS_RTOS/cmsis_os.c ****                       (void *) argument,
 367:Middlewares/Third_Party/FreeRTOS/Source/CMSIS_RTOS/cmsis_os.c ****                       (TimerCallbackFunction_t)timer_def->ptimer,
 610              		.loc 1 367 57 discriminator 4 view .LVU124
 611 0010 0168     		ldr	r1, [r0]
 612              	.LVL43:
 363:Middlewares/Third_Party/FreeRTOS/Source/CMSIS_RTOS/cmsis_os.c ****     return xTimerCreateStatic((const char *)"",
 613              		.loc 1 363 12 discriminator 4 view .LVU125
 614 0012 0194     		str	r4, [sp, #4]
 615 0014 0091     		str	r1, [sp]
 616 0016 0121     		movs	r1, #1
 617 0018 0948     		ldr	r0, .L50
 618              	.LVL44:
 363:Middlewares/Third_Party/FreeRTOS/Source/CMSIS_RTOS/cmsis_os.c ****     return xTimerCreateStatic((const char *)"",
 619              		.loc 1 363 12 discriminator 4 view .LVU126
ARM GAS  C:\Users\Lenovo\AppData\Local\Temp\cci3TShy.s 			page 23


 620 001a FFF7FEFF 		bl	xTimerCreateStatic
 621              	.LVL45:
 622              	.L40:
 368:Middlewares/Third_Party/FreeRTOS/Source/CMSIS_RTOS/cmsis_os.c ****                       (StaticTimer_t *)timer_def->controlblock);
 369:Middlewares/Third_Party/FreeRTOS/Source/CMSIS_RTOS/cmsis_os.c ****   }
 370:Middlewares/Third_Party/FreeRTOS/Source/CMSIS_RTOS/cmsis_os.c ****   else {
 371:Middlewares/Third_Party/FreeRTOS/Source/CMSIS_RTOS/cmsis_os.c ****     return xTimerCreate((const char *)"",
 372:Middlewares/Third_Party/FreeRTOS/Source/CMSIS_RTOS/cmsis_os.c ****                       1, // period should be filled when starting the Timer using osTimerStart
 373:Middlewares/Third_Party/FreeRTOS/Source/CMSIS_RTOS/cmsis_os.c ****                       (type == osTimerPeriodic) ? pdTRUE : pdFALSE,
 374:Middlewares/Third_Party/FreeRTOS/Source/CMSIS_RTOS/cmsis_os.c ****                       (void *) argument,
 375:Middlewares/Third_Party/FreeRTOS/Source/CMSIS_RTOS/cmsis_os.c ****                       (TimerCallbackFunction_t)timer_def->ptimer);
 376:Middlewares/Third_Party/FreeRTOS/Source/CMSIS_RTOS/cmsis_os.c ****  }
 377:Middlewares/Third_Party/FreeRTOS/Source/CMSIS_RTOS/cmsis_os.c **** #elif( configSUPPORT_STATIC_ALLOCATION == 1 )
 378:Middlewares/Third_Party/FreeRTOS/Source/CMSIS_RTOS/cmsis_os.c ****   return xTimerCreateStatic((const char *)"",
 379:Middlewares/Third_Party/FreeRTOS/Source/CMSIS_RTOS/cmsis_os.c ****                       1, // period should be filled when starting the Timer using osTimerStart
 380:Middlewares/Third_Party/FreeRTOS/Source/CMSIS_RTOS/cmsis_os.c ****                       (type == osTimerPeriodic) ? pdTRUE : pdFALSE,
 381:Middlewares/Third_Party/FreeRTOS/Source/CMSIS_RTOS/cmsis_os.c ****                       (void *) argument,
 382:Middlewares/Third_Party/FreeRTOS/Source/CMSIS_RTOS/cmsis_os.c ****                       (TimerCallbackFunction_t)timer_def->ptimer,
 383:Middlewares/Third_Party/FreeRTOS/Source/CMSIS_RTOS/cmsis_os.c ****                       (StaticTimer_t *)timer_def->controlblock);  
 384:Middlewares/Third_Party/FreeRTOS/Source/CMSIS_RTOS/cmsis_os.c **** #else
 385:Middlewares/Third_Party/FreeRTOS/Source/CMSIS_RTOS/cmsis_os.c ****   return xTimerCreate((const char *)"",
 386:Middlewares/Third_Party/FreeRTOS/Source/CMSIS_RTOS/cmsis_os.c ****                       1, // period should be filled when starting the Timer using osTimerStart
 387:Middlewares/Third_Party/FreeRTOS/Source/CMSIS_RTOS/cmsis_os.c ****                       (type == osTimerPeriodic) ? pdTRUE : pdFALSE,
 388:Middlewares/Third_Party/FreeRTOS/Source/CMSIS_RTOS/cmsis_os.c ****                       (void *) argument,
 389:Middlewares/Third_Party/FreeRTOS/Source/CMSIS_RTOS/cmsis_os.c ****                       (TimerCallbackFunction_t)timer_def->ptimer);
 390:Middlewares/Third_Party/FreeRTOS/Source/CMSIS_RTOS/cmsis_os.c **** #endif
 391:Middlewares/Third_Party/FreeRTOS/Source/CMSIS_RTOS/cmsis_os.c **** 
 392:Middlewares/Third_Party/FreeRTOS/Source/CMSIS_RTOS/cmsis_os.c **** #else 
 393:Middlewares/Third_Party/FreeRTOS/Source/CMSIS_RTOS/cmsis_os.c **** 	return NULL;
 394:Middlewares/Third_Party/FreeRTOS/Source/CMSIS_RTOS/cmsis_os.c **** #endif
 395:Middlewares/Third_Party/FreeRTOS/Source/CMSIS_RTOS/cmsis_os.c **** }
 623              		.loc 1 395 1 view .LVU127
 624 001e 02B0     		add	sp, sp, #8
 625              	.LCFI14:
 626              		.cfi_remember_state
 627              		.cfi_def_cfa_offset 8
 628              		@ sp needed
 629 0020 10BD     		pop	{r4, pc}
 630              	.LVL46:
 631              	.L48:
 632              	.LCFI15:
 633              		.cfi_restore_state
 363:Middlewares/Third_Party/FreeRTOS/Source/CMSIS_RTOS/cmsis_os.c ****                       1, // period should be filled when starting the Timer using osTimerStart
 634              		.loc 1 363 12 view .LVU128
 635 0022 0122     		movs	r2, #1
 636              	.LVL47:
 363:Middlewares/Third_Party/FreeRTOS/Source/CMSIS_RTOS/cmsis_os.c ****                       1, // period should be filled when starting the Timer using osTimerStart
 637              		.loc 1 363 12 view .LVU129
 638 0024 F4E7     		b	.L42
 639              	.LVL48:
 640              	.L41:
 371:Middlewares/Third_Party/FreeRTOS/Source/CMSIS_RTOS/cmsis_os.c ****                       1, // period should be filled when starting the Timer using osTimerStart
 641              		.loc 1 371 5 is_stmt 1 view .LVU130
 371:Middlewares/Third_Party/FreeRTOS/Source/CMSIS_RTOS/cmsis_os.c ****                       1, // period should be filled when starting the Timer using osTimerStart
 642              		.loc 1 371 12 is_stmt 0 view .LVU131
 643 0026 0129     		cmp	r1, #1
 644 0028 07D0     		beq	.L49
ARM GAS  C:\Users\Lenovo\AppData\Local\Temp\cci3TShy.s 			page 24


 645 002a 0022     		movs	r2, #0
 646              	.LVL49:
 647              	.L44:
 375:Middlewares/Third_Party/FreeRTOS/Source/CMSIS_RTOS/cmsis_os.c ****  }
 648              		.loc 1 375 57 discriminator 4 view .LVU132
 649 002c 0168     		ldr	r1, [r0]
 650              	.LVL50:
 371:Middlewares/Third_Party/FreeRTOS/Source/CMSIS_RTOS/cmsis_os.c ****                       1, // period should be filled when starting the Timer using osTimerStart
 651              		.loc 1 371 12 discriminator 4 view .LVU133
 652 002e 0091     		str	r1, [sp]
 653 0030 0121     		movs	r1, #1
 654 0032 0348     		ldr	r0, .L50
 655              	.LVL51:
 371:Middlewares/Third_Party/FreeRTOS/Source/CMSIS_RTOS/cmsis_os.c ****                       1, // period should be filled when starting the Timer using osTimerStart
 656              		.loc 1 371 12 discriminator 4 view .LVU134
 657 0034 FFF7FEFF 		bl	xTimerCreate
 658              	.LVL52:
 371:Middlewares/Third_Party/FreeRTOS/Source/CMSIS_RTOS/cmsis_os.c ****                       1, // period should be filled when starting the Timer using osTimerStart
 659              		.loc 1 371 12 discriminator 4 view .LVU135
 660 0038 F1E7     		b	.L40
 661              	.LVL53:
 662              	.L49:
 371:Middlewares/Third_Party/FreeRTOS/Source/CMSIS_RTOS/cmsis_os.c ****                       1, // period should be filled when starting the Timer using osTimerStart
 663              		.loc 1 371 12 view .LVU136
 664 003a 0122     		movs	r2, #1
 665              	.LVL54:
 371:Middlewares/Third_Party/FreeRTOS/Source/CMSIS_RTOS/cmsis_os.c ****                       1, // period should be filled when starting the Timer using osTimerStart
 666              		.loc 1 371 12 view .LVU137
 667 003c F6E7     		b	.L44
 668              	.L51:
 669 003e 00BF     		.align	2
 670              	.L50:
 671 0040 00000000 		.word	.LC0
 672              		.cfi_endproc
 673              	.LFE122:
 675              		.section	.text.osTimerStart,"ax",%progbits
 676              		.align	1
 677              		.global	osTimerStart
 678              		.syntax unified
 679              		.thumb
 680              		.thumb_func
 682              	osTimerStart:
 683              	.LVL55:
 684              	.LFB123:
 396:Middlewares/Third_Party/FreeRTOS/Source/CMSIS_RTOS/cmsis_os.c **** 
 397:Middlewares/Third_Party/FreeRTOS/Source/CMSIS_RTOS/cmsis_os.c **** /**
 398:Middlewares/Third_Party/FreeRTOS/Source/CMSIS_RTOS/cmsis_os.c **** * @brief  Start or restart a timer.
 399:Middlewares/Third_Party/FreeRTOS/Source/CMSIS_RTOS/cmsis_os.c **** * @param  timer_id      timer ID obtained by \ref osTimerCreate.
 400:Middlewares/Third_Party/FreeRTOS/Source/CMSIS_RTOS/cmsis_os.c **** * @param  millisec      time delay value of the timer.
 401:Middlewares/Third_Party/FreeRTOS/Source/CMSIS_RTOS/cmsis_os.c **** * @retval  status code that indicates the execution status of the function
 402:Middlewares/Third_Party/FreeRTOS/Source/CMSIS_RTOS/cmsis_os.c **** * @note   MUST REMAIN UNCHANGED: \b osTimerStart shall be consistent in every CMSIS-RTOS.
 403:Middlewares/Third_Party/FreeRTOS/Source/CMSIS_RTOS/cmsis_os.c **** */
 404:Middlewares/Third_Party/FreeRTOS/Source/CMSIS_RTOS/cmsis_os.c **** osStatus osTimerStart (osTimerId timer_id, uint32_t millisec)
 405:Middlewares/Third_Party/FreeRTOS/Source/CMSIS_RTOS/cmsis_os.c **** {
 685              		.loc 1 405 1 is_stmt 1 view -0
 686              		.cfi_startproc
 687              		@ args = 0, pretend = 0, frame = 8
ARM GAS  C:\Users\Lenovo\AppData\Local\Temp\cci3TShy.s 			page 25


 688              		@ frame_needed = 0, uses_anonymous_args = 0
 689              		.loc 1 405 1 is_stmt 0 view .LVU139
 690 0000 30B5     		push	{r4, r5, lr}
 691              	.LCFI16:
 692              		.cfi_def_cfa_offset 12
 693              		.cfi_offset 4, -12
 694              		.cfi_offset 5, -8
 695              		.cfi_offset 14, -4
 696 0002 85B0     		sub	sp, sp, #20
 697              	.LCFI17:
 698              		.cfi_def_cfa_offset 32
 699 0004 0446     		mov	r4, r0
 406:Middlewares/Third_Party/FreeRTOS/Source/CMSIS_RTOS/cmsis_os.c ****   osStatus result = osOK;
 700              		.loc 1 406 3 is_stmt 1 view .LVU140
 701              	.LVL56:
 407:Middlewares/Third_Party/FreeRTOS/Source/CMSIS_RTOS/cmsis_os.c **** #if (configUSE_TIMERS == 1)  
 408:Middlewares/Third_Party/FreeRTOS/Source/CMSIS_RTOS/cmsis_os.c ****   portBASE_TYPE taskWoken = pdFALSE;
 702              		.loc 1 408 3 view .LVU141
 703              		.loc 1 408 17 is_stmt 0 view .LVU142
 704 0006 0023     		movs	r3, #0
 705 0008 0393     		str	r3, [sp, #12]
 409:Middlewares/Third_Party/FreeRTOS/Source/CMSIS_RTOS/cmsis_os.c ****   TickType_t ticks = millisec / portTICK_PERIOD_MS;
 706              		.loc 1 409 3 is_stmt 1 view .LVU143
 707              	.LVL57:
 410:Middlewares/Third_Party/FreeRTOS/Source/CMSIS_RTOS/cmsis_os.c **** 
 411:Middlewares/Third_Party/FreeRTOS/Source/CMSIS_RTOS/cmsis_os.c ****   if (ticks == 0)
 708              		.loc 1 411 3 view .LVU144
 709              		.loc 1 411 6 is_stmt 0 view .LVU145
 710 000a 0D46     		mov	r5, r1
 711 000c 01B9     		cbnz	r1, .L53
 412:Middlewares/Third_Party/FreeRTOS/Source/CMSIS_RTOS/cmsis_os.c ****     ticks = 1;
 712              		.loc 1 412 11 view .LVU146
 713 000e 0125     		movs	r5, #1
 714              	.L53:
 715              	.LVL58:
 413:Middlewares/Third_Party/FreeRTOS/Source/CMSIS_RTOS/cmsis_os.c ****     
 414:Middlewares/Third_Party/FreeRTOS/Source/CMSIS_RTOS/cmsis_os.c ****   if (inHandlerMode()) 
 716              		.loc 1 414 3 is_stmt 1 view .LVU147
 717              		.loc 1 414 7 is_stmt 0 view .LVU148
 718 0010 FFF7FEFF 		bl	inHandlerMode
 719              	.LVL59:
 720              		.loc 1 414 6 view .LVU149
 721 0014 D0B1     		cbz	r0, .L54
 415:Middlewares/Third_Party/FreeRTOS/Source/CMSIS_RTOS/cmsis_os.c ****   {
 416:Middlewares/Third_Party/FreeRTOS/Source/CMSIS_RTOS/cmsis_os.c ****     if (xTimerChangePeriodFromISR(timer_id, ticks, &taskWoken) != pdPASS)
 722              		.loc 1 416 5 is_stmt 1 view .LVU150
 723              		.loc 1 416 9 is_stmt 0 view .LVU151
 724 0016 0023     		movs	r3, #0
 725 0018 0093     		str	r3, [sp]
 726 001a 03AB     		add	r3, sp, #12
 727 001c 2A46     		mov	r2, r5
 728 001e 0921     		movs	r1, #9
 729 0020 2046     		mov	r0, r4
 730 0022 FFF7FEFF 		bl	xTimerGenericCommand
 731              	.LVL60:
 732              		.loc 1 416 8 view .LVU152
 733 0026 0128     		cmp	r0, #1
ARM GAS  C:\Users\Lenovo\AppData\Local\Temp\cci3TShy.s 			page 26


 734 0028 02D0     		beq	.L61
 417:Middlewares/Third_Party/FreeRTOS/Source/CMSIS_RTOS/cmsis_os.c ****     {
 418:Middlewares/Third_Party/FreeRTOS/Source/CMSIS_RTOS/cmsis_os.c ****       result = osErrorOS;
 735              		.loc 1 418 14 view .LVU153
 736 002a FF20     		movs	r0, #255
 737              	.LVL61:
 738              	.L52:
 419:Middlewares/Third_Party/FreeRTOS/Source/CMSIS_RTOS/cmsis_os.c ****     }
 420:Middlewares/Third_Party/FreeRTOS/Source/CMSIS_RTOS/cmsis_os.c ****     else
 421:Middlewares/Third_Party/FreeRTOS/Source/CMSIS_RTOS/cmsis_os.c ****     {
 422:Middlewares/Third_Party/FreeRTOS/Source/CMSIS_RTOS/cmsis_os.c ****       portEND_SWITCHING_ISR(taskWoken);     
 423:Middlewares/Third_Party/FreeRTOS/Source/CMSIS_RTOS/cmsis_os.c ****     }
 424:Middlewares/Third_Party/FreeRTOS/Source/CMSIS_RTOS/cmsis_os.c ****   }
 425:Middlewares/Third_Party/FreeRTOS/Source/CMSIS_RTOS/cmsis_os.c ****   else 
 426:Middlewares/Third_Party/FreeRTOS/Source/CMSIS_RTOS/cmsis_os.c ****   {
 427:Middlewares/Third_Party/FreeRTOS/Source/CMSIS_RTOS/cmsis_os.c ****     if (xTimerChangePeriod(timer_id, ticks, 0) != pdPASS)
 428:Middlewares/Third_Party/FreeRTOS/Source/CMSIS_RTOS/cmsis_os.c ****       result = osErrorOS;
 429:Middlewares/Third_Party/FreeRTOS/Source/CMSIS_RTOS/cmsis_os.c ****   }
 430:Middlewares/Third_Party/FreeRTOS/Source/CMSIS_RTOS/cmsis_os.c **** 
 431:Middlewares/Third_Party/FreeRTOS/Source/CMSIS_RTOS/cmsis_os.c **** #else 
 432:Middlewares/Third_Party/FreeRTOS/Source/CMSIS_RTOS/cmsis_os.c ****   result = osErrorOS;
 433:Middlewares/Third_Party/FreeRTOS/Source/CMSIS_RTOS/cmsis_os.c **** #endif
 434:Middlewares/Third_Party/FreeRTOS/Source/CMSIS_RTOS/cmsis_os.c ****   return result;
 435:Middlewares/Third_Party/FreeRTOS/Source/CMSIS_RTOS/cmsis_os.c **** }
 739              		.loc 1 435 1 view .LVU154
 740 002c 05B0     		add	sp, sp, #20
 741              	.LCFI18:
 742              		.cfi_remember_state
 743              		.cfi_def_cfa_offset 12
 744              		@ sp needed
 745 002e 30BD     		pop	{r4, r5, pc}
 746              	.LVL62:
 747              	.L61:
 748              	.LCFI19:
 749              		.cfi_restore_state
 422:Middlewares/Third_Party/FreeRTOS/Source/CMSIS_RTOS/cmsis_os.c ****     }
 750              		.loc 1 422 7 is_stmt 1 view .LVU155
 751 0030 039B     		ldr	r3, [sp, #12]
 752 0032 C3B1     		cbz	r3, .L58
 422:Middlewares/Third_Party/FreeRTOS/Source/CMSIS_RTOS/cmsis_os.c ****     }
 753              		.loc 1 422 7 discriminator 1 view .LVU156
 754 0034 4FF0E023 		mov	r3, #-536813568
 755 0038 4FF08052 		mov	r2, #268435456
 756 003c C3F8042D 		str	r2, [r3, #3332]
 422:Middlewares/Third_Party/FreeRTOS/Source/CMSIS_RTOS/cmsis_os.c ****     }
 757              		.loc 1 422 7 discriminator 1 view .LVU157
 758              		.syntax unified
 759              	@ 422 "Middlewares/Third_Party/FreeRTOS/Source/CMSIS_RTOS/cmsis_os.c" 1
 760 0040 BFF34F8F 		dsb
 761              	@ 0 "" 2
 422:Middlewares/Third_Party/FreeRTOS/Source/CMSIS_RTOS/cmsis_os.c ****     }
 762              		.loc 1 422 7 discriminator 1 view .LVU158
 763              	@ 422 "Middlewares/Third_Party/FreeRTOS/Source/CMSIS_RTOS/cmsis_os.c" 1
 764 0044 BFF36F8F 		isb
 765              	@ 0 "" 2
 406:Middlewares/Third_Party/FreeRTOS/Source/CMSIS_RTOS/cmsis_os.c **** #if (configUSE_TIMERS == 1)  
 766              		.loc 1 406 12 is_stmt 0 discriminator 1 view .LVU159
ARM GAS  C:\Users\Lenovo\AppData\Local\Temp\cci3TShy.s 			page 27


 767              		.thumb
 768              		.syntax unified
 769 0048 0020     		movs	r0, #0
 770 004a EFE7     		b	.L52
 771              	.L54:
 427:Middlewares/Third_Party/FreeRTOS/Source/CMSIS_RTOS/cmsis_os.c ****       result = osErrorOS;
 772              		.loc 1 427 5 is_stmt 1 view .LVU160
 427:Middlewares/Third_Party/FreeRTOS/Source/CMSIS_RTOS/cmsis_os.c ****       result = osErrorOS;
 773              		.loc 1 427 9 is_stmt 0 view .LVU161
 774 004c 0023     		movs	r3, #0
 775 004e 0093     		str	r3, [sp]
 776 0050 2A46     		mov	r2, r5
 777 0052 0421     		movs	r1, #4
 778 0054 2046     		mov	r0, r4
 779 0056 FFF7FEFF 		bl	xTimerGenericCommand
 780              	.LVL63:
 427:Middlewares/Third_Party/FreeRTOS/Source/CMSIS_RTOS/cmsis_os.c ****       result = osErrorOS;
 781              		.loc 1 427 8 view .LVU162
 782 005a 0128     		cmp	r0, #1
 783 005c 01D0     		beq	.L62
 428:Middlewares/Third_Party/FreeRTOS/Source/CMSIS_RTOS/cmsis_os.c ****   }
 784              		.loc 1 428 14 view .LVU163
 785 005e FF20     		movs	r0, #255
 786              	.LVL64:
 434:Middlewares/Third_Party/FreeRTOS/Source/CMSIS_RTOS/cmsis_os.c **** }
 787              		.loc 1 434 3 is_stmt 1 view .LVU164
 434:Middlewares/Third_Party/FreeRTOS/Source/CMSIS_RTOS/cmsis_os.c **** }
 788              		.loc 1 434 10 is_stmt 0 view .LVU165
 789 0060 E4E7     		b	.L52
 790              	.LVL65:
 791              	.L62:
 406:Middlewares/Third_Party/FreeRTOS/Source/CMSIS_RTOS/cmsis_os.c **** #if (configUSE_TIMERS == 1)  
 792              		.loc 1 406 12 view .LVU166
 793 0062 0020     		movs	r0, #0
 794 0064 E2E7     		b	.L52
 795              	.L58:
 406:Middlewares/Third_Party/FreeRTOS/Source/CMSIS_RTOS/cmsis_os.c **** #if (configUSE_TIMERS == 1)  
 796              		.loc 1 406 12 view .LVU167
 797 0066 0020     		movs	r0, #0
 798 0068 E0E7     		b	.L52
 799              		.cfi_endproc
 800              	.LFE123:
 802              		.section	.text.osTimerStop,"ax",%progbits
 803              		.align	1
 804              		.global	osTimerStop
 805              		.syntax unified
 806              		.thumb
 807              		.thumb_func
 809              	osTimerStop:
 810              	.LVL66:
 811              	.LFB124:
 436:Middlewares/Third_Party/FreeRTOS/Source/CMSIS_RTOS/cmsis_os.c **** 
 437:Middlewares/Third_Party/FreeRTOS/Source/CMSIS_RTOS/cmsis_os.c **** /**
 438:Middlewares/Third_Party/FreeRTOS/Source/CMSIS_RTOS/cmsis_os.c **** * @brief  Stop a timer.
 439:Middlewares/Third_Party/FreeRTOS/Source/CMSIS_RTOS/cmsis_os.c **** * @param  timer_id      timer ID obtained by \ref osTimerCreate
 440:Middlewares/Third_Party/FreeRTOS/Source/CMSIS_RTOS/cmsis_os.c **** * @retval  status code that indicates the execution status of the function.
 441:Middlewares/Third_Party/FreeRTOS/Source/CMSIS_RTOS/cmsis_os.c **** * @note   MUST REMAIN UNCHANGED: \b osTimerStop shall be consistent in every CMSIS-RTOS.
ARM GAS  C:\Users\Lenovo\AppData\Local\Temp\cci3TShy.s 			page 28


 442:Middlewares/Third_Party/FreeRTOS/Source/CMSIS_RTOS/cmsis_os.c **** */
 443:Middlewares/Third_Party/FreeRTOS/Source/CMSIS_RTOS/cmsis_os.c **** osStatus osTimerStop (osTimerId timer_id)
 444:Middlewares/Third_Party/FreeRTOS/Source/CMSIS_RTOS/cmsis_os.c **** {
 812              		.loc 1 444 1 is_stmt 1 view -0
 813              		.cfi_startproc
 814              		@ args = 0, pretend = 0, frame = 8
 815              		@ frame_needed = 0, uses_anonymous_args = 0
 816              		.loc 1 444 1 is_stmt 0 view .LVU169
 817 0000 10B5     		push	{r4, lr}
 818              	.LCFI20:
 819              		.cfi_def_cfa_offset 8
 820              		.cfi_offset 4, -8
 821              		.cfi_offset 14, -4
 822 0002 84B0     		sub	sp, sp, #16
 823              	.LCFI21:
 824              		.cfi_def_cfa_offset 24
 825 0004 0446     		mov	r4, r0
 445:Middlewares/Third_Party/FreeRTOS/Source/CMSIS_RTOS/cmsis_os.c ****   osStatus result = osOK;
 826              		.loc 1 445 3 is_stmt 1 view .LVU170
 827              	.LVL67:
 446:Middlewares/Third_Party/FreeRTOS/Source/CMSIS_RTOS/cmsis_os.c **** #if (configUSE_TIMERS == 1)  
 447:Middlewares/Third_Party/FreeRTOS/Source/CMSIS_RTOS/cmsis_os.c ****   portBASE_TYPE taskWoken = pdFALSE;
 828              		.loc 1 447 3 view .LVU171
 829              		.loc 1 447 17 is_stmt 0 view .LVU172
 830 0006 0023     		movs	r3, #0
 831 0008 0393     		str	r3, [sp, #12]
 448:Middlewares/Third_Party/FreeRTOS/Source/CMSIS_RTOS/cmsis_os.c **** 
 449:Middlewares/Third_Party/FreeRTOS/Source/CMSIS_RTOS/cmsis_os.c ****   if (inHandlerMode()) {
 832              		.loc 1 449 3 is_stmt 1 view .LVU173
 833              		.loc 1 449 7 is_stmt 0 view .LVU174
 834 000a FFF7FEFF 		bl	inHandlerMode
 835              	.LVL68:
 836              		.loc 1 449 6 view .LVU175
 837 000e B0B1     		cbz	r0, .L64
 450:Middlewares/Third_Party/FreeRTOS/Source/CMSIS_RTOS/cmsis_os.c ****     if (xTimerStopFromISR(timer_id, &taskWoken) != pdPASS) {
 838              		.loc 1 450 5 is_stmt 1 view .LVU176
 839              		.loc 1 450 9 is_stmt 0 view .LVU177
 840 0010 0022     		movs	r2, #0
 841 0012 0092     		str	r2, [sp]
 842 0014 03AB     		add	r3, sp, #12
 843 0016 0821     		movs	r1, #8
 844 0018 2046     		mov	r0, r4
 845 001a FFF7FEFF 		bl	xTimerGenericCommand
 846              	.LVL69:
 847              		.loc 1 450 8 view .LVU178
 848 001e 0128     		cmp	r0, #1
 849 0020 1BD1     		bne	.L66
 451:Middlewares/Third_Party/FreeRTOS/Source/CMSIS_RTOS/cmsis_os.c ****       return osErrorOS;
 452:Middlewares/Third_Party/FreeRTOS/Source/CMSIS_RTOS/cmsis_os.c ****     }
 453:Middlewares/Third_Party/FreeRTOS/Source/CMSIS_RTOS/cmsis_os.c ****     portEND_SWITCHING_ISR(taskWoken);
 850              		.loc 1 453 5 is_stmt 1 view .LVU179
 851 0022 039B     		ldr	r3, [sp, #12]
 852 0024 DBB1     		cbz	r3, .L67
 853              		.loc 1 453 5 discriminator 1 view .LVU180
 854 0026 4FF0E023 		mov	r3, #-536813568
 855 002a 4FF08052 		mov	r2, #268435456
 856 002e C3F8042D 		str	r2, [r3, #3332]
ARM GAS  C:\Users\Lenovo\AppData\Local\Temp\cci3TShy.s 			page 29


 857              		.loc 1 453 5 discriminator 1 view .LVU181
 858              		.syntax unified
 859              	@ 453 "Middlewares/Third_Party/FreeRTOS/Source/CMSIS_RTOS/cmsis_os.c" 1
 860 0032 BFF34F8F 		dsb
 861              	@ 0 "" 2
 862              		.loc 1 453 5 discriminator 1 view .LVU182
 863              	@ 453 "Middlewares/Third_Party/FreeRTOS/Source/CMSIS_RTOS/cmsis_os.c" 1
 864 0036 BFF36F8F 		isb
 865              	@ 0 "" 2
 445:Middlewares/Third_Party/FreeRTOS/Source/CMSIS_RTOS/cmsis_os.c **** #if (configUSE_TIMERS == 1)  
 866              		.loc 1 445 12 is_stmt 0 discriminator 1 view .LVU183
 867              		.thumb
 868              		.syntax unified
 869 003a 0020     		movs	r0, #0
 870 003c 09E0     		b	.L63
 871              	.L64:
 454:Middlewares/Third_Party/FreeRTOS/Source/CMSIS_RTOS/cmsis_os.c ****   }
 455:Middlewares/Third_Party/FreeRTOS/Source/CMSIS_RTOS/cmsis_os.c ****   else {
 456:Middlewares/Third_Party/FreeRTOS/Source/CMSIS_RTOS/cmsis_os.c ****     if (xTimerStop(timer_id, 0) != pdPASS) {
 872              		.loc 1 456 5 is_stmt 1 view .LVU184
 873              		.loc 1 456 9 is_stmt 0 view .LVU185
 874 003e 0022     		movs	r2, #0
 875 0040 0092     		str	r2, [sp]
 876 0042 1346     		mov	r3, r2
 877 0044 0321     		movs	r1, #3
 878 0046 2046     		mov	r0, r4
 879 0048 FFF7FEFF 		bl	xTimerGenericCommand
 880              	.LVL70:
 881              		.loc 1 456 8 view .LVU186
 882 004c 0128     		cmp	r0, #1
 883 004e 02D0     		beq	.L70
 457:Middlewares/Third_Party/FreeRTOS/Source/CMSIS_RTOS/cmsis_os.c ****       result = osErrorOS;
 884              		.loc 1 457 14 view .LVU187
 885 0050 FF20     		movs	r0, #255
 886              	.LVL71:
 887              	.L63:
 458:Middlewares/Third_Party/FreeRTOS/Source/CMSIS_RTOS/cmsis_os.c ****     }
 459:Middlewares/Third_Party/FreeRTOS/Source/CMSIS_RTOS/cmsis_os.c ****   }
 460:Middlewares/Third_Party/FreeRTOS/Source/CMSIS_RTOS/cmsis_os.c **** #else 
 461:Middlewares/Third_Party/FreeRTOS/Source/CMSIS_RTOS/cmsis_os.c ****   result = osErrorOS;
 462:Middlewares/Third_Party/FreeRTOS/Source/CMSIS_RTOS/cmsis_os.c **** #endif 
 463:Middlewares/Third_Party/FreeRTOS/Source/CMSIS_RTOS/cmsis_os.c ****   return result;
 464:Middlewares/Third_Party/FreeRTOS/Source/CMSIS_RTOS/cmsis_os.c **** }
 888              		.loc 1 464 1 view .LVU188
 889 0052 04B0     		add	sp, sp, #16
 890              	.LCFI22:
 891              		.cfi_remember_state
 892              		.cfi_def_cfa_offset 8
 893              		@ sp needed
 894 0054 10BD     		pop	{r4, pc}
 895              	.LVL72:
 896              	.L70:
 897              	.LCFI23:
 898              		.cfi_restore_state
 445:Middlewares/Third_Party/FreeRTOS/Source/CMSIS_RTOS/cmsis_os.c **** #if (configUSE_TIMERS == 1)  
 899              		.loc 1 445 12 view .LVU189
 900 0056 0020     		movs	r0, #0
ARM GAS  C:\Users\Lenovo\AppData\Local\Temp\cci3TShy.s 			page 30


 901 0058 FBE7     		b	.L63
 902              	.L66:
 451:Middlewares/Third_Party/FreeRTOS/Source/CMSIS_RTOS/cmsis_os.c ****     }
 903              		.loc 1 451 14 view .LVU190
 904 005a FF20     		movs	r0, #255
 905 005c F9E7     		b	.L63
 906              	.L67:
 445:Middlewares/Third_Party/FreeRTOS/Source/CMSIS_RTOS/cmsis_os.c **** #if (configUSE_TIMERS == 1)  
 907              		.loc 1 445 12 view .LVU191
 908 005e 0020     		movs	r0, #0
 909 0060 F7E7     		b	.L63
 910              		.cfi_endproc
 911              	.LFE124:
 913              		.section	.text.osTimerDelete,"ax",%progbits
 914              		.align	1
 915              		.global	osTimerDelete
 916              		.syntax unified
 917              		.thumb
 918              		.thumb_func
 920              	osTimerDelete:
 921              	.LVL73:
 922              	.LFB125:
 465:Middlewares/Third_Party/FreeRTOS/Source/CMSIS_RTOS/cmsis_os.c **** 
 466:Middlewares/Third_Party/FreeRTOS/Source/CMSIS_RTOS/cmsis_os.c **** /**
 467:Middlewares/Third_Party/FreeRTOS/Source/CMSIS_RTOS/cmsis_os.c **** * @brief  Delete a timer.
 468:Middlewares/Third_Party/FreeRTOS/Source/CMSIS_RTOS/cmsis_os.c **** * @param  timer_id      timer ID obtained by \ref osTimerCreate
 469:Middlewares/Third_Party/FreeRTOS/Source/CMSIS_RTOS/cmsis_os.c **** * @retval  status code that indicates the execution status of the function.
 470:Middlewares/Third_Party/FreeRTOS/Source/CMSIS_RTOS/cmsis_os.c **** * @note   MUST REMAIN UNCHANGED: \b osTimerDelete shall be consistent in every CMSIS-RTOS.
 471:Middlewares/Third_Party/FreeRTOS/Source/CMSIS_RTOS/cmsis_os.c **** */
 472:Middlewares/Third_Party/FreeRTOS/Source/CMSIS_RTOS/cmsis_os.c **** osStatus osTimerDelete (osTimerId timer_id)
 473:Middlewares/Third_Party/FreeRTOS/Source/CMSIS_RTOS/cmsis_os.c **** {
 923              		.loc 1 473 1 is_stmt 1 view -0
 924              		.cfi_startproc
 925              		@ args = 0, pretend = 0, frame = 0
 926              		@ frame_needed = 0, uses_anonymous_args = 0
 927              		.loc 1 473 1 is_stmt 0 view .LVU193
 928 0000 10B5     		push	{r4, lr}
 929              	.LCFI24:
 930              		.cfi_def_cfa_offset 8
 931              		.cfi_offset 4, -8
 932              		.cfi_offset 14, -4
 933 0002 82B0     		sub	sp, sp, #8
 934              	.LCFI25:
 935              		.cfi_def_cfa_offset 16
 936 0004 0446     		mov	r4, r0
 474:Middlewares/Third_Party/FreeRTOS/Source/CMSIS_RTOS/cmsis_os.c **** osStatus result = osOK;
 937              		.loc 1 474 1 is_stmt 1 view .LVU194
 938              	.LVL74:
 475:Middlewares/Third_Party/FreeRTOS/Source/CMSIS_RTOS/cmsis_os.c **** 
 476:Middlewares/Third_Party/FreeRTOS/Source/CMSIS_RTOS/cmsis_os.c **** #if (configUSE_TIMERS == 1)
 477:Middlewares/Third_Party/FreeRTOS/Source/CMSIS_RTOS/cmsis_os.c **** 
 478:Middlewares/Third_Party/FreeRTOS/Source/CMSIS_RTOS/cmsis_os.c ****    if (inHandlerMode()) {
 939              		.loc 1 478 4 view .LVU195
 940              		.loc 1 478 8 is_stmt 0 view .LVU196
 941 0006 FFF7FEFF 		bl	inHandlerMode
 942              	.LVL75:
 943              		.loc 1 478 7 view .LVU197
ARM GAS  C:\Users\Lenovo\AppData\Local\Temp\cci3TShy.s 			page 31


 944 000a 70B9     		cbnz	r0, .L73
 479:Middlewares/Third_Party/FreeRTOS/Source/CMSIS_RTOS/cmsis_os.c ****      return osErrorISR;
 480:Middlewares/Third_Party/FreeRTOS/Source/CMSIS_RTOS/cmsis_os.c ****   }
 481:Middlewares/Third_Party/FreeRTOS/Source/CMSIS_RTOS/cmsis_os.c ****   else { 
 482:Middlewares/Third_Party/FreeRTOS/Source/CMSIS_RTOS/cmsis_os.c ****     if ((xTimerDelete(timer_id, osWaitForever )) != pdPASS) {
 945              		.loc 1 482 5 is_stmt 1 view .LVU198
 946              		.loc 1 482 10 is_stmt 0 view .LVU199
 947 000c 4FF0FF33 		mov	r3, #-1
 948 0010 0093     		str	r3, [sp]
 949 0012 0023     		movs	r3, #0
 950 0014 1A46     		mov	r2, r3
 951 0016 0521     		movs	r1, #5
 952 0018 2046     		mov	r0, r4
 953 001a FFF7FEFF 		bl	xTimerGenericCommand
 954              	.LVL76:
 955              		.loc 1 482 8 view .LVU200
 956 001e 0128     		cmp	r0, #1
 957 0020 01D0     		beq	.L76
 483:Middlewares/Third_Party/FreeRTOS/Source/CMSIS_RTOS/cmsis_os.c ****       result = osErrorOS;
 958              		.loc 1 483 14 view .LVU201
 959 0022 FF20     		movs	r0, #255
 960              	.LVL77:
 961              		.loc 1 483 14 view .LVU202
 962 0024 02E0     		b	.L71
 963              	.LVL78:
 964              	.L76:
 474:Middlewares/Third_Party/FreeRTOS/Source/CMSIS_RTOS/cmsis_os.c **** 
 965              		.loc 1 474 10 view .LVU203
 966 0026 0020     		movs	r0, #0
 967 0028 00E0     		b	.L71
 968              	.L73:
 479:Middlewares/Third_Party/FreeRTOS/Source/CMSIS_RTOS/cmsis_os.c ****      return osErrorISR;
 969              		.loc 1 479 13 view .LVU204
 970 002a 8220     		movs	r0, #130
 971              	.LVL79:
 972              	.L71:
 484:Middlewares/Third_Party/FreeRTOS/Source/CMSIS_RTOS/cmsis_os.c ****     }
 485:Middlewares/Third_Party/FreeRTOS/Source/CMSIS_RTOS/cmsis_os.c ****   } 
 486:Middlewares/Third_Party/FreeRTOS/Source/CMSIS_RTOS/cmsis_os.c ****     
 487:Middlewares/Third_Party/FreeRTOS/Source/CMSIS_RTOS/cmsis_os.c **** #else 
 488:Middlewares/Third_Party/FreeRTOS/Source/CMSIS_RTOS/cmsis_os.c ****   result = osErrorOS;
 489:Middlewares/Third_Party/FreeRTOS/Source/CMSIS_RTOS/cmsis_os.c **** #endif 
 490:Middlewares/Third_Party/FreeRTOS/Source/CMSIS_RTOS/cmsis_os.c ****  
 491:Middlewares/Third_Party/FreeRTOS/Source/CMSIS_RTOS/cmsis_os.c ****   return result;
 492:Middlewares/Third_Party/FreeRTOS/Source/CMSIS_RTOS/cmsis_os.c **** }
 973              		.loc 1 492 1 view .LVU205
 974 002c 02B0     		add	sp, sp, #8
 975              	.LCFI26:
 976              		.cfi_def_cfa_offset 8
 977              		@ sp needed
 978 002e 10BD     		pop	{r4, pc}
 979              		.loc 1 492 1 view .LVU206
 980              		.cfi_endproc
 981              	.LFE125:
 983              		.section	.text.osSignalSet,"ax",%progbits
 984              		.align	1
 985              		.global	osSignalSet
ARM GAS  C:\Users\Lenovo\AppData\Local\Temp\cci3TShy.s 			page 32


 986              		.syntax unified
 987              		.thumb
 988              		.thumb_func
 990              	osSignalSet:
 991              	.LVL80:
 992              	.LFB126:
 493:Middlewares/Third_Party/FreeRTOS/Source/CMSIS_RTOS/cmsis_os.c **** 
 494:Middlewares/Third_Party/FreeRTOS/Source/CMSIS_RTOS/cmsis_os.c **** /***************************  Signal Management ********************************/
 495:Middlewares/Third_Party/FreeRTOS/Source/CMSIS_RTOS/cmsis_os.c **** /**
 496:Middlewares/Third_Party/FreeRTOS/Source/CMSIS_RTOS/cmsis_os.c **** * @brief  Set the specified Signal Flags of an active thread.
 497:Middlewares/Third_Party/FreeRTOS/Source/CMSIS_RTOS/cmsis_os.c **** * @param  thread_id     thread ID obtained by \ref osThreadCreate or \ref osThreadGetId.
 498:Middlewares/Third_Party/FreeRTOS/Source/CMSIS_RTOS/cmsis_os.c **** * @param  signals       specifies the signal flags of the thread that should be set.
 499:Middlewares/Third_Party/FreeRTOS/Source/CMSIS_RTOS/cmsis_os.c **** * @retval previous signal flags of the specified thread or 0x80000000 in case of incorrect paramete
 500:Middlewares/Third_Party/FreeRTOS/Source/CMSIS_RTOS/cmsis_os.c **** * @note   MUST REMAIN UNCHANGED: \b osSignalSet shall be consistent in every CMSIS-RTOS.
 501:Middlewares/Third_Party/FreeRTOS/Source/CMSIS_RTOS/cmsis_os.c **** */
 502:Middlewares/Third_Party/FreeRTOS/Source/CMSIS_RTOS/cmsis_os.c **** int32_t osSignalSet (osThreadId thread_id, int32_t signal)
 503:Middlewares/Third_Party/FreeRTOS/Source/CMSIS_RTOS/cmsis_os.c **** {
 993              		.loc 1 503 1 is_stmt 1 view -0
 994              		.cfi_startproc
 995              		@ args = 0, pretend = 0, frame = 8
 996              		@ frame_needed = 0, uses_anonymous_args = 0
 997              		.loc 1 503 1 is_stmt 0 view .LVU208
 998 0000 30B5     		push	{r4, r5, lr}
 999              	.LCFI27:
 1000              		.cfi_def_cfa_offset 12
 1001              		.cfi_offset 4, -12
 1002              		.cfi_offset 5, -8
 1003              		.cfi_offset 14, -4
 1004 0002 85B0     		sub	sp, sp, #20
 1005              	.LCFI28:
 1006              		.cfi_def_cfa_offset 32
 1007 0004 0446     		mov	r4, r0
 1008 0006 0D46     		mov	r5, r1
 504:Middlewares/Third_Party/FreeRTOS/Source/CMSIS_RTOS/cmsis_os.c **** #if( configUSE_TASK_NOTIFICATIONS == 1 )	
 505:Middlewares/Third_Party/FreeRTOS/Source/CMSIS_RTOS/cmsis_os.c ****   BaseType_t xHigherPriorityTaskWoken = pdFALSE;
 1009              		.loc 1 505 3 is_stmt 1 view .LVU209
 1010              		.loc 1 505 14 is_stmt 0 view .LVU210
 1011 0008 0023     		movs	r3, #0
 1012 000a 0393     		str	r3, [sp, #12]
 506:Middlewares/Third_Party/FreeRTOS/Source/CMSIS_RTOS/cmsis_os.c ****   uint32_t ulPreviousNotificationValue = 0;
 1013              		.loc 1 506 3 is_stmt 1 view .LVU211
 1014              		.loc 1 506 12 is_stmt 0 view .LVU212
 1015 000c 0293     		str	r3, [sp, #8]
 507:Middlewares/Third_Party/FreeRTOS/Source/CMSIS_RTOS/cmsis_os.c ****   
 508:Middlewares/Third_Party/FreeRTOS/Source/CMSIS_RTOS/cmsis_os.c ****   if (inHandlerMode())
 1016              		.loc 1 508 3 is_stmt 1 view .LVU213
 1017              		.loc 1 508 7 is_stmt 0 view .LVU214
 1018 000e FFF7FEFF 		bl	inHandlerMode
 1019              	.LVL81:
 1020              		.loc 1 508 6 view .LVU215
 1021 0012 B0B1     		cbz	r0, .L78
 509:Middlewares/Third_Party/FreeRTOS/Source/CMSIS_RTOS/cmsis_os.c ****   {
 510:Middlewares/Third_Party/FreeRTOS/Source/CMSIS_RTOS/cmsis_os.c ****     if(xTaskGenericNotifyFromISR( thread_id , (uint32_t)signal, eSetBits, &ulPreviousNotificationVa
 1022              		.loc 1 510 5 is_stmt 1 view .LVU216
 1023              		.loc 1 510 8 is_stmt 0 view .LVU217
 1024 0014 03AB     		add	r3, sp, #12
 1025 0016 0093     		str	r3, [sp]
ARM GAS  C:\Users\Lenovo\AppData\Local\Temp\cci3TShy.s 			page 33


 1026 0018 02AB     		add	r3, sp, #8
 1027 001a 0122     		movs	r2, #1
 1028 001c 2946     		mov	r1, r5
 1029 001e 2046     		mov	r0, r4
 1030 0020 FFF7FEFF 		bl	xTaskGenericNotifyFromISR
 1031              	.LVL82:
 1032              		.loc 1 510 7 view .LVU218
 1033 0024 0128     		cmp	r0, #1
 1034 0026 17D1     		bne	.L81
 511:Middlewares/Third_Party/FreeRTOS/Source/CMSIS_RTOS/cmsis_os.c ****       return 0x80000000;
 512:Middlewares/Third_Party/FreeRTOS/Source/CMSIS_RTOS/cmsis_os.c ****     
 513:Middlewares/Third_Party/FreeRTOS/Source/CMSIS_RTOS/cmsis_os.c ****     portYIELD_FROM_ISR( xHigherPriorityTaskWoken );
 1035              		.loc 1 513 5 is_stmt 1 view .LVU219
 1036 0028 039B     		ldr	r3, [sp, #12]
 1037 002a 93B1     		cbz	r3, .L80
 1038              		.loc 1 513 5 discriminator 1 view .LVU220
 1039 002c 4FF0E023 		mov	r3, #-536813568
 1040 0030 4FF08052 		mov	r2, #268435456
 1041 0034 C3F8042D 		str	r2, [r3, #3332]
 1042              		.loc 1 513 5 discriminator 1 view .LVU221
 1043              		.syntax unified
 1044              	@ 513 "Middlewares/Third_Party/FreeRTOS/Source/CMSIS_RTOS/cmsis_os.c" 1
 1045 0038 BFF34F8F 		dsb
 1046              	@ 0 "" 2
 1047              		.loc 1 513 5 discriminator 1 view .LVU222
 1048              	@ 513 "Middlewares/Third_Party/FreeRTOS/Source/CMSIS_RTOS/cmsis_os.c" 1
 1049 003c BFF36F8F 		isb
 1050              	@ 0 "" 2
 1051              		.thumb
 1052              		.syntax unified
 1053 0040 07E0     		b	.L80
 1054              	.L78:
 514:Middlewares/Third_Party/FreeRTOS/Source/CMSIS_RTOS/cmsis_os.c ****   }  
 515:Middlewares/Third_Party/FreeRTOS/Source/CMSIS_RTOS/cmsis_os.c ****   else if(xTaskGenericNotify( thread_id , (uint32_t)signal, eSetBits, &ulPreviousNotificationValue)
 1055              		.loc 1 515 8 view .LVU223
 1056              		.loc 1 515 11 is_stmt 0 view .LVU224
 1057 0042 02AB     		add	r3, sp, #8
 1058 0044 0122     		movs	r2, #1
 1059 0046 2946     		mov	r1, r5
 1060 0048 2046     		mov	r0, r4
 1061 004a FFF7FEFF 		bl	xTaskGenericNotify
 1062              	.LVL83:
 1063              		.loc 1 515 10 view .LVU225
 1064 004e 0128     		cmp	r0, #1
 1065 0050 05D1     		bne	.L82
 1066              	.L80:
 516:Middlewares/Third_Party/FreeRTOS/Source/CMSIS_RTOS/cmsis_os.c ****     return 0x80000000;
 517:Middlewares/Third_Party/FreeRTOS/Source/CMSIS_RTOS/cmsis_os.c ****   
 518:Middlewares/Third_Party/FreeRTOS/Source/CMSIS_RTOS/cmsis_os.c ****   return ulPreviousNotificationValue;
 1067              		.loc 1 518 3 is_stmt 1 view .LVU226
 1068              		.loc 1 518 10 is_stmt 0 view .LVU227
 1069 0052 0298     		ldr	r0, [sp, #8]
 1070              	.L77:
 519:Middlewares/Third_Party/FreeRTOS/Source/CMSIS_RTOS/cmsis_os.c **** #else
 520:Middlewares/Third_Party/FreeRTOS/Source/CMSIS_RTOS/cmsis_os.c ****   (void) thread_id;
 521:Middlewares/Third_Party/FreeRTOS/Source/CMSIS_RTOS/cmsis_os.c ****   (void) signal;
 522:Middlewares/Third_Party/FreeRTOS/Source/CMSIS_RTOS/cmsis_os.c **** 
ARM GAS  C:\Users\Lenovo\AppData\Local\Temp\cci3TShy.s 			page 34


 523:Middlewares/Third_Party/FreeRTOS/Source/CMSIS_RTOS/cmsis_os.c ****   return 0x80000000; /* Task Notification not supported */ 	
 524:Middlewares/Third_Party/FreeRTOS/Source/CMSIS_RTOS/cmsis_os.c **** #endif
 525:Middlewares/Third_Party/FreeRTOS/Source/CMSIS_RTOS/cmsis_os.c **** }
 1071              		.loc 1 525 1 view .LVU228
 1072 0054 05B0     		add	sp, sp, #20
 1073              	.LCFI29:
 1074              		.cfi_remember_state
 1075              		.cfi_def_cfa_offset 12
 1076              		@ sp needed
 1077 0056 30BD     		pop	{r4, r5, pc}
 1078              	.LVL84:
 1079              	.L81:
 1080              	.LCFI30:
 1081              		.cfi_restore_state
 511:Middlewares/Third_Party/FreeRTOS/Source/CMSIS_RTOS/cmsis_os.c ****     
 1082              		.loc 1 511 14 view .LVU229
 1083 0058 4FF00040 		mov	r0, #-2147483648
 1084 005c FAE7     		b	.L77
 1085              	.L82:
 516:Middlewares/Third_Party/FreeRTOS/Source/CMSIS_RTOS/cmsis_os.c ****     return 0x80000000;
 1086              		.loc 1 516 12 view .LVU230
 1087 005e 4FF00040 		mov	r0, #-2147483648
 1088 0062 F7E7     		b	.L77
 1089              		.cfi_endproc
 1090              	.LFE126:
 1092              		.section	.text.osSignalWait,"ax",%progbits
 1093              		.align	1
 1094              		.global	osSignalWait
 1095              		.syntax unified
 1096              		.thumb
 1097              		.thumb_func
 1099              	osSignalWait:
 1100              	.LVL85:
 1101              	.LFB127:
 526:Middlewares/Third_Party/FreeRTOS/Source/CMSIS_RTOS/cmsis_os.c **** 
 527:Middlewares/Third_Party/FreeRTOS/Source/CMSIS_RTOS/cmsis_os.c **** /**
 528:Middlewares/Third_Party/FreeRTOS/Source/CMSIS_RTOS/cmsis_os.c **** * @brief  Clear the specified Signal Flags of an active thread.
 529:Middlewares/Third_Party/FreeRTOS/Source/CMSIS_RTOS/cmsis_os.c **** * @param  thread_id  thread ID obtained by \ref osThreadCreate or \ref osThreadGetId.
 530:Middlewares/Third_Party/FreeRTOS/Source/CMSIS_RTOS/cmsis_os.c **** * @param  signals    specifies the signal flags of the thread that shall be cleared.
 531:Middlewares/Third_Party/FreeRTOS/Source/CMSIS_RTOS/cmsis_os.c **** * @retval  previous signal flags of the specified thread or 0x80000000 in case of incorrect paramet
 532:Middlewares/Third_Party/FreeRTOS/Source/CMSIS_RTOS/cmsis_os.c **** * @note   MUST REMAIN UNCHANGED: \b osSignalClear shall be consistent in every CMSIS-RTOS.
 533:Middlewares/Third_Party/FreeRTOS/Source/CMSIS_RTOS/cmsis_os.c **** */
 534:Middlewares/Third_Party/FreeRTOS/Source/CMSIS_RTOS/cmsis_os.c **** int32_t osSignalClear (osThreadId thread_id, int32_t signal);
 535:Middlewares/Third_Party/FreeRTOS/Source/CMSIS_RTOS/cmsis_os.c **** 
 536:Middlewares/Third_Party/FreeRTOS/Source/CMSIS_RTOS/cmsis_os.c **** /**
 537:Middlewares/Third_Party/FreeRTOS/Source/CMSIS_RTOS/cmsis_os.c **** * @brief  Wait for one or more Signal Flags to become signaled for the current \b RUNNING thread.
 538:Middlewares/Third_Party/FreeRTOS/Source/CMSIS_RTOS/cmsis_os.c **** * @param  signals   wait until all specified signal flags set or 0 for any single signal flag.
 539:Middlewares/Third_Party/FreeRTOS/Source/CMSIS_RTOS/cmsis_os.c **** * @param  millisec  timeout value or 0 in case of no time-out.
 540:Middlewares/Third_Party/FreeRTOS/Source/CMSIS_RTOS/cmsis_os.c **** * @retval  event flag information or error code.
 541:Middlewares/Third_Party/FreeRTOS/Source/CMSIS_RTOS/cmsis_os.c **** * @note   MUST REMAIN UNCHANGED: \b osSignalWait shall be consistent in every CMSIS-RTOS.
 542:Middlewares/Third_Party/FreeRTOS/Source/CMSIS_RTOS/cmsis_os.c **** */
 543:Middlewares/Third_Party/FreeRTOS/Source/CMSIS_RTOS/cmsis_os.c **** osEvent osSignalWait (int32_t signals, uint32_t millisec)
 544:Middlewares/Third_Party/FreeRTOS/Source/CMSIS_RTOS/cmsis_os.c **** {
 1102              		.loc 1 544 1 is_stmt 1 view -0
 1103              		.cfi_startproc
 1104              		@ args = 0, pretend = 0, frame = 16
 1105              		@ frame_needed = 0, uses_anonymous_args = 0
ARM GAS  C:\Users\Lenovo\AppData\Local\Temp\cci3TShy.s 			page 35


 1106              		.loc 1 544 1 is_stmt 0 view .LVU232
 1107 0000 70B5     		push	{r4, r5, r6, lr}
 1108              	.LCFI31:
 1109              		.cfi_def_cfa_offset 16
 1110              		.cfi_offset 4, -16
 1111              		.cfi_offset 5, -12
 1112              		.cfi_offset 6, -8
 1113              		.cfi_offset 14, -4
 1114 0002 84B0     		sub	sp, sp, #16
 1115              	.LCFI32:
 1116              		.cfi_def_cfa_offset 32
 1117 0004 0446     		mov	r4, r0
 1118 0006 0E46     		mov	r6, r1
 1119 0008 1546     		mov	r5, r2
 545:Middlewares/Third_Party/FreeRTOS/Source/CMSIS_RTOS/cmsis_os.c ****   osEvent ret;
 1120              		.loc 1 545 3 is_stmt 1 view .LVU233
 546:Middlewares/Third_Party/FreeRTOS/Source/CMSIS_RTOS/cmsis_os.c **** 
 547:Middlewares/Third_Party/FreeRTOS/Source/CMSIS_RTOS/cmsis_os.c **** #if( configUSE_TASK_NOTIFICATIONS == 1 )
 548:Middlewares/Third_Party/FreeRTOS/Source/CMSIS_RTOS/cmsis_os.c **** 	
 549:Middlewares/Third_Party/FreeRTOS/Source/CMSIS_RTOS/cmsis_os.c ****   TickType_t ticks;
 1121              		.loc 1 549 3 view .LVU234
 550:Middlewares/Third_Party/FreeRTOS/Source/CMSIS_RTOS/cmsis_os.c **** 
 551:Middlewares/Third_Party/FreeRTOS/Source/CMSIS_RTOS/cmsis_os.c ****   ret.value.signals = 0;  
 1122              		.loc 1 551 3 view .LVU235
 1123              		.loc 1 551 21 is_stmt 0 view .LVU236
 1124 000a 0023     		movs	r3, #0
 1125 000c 0293     		str	r3, [sp, #8]
 552:Middlewares/Third_Party/FreeRTOS/Source/CMSIS_RTOS/cmsis_os.c ****   ticks = 0;
 1126              		.loc 1 552 3 is_stmt 1 view .LVU237
 1127              	.LVL86:
 553:Middlewares/Third_Party/FreeRTOS/Source/CMSIS_RTOS/cmsis_os.c ****   if (millisec == osWaitForever) {
 1128              		.loc 1 553 3 view .LVU238
 554:Middlewares/Third_Party/FreeRTOS/Source/CMSIS_RTOS/cmsis_os.c ****     ticks = portMAX_DELAY;
 555:Middlewares/Third_Party/FreeRTOS/Source/CMSIS_RTOS/cmsis_os.c ****   }
 556:Middlewares/Third_Party/FreeRTOS/Source/CMSIS_RTOS/cmsis_os.c ****   else if (millisec != 0) {
 557:Middlewares/Third_Party/FreeRTOS/Source/CMSIS_RTOS/cmsis_os.c ****     ticks = millisec / portTICK_PERIOD_MS;
 558:Middlewares/Third_Party/FreeRTOS/Source/CMSIS_RTOS/cmsis_os.c ****     if (ticks == 0) {
 559:Middlewares/Third_Party/FreeRTOS/Source/CMSIS_RTOS/cmsis_os.c ****       ticks = 1;
 560:Middlewares/Third_Party/FreeRTOS/Source/CMSIS_RTOS/cmsis_os.c ****     }
 561:Middlewares/Third_Party/FreeRTOS/Source/CMSIS_RTOS/cmsis_os.c ****   }  
 562:Middlewares/Third_Party/FreeRTOS/Source/CMSIS_RTOS/cmsis_os.c ****   
 563:Middlewares/Third_Party/FreeRTOS/Source/CMSIS_RTOS/cmsis_os.c ****   if (inHandlerMode())
 1129              		.loc 1 563 3 view .LVU239
 1130              		.loc 1 563 7 is_stmt 0 view .LVU240
 1131 000e FFF7FEFF 		bl	inHandlerMode
 1132              	.LVL87:
 1133              		.loc 1 563 6 view .LVU241
 1134 0012 48B1     		cbz	r0, .L85
 564:Middlewares/Third_Party/FreeRTOS/Source/CMSIS_RTOS/cmsis_os.c ****   {
 565:Middlewares/Third_Party/FreeRTOS/Source/CMSIS_RTOS/cmsis_os.c ****     ret.status = osErrorISR;  /*Not allowed in ISR*/
 1135              		.loc 1 565 5 is_stmt 1 view .LVU242
 1136              		.loc 1 565 16 is_stmt 0 view .LVU243
 1137 0014 8223     		movs	r3, #130
 1138 0016 0193     		str	r3, [sp, #4]
 1139              	.L86:
 566:Middlewares/Third_Party/FreeRTOS/Source/CMSIS_RTOS/cmsis_os.c ****   }
 567:Middlewares/Third_Party/FreeRTOS/Source/CMSIS_RTOS/cmsis_os.c ****   else
ARM GAS  C:\Users\Lenovo\AppData\Local\Temp\cci3TShy.s 			page 36


 568:Middlewares/Third_Party/FreeRTOS/Source/CMSIS_RTOS/cmsis_os.c ****   {
 569:Middlewares/Third_Party/FreeRTOS/Source/CMSIS_RTOS/cmsis_os.c ****     if(xTaskNotifyWait( 0,(uint32_t) signals, (uint32_t *)&ret.value.signals, ticks) != pdTRUE)
 570:Middlewares/Third_Party/FreeRTOS/Source/CMSIS_RTOS/cmsis_os.c ****     {
 571:Middlewares/Third_Party/FreeRTOS/Source/CMSIS_RTOS/cmsis_os.c ****       if(ticks == 0)  ret.status = osOK;
 572:Middlewares/Third_Party/FreeRTOS/Source/CMSIS_RTOS/cmsis_os.c ****       else  ret.status = osEventTimeout;
 573:Middlewares/Third_Party/FreeRTOS/Source/CMSIS_RTOS/cmsis_os.c ****     }
 574:Middlewares/Third_Party/FreeRTOS/Source/CMSIS_RTOS/cmsis_os.c ****     else if(ret.value.signals < 0)
 575:Middlewares/Third_Party/FreeRTOS/Source/CMSIS_RTOS/cmsis_os.c ****     {
 576:Middlewares/Third_Party/FreeRTOS/Source/CMSIS_RTOS/cmsis_os.c ****       ret.status =  osErrorValue;     
 577:Middlewares/Third_Party/FreeRTOS/Source/CMSIS_RTOS/cmsis_os.c ****     }
 578:Middlewares/Third_Party/FreeRTOS/Source/CMSIS_RTOS/cmsis_os.c ****     else  ret.status =  osEventSignal;
 579:Middlewares/Third_Party/FreeRTOS/Source/CMSIS_RTOS/cmsis_os.c ****   }
 580:Middlewares/Third_Party/FreeRTOS/Source/CMSIS_RTOS/cmsis_os.c **** #else
 581:Middlewares/Third_Party/FreeRTOS/Source/CMSIS_RTOS/cmsis_os.c ****   (void) signals;
 582:Middlewares/Third_Party/FreeRTOS/Source/CMSIS_RTOS/cmsis_os.c ****   (void) millisec;
 583:Middlewares/Third_Party/FreeRTOS/Source/CMSIS_RTOS/cmsis_os.c **** 	
 584:Middlewares/Third_Party/FreeRTOS/Source/CMSIS_RTOS/cmsis_os.c ****   ret.status =  osErrorOS;	/* Task Notification not supported */
 585:Middlewares/Third_Party/FreeRTOS/Source/CMSIS_RTOS/cmsis_os.c **** #endif
 586:Middlewares/Third_Party/FreeRTOS/Source/CMSIS_RTOS/cmsis_os.c ****   
 587:Middlewares/Third_Party/FreeRTOS/Source/CMSIS_RTOS/cmsis_os.c ****   return ret;
 1140              		.loc 1 587 3 is_stmt 1 view .LVU244
 1141              		.loc 1 587 10 is_stmt 0 view .LVU245
 1142 0018 04AB     		add	r3, sp, #16
 1143 001a 13E90700 		ldmdb	r3, {r0, r1, r2}
 1144 001e 84E80700 		stm	r4, {r0, r1, r2}
 588:Middlewares/Third_Party/FreeRTOS/Source/CMSIS_RTOS/cmsis_os.c **** }
 1145              		.loc 1 588 1 view .LVU246
 1146 0022 2046     		mov	r0, r4
 1147 0024 04B0     		add	sp, sp, #16
 1148              	.LCFI33:
 1149              		.cfi_remember_state
 1150              		.cfi_def_cfa_offset 16
 1151              		@ sp needed
 1152 0026 70BD     		pop	{r4, r5, r6, pc}
 1153              	.LVL88:
 1154              	.L85:
 1155              	.LCFI34:
 1156              		.cfi_restore_state
 569:Middlewares/Third_Party/FreeRTOS/Source/CMSIS_RTOS/cmsis_os.c ****     {
 1157              		.loc 1 569 5 is_stmt 1 view .LVU247
 569:Middlewares/Third_Party/FreeRTOS/Source/CMSIS_RTOS/cmsis_os.c ****     {
 1158              		.loc 1 569 8 is_stmt 0 view .LVU248
 1159 0028 2B46     		mov	r3, r5
 1160 002a 02AA     		add	r2, sp, #8
 1161 002c 3146     		mov	r1, r6
 1162 002e 0020     		movs	r0, #0
 1163 0030 FFF7FEFF 		bl	xTaskNotifyWait
 1164              	.LVL89:
 569:Middlewares/Third_Party/FreeRTOS/Source/CMSIS_RTOS/cmsis_os.c ****     {
 1165              		.loc 1 569 7 view .LVU249
 1166 0034 0128     		cmp	r0, #1
 1167 0036 06D0     		beq	.L87
 571:Middlewares/Third_Party/FreeRTOS/Source/CMSIS_RTOS/cmsis_os.c ****       else  ret.status = osEventTimeout;
 1168              		.loc 1 571 7 is_stmt 1 view .LVU250
 571:Middlewares/Third_Party/FreeRTOS/Source/CMSIS_RTOS/cmsis_os.c ****       else  ret.status = osEventTimeout;
 1169              		.loc 1 571 9 is_stmt 0 view .LVU251
 1170 0038 15B9     		cbnz	r5, .L88
ARM GAS  C:\Users\Lenovo\AppData\Local\Temp\cci3TShy.s 			page 37


 571:Middlewares/Third_Party/FreeRTOS/Source/CMSIS_RTOS/cmsis_os.c ****       else  ret.status = osEventTimeout;
 1171              		.loc 1 571 23 is_stmt 1 discriminator 1 view .LVU252
 571:Middlewares/Third_Party/FreeRTOS/Source/CMSIS_RTOS/cmsis_os.c ****       else  ret.status = osEventTimeout;
 1172              		.loc 1 571 34 is_stmt 0 discriminator 1 view .LVU253
 1173 003a 0023     		movs	r3, #0
 1174 003c 0193     		str	r3, [sp, #4]
 1175 003e EBE7     		b	.L86
 1176              	.L88:
 572:Middlewares/Third_Party/FreeRTOS/Source/CMSIS_RTOS/cmsis_os.c ****     }
 1177              		.loc 1 572 13 is_stmt 1 view .LVU254
 572:Middlewares/Third_Party/FreeRTOS/Source/CMSIS_RTOS/cmsis_os.c ****     }
 1178              		.loc 1 572 24 is_stmt 0 view .LVU255
 1179 0040 4023     		movs	r3, #64
 1180 0042 0193     		str	r3, [sp, #4]
 1181 0044 E8E7     		b	.L86
 1182              	.L87:
 574:Middlewares/Third_Party/FreeRTOS/Source/CMSIS_RTOS/cmsis_os.c ****     {
 1183              		.loc 1 574 10 is_stmt 1 view .LVU256
 574:Middlewares/Third_Party/FreeRTOS/Source/CMSIS_RTOS/cmsis_os.c ****     {
 1184              		.loc 1 574 22 is_stmt 0 view .LVU257
 1185 0046 029B     		ldr	r3, [sp, #8]
 574:Middlewares/Third_Party/FreeRTOS/Source/CMSIS_RTOS/cmsis_os.c ****     {
 1186              		.loc 1 574 12 view .LVU258
 1187 0048 002B     		cmp	r3, #0
 1188 004a 02DB     		blt	.L91
 578:Middlewares/Third_Party/FreeRTOS/Source/CMSIS_RTOS/cmsis_os.c ****   }
 1189              		.loc 1 578 11 is_stmt 1 view .LVU259
 578:Middlewares/Third_Party/FreeRTOS/Source/CMSIS_RTOS/cmsis_os.c ****   }
 1190              		.loc 1 578 22 is_stmt 0 view .LVU260
 1191 004c 0823     		movs	r3, #8
 1192 004e 0193     		str	r3, [sp, #4]
 1193 0050 E2E7     		b	.L86
 1194              	.L91:
 576:Middlewares/Third_Party/FreeRTOS/Source/CMSIS_RTOS/cmsis_os.c ****     }
 1195              		.loc 1 576 7 is_stmt 1 view .LVU261
 576:Middlewares/Third_Party/FreeRTOS/Source/CMSIS_RTOS/cmsis_os.c ****     }
 1196              		.loc 1 576 18 is_stmt 0 view .LVU262
 1197 0052 8623     		movs	r3, #134
 1198 0054 0193     		str	r3, [sp, #4]
 1199 0056 DFE7     		b	.L86
 1200              		.cfi_endproc
 1201              	.LFE127:
 1203              		.section	.text.osMutexCreate,"ax",%progbits
 1204              		.align	1
 1205              		.global	osMutexCreate
 1206              		.syntax unified
 1207              		.thumb
 1208              		.thumb_func
 1210              	osMutexCreate:
 1211              	.LVL90:
 1212              	.LFB128:
 589:Middlewares/Third_Party/FreeRTOS/Source/CMSIS_RTOS/cmsis_os.c **** 
 590:Middlewares/Third_Party/FreeRTOS/Source/CMSIS_RTOS/cmsis_os.c **** /****************************  Mutex Management ********************************/
 591:Middlewares/Third_Party/FreeRTOS/Source/CMSIS_RTOS/cmsis_os.c **** /**
 592:Middlewares/Third_Party/FreeRTOS/Source/CMSIS_RTOS/cmsis_os.c **** * @brief  Create and Initialize a Mutex object
 593:Middlewares/Third_Party/FreeRTOS/Source/CMSIS_RTOS/cmsis_os.c **** * @param  mutex_def     mutex definition referenced with \ref osMutex.
 594:Middlewares/Third_Party/FreeRTOS/Source/CMSIS_RTOS/cmsis_os.c **** * @retval  mutex ID for reference by other functions or NULL in case of error.
ARM GAS  C:\Users\Lenovo\AppData\Local\Temp\cci3TShy.s 			page 38


 595:Middlewares/Third_Party/FreeRTOS/Source/CMSIS_RTOS/cmsis_os.c **** * @note   MUST REMAIN UNCHANGED: \b osMutexCreate shall be consistent in every CMSIS-RTOS.
 596:Middlewares/Third_Party/FreeRTOS/Source/CMSIS_RTOS/cmsis_os.c **** */
 597:Middlewares/Third_Party/FreeRTOS/Source/CMSIS_RTOS/cmsis_os.c **** osMutexId osMutexCreate (const osMutexDef_t *mutex_def)
 598:Middlewares/Third_Party/FreeRTOS/Source/CMSIS_RTOS/cmsis_os.c **** {
 1213              		.loc 1 598 1 is_stmt 1 view -0
 1214              		.cfi_startproc
 1215              		@ args = 0, pretend = 0, frame = 0
 1216              		@ frame_needed = 0, uses_anonymous_args = 0
 1217              		.loc 1 598 1 is_stmt 0 view .LVU264
 1218 0000 08B5     		push	{r3, lr}
 1219              	.LCFI35:
 1220              		.cfi_def_cfa_offset 8
 1221              		.cfi_offset 3, -8
 1222              		.cfi_offset 14, -4
 599:Middlewares/Third_Party/FreeRTOS/Source/CMSIS_RTOS/cmsis_os.c **** #if ( configUSE_MUTEXES == 1)
 600:Middlewares/Third_Party/FreeRTOS/Source/CMSIS_RTOS/cmsis_os.c **** 
 601:Middlewares/Third_Party/FreeRTOS/Source/CMSIS_RTOS/cmsis_os.c **** #if( configSUPPORT_STATIC_ALLOCATION == 1 ) && ( configSUPPORT_DYNAMIC_ALLOCATION == 1 )
 602:Middlewares/Third_Party/FreeRTOS/Source/CMSIS_RTOS/cmsis_os.c **** 
 603:Middlewares/Third_Party/FreeRTOS/Source/CMSIS_RTOS/cmsis_os.c ****   if (mutex_def->controlblock != NULL) {
 1223              		.loc 1 603 3 is_stmt 1 view .LVU265
 1224              		.loc 1 603 16 is_stmt 0 view .LVU266
 1225 0002 4168     		ldr	r1, [r0, #4]
 1226              		.loc 1 603 6 view .LVU267
 1227 0004 19B1     		cbz	r1, .L93
 604:Middlewares/Third_Party/FreeRTOS/Source/CMSIS_RTOS/cmsis_os.c ****     return xSemaphoreCreateMutexStatic( mutex_def->controlblock );
 1228              		.loc 1 604 5 is_stmt 1 view .LVU268
 1229              		.loc 1 604 12 is_stmt 0 view .LVU269
 1230 0006 0120     		movs	r0, #1
 1231              	.LVL91:
 1232              		.loc 1 604 12 view .LVU270
 1233 0008 FFF7FEFF 		bl	xQueueCreateMutexStatic
 1234              	.LVL92:
 1235              	.L92:
 605:Middlewares/Third_Party/FreeRTOS/Source/CMSIS_RTOS/cmsis_os.c ****      }
 606:Middlewares/Third_Party/FreeRTOS/Source/CMSIS_RTOS/cmsis_os.c ****   else {
 607:Middlewares/Third_Party/FreeRTOS/Source/CMSIS_RTOS/cmsis_os.c ****     return xSemaphoreCreateMutex(); 
 608:Middlewares/Third_Party/FreeRTOS/Source/CMSIS_RTOS/cmsis_os.c ****   }
 609:Middlewares/Third_Party/FreeRTOS/Source/CMSIS_RTOS/cmsis_os.c **** #elif ( configSUPPORT_STATIC_ALLOCATION == 1 )
 610:Middlewares/Third_Party/FreeRTOS/Source/CMSIS_RTOS/cmsis_os.c ****   return xSemaphoreCreateMutexStatic( mutex_def->controlblock );
 611:Middlewares/Third_Party/FreeRTOS/Source/CMSIS_RTOS/cmsis_os.c **** #else  
 612:Middlewares/Third_Party/FreeRTOS/Source/CMSIS_RTOS/cmsis_os.c ****     return xSemaphoreCreateMutex(); 
 613:Middlewares/Third_Party/FreeRTOS/Source/CMSIS_RTOS/cmsis_os.c **** #endif
 614:Middlewares/Third_Party/FreeRTOS/Source/CMSIS_RTOS/cmsis_os.c **** #else
 615:Middlewares/Third_Party/FreeRTOS/Source/CMSIS_RTOS/cmsis_os.c ****   return NULL;
 616:Middlewares/Third_Party/FreeRTOS/Source/CMSIS_RTOS/cmsis_os.c **** #endif
 617:Middlewares/Third_Party/FreeRTOS/Source/CMSIS_RTOS/cmsis_os.c **** }
 1236              		.loc 1 617 1 view .LVU271
 1237 000c 08BD     		pop	{r3, pc}
 1238              	.LVL93:
 1239              	.L93:
 607:Middlewares/Third_Party/FreeRTOS/Source/CMSIS_RTOS/cmsis_os.c ****   }
 1240              		.loc 1 607 5 is_stmt 1 view .LVU272
 607:Middlewares/Third_Party/FreeRTOS/Source/CMSIS_RTOS/cmsis_os.c ****   }
 1241              		.loc 1 607 12 is_stmt 0 view .LVU273
 1242 000e 0120     		movs	r0, #1
 1243              	.LVL94:
 607:Middlewares/Third_Party/FreeRTOS/Source/CMSIS_RTOS/cmsis_os.c ****   }
ARM GAS  C:\Users\Lenovo\AppData\Local\Temp\cci3TShy.s 			page 39


 1244              		.loc 1 607 12 view .LVU274
 1245 0010 FFF7FEFF 		bl	xQueueCreateMutex
 1246              	.LVL95:
 1247 0014 FAE7     		b	.L92
 1248              		.cfi_endproc
 1249              	.LFE128:
 1251              		.section	.text.osMutexWait,"ax",%progbits
 1252              		.align	1
 1253              		.global	osMutexWait
 1254              		.syntax unified
 1255              		.thumb
 1256              		.thumb_func
 1258              	osMutexWait:
 1259              	.LVL96:
 1260              	.LFB129:
 618:Middlewares/Third_Party/FreeRTOS/Source/CMSIS_RTOS/cmsis_os.c **** 
 619:Middlewares/Third_Party/FreeRTOS/Source/CMSIS_RTOS/cmsis_os.c **** /**
 620:Middlewares/Third_Party/FreeRTOS/Source/CMSIS_RTOS/cmsis_os.c **** * @brief Wait until a Mutex becomes available
 621:Middlewares/Third_Party/FreeRTOS/Source/CMSIS_RTOS/cmsis_os.c **** * @param mutex_id      mutex ID obtained by \ref osMutexCreate.
 622:Middlewares/Third_Party/FreeRTOS/Source/CMSIS_RTOS/cmsis_os.c **** * @param millisec      timeout value or 0 in case of no time-out.
 623:Middlewares/Third_Party/FreeRTOS/Source/CMSIS_RTOS/cmsis_os.c **** * @retval  status code that indicates the execution status of the function.
 624:Middlewares/Third_Party/FreeRTOS/Source/CMSIS_RTOS/cmsis_os.c **** * @note   MUST REMAIN UNCHANGED: \b osMutexWait shall be consistent in every CMSIS-RTOS.
 625:Middlewares/Third_Party/FreeRTOS/Source/CMSIS_RTOS/cmsis_os.c **** */
 626:Middlewares/Third_Party/FreeRTOS/Source/CMSIS_RTOS/cmsis_os.c **** osStatus osMutexWait (osMutexId mutex_id, uint32_t millisec)
 627:Middlewares/Third_Party/FreeRTOS/Source/CMSIS_RTOS/cmsis_os.c **** {
 1261              		.loc 1 627 1 is_stmt 1 view -0
 1262              		.cfi_startproc
 1263              		@ args = 0, pretend = 0, frame = 8
 1264              		@ frame_needed = 0, uses_anonymous_args = 0
 1265              		.loc 1 627 1 is_stmt 0 view .LVU276
 1266 0000 30B5     		push	{r4, r5, lr}
 1267              	.LCFI36:
 1268              		.cfi_def_cfa_offset 12
 1269              		.cfi_offset 4, -12
 1270              		.cfi_offset 5, -8
 1271              		.cfi_offset 14, -4
 1272 0002 83B0     		sub	sp, sp, #12
 1273              	.LCFI37:
 1274              		.cfi_def_cfa_offset 24
 628:Middlewares/Third_Party/FreeRTOS/Source/CMSIS_RTOS/cmsis_os.c ****   TickType_t ticks;
 1275              		.loc 1 628 3 is_stmt 1 view .LVU277
 629:Middlewares/Third_Party/FreeRTOS/Source/CMSIS_RTOS/cmsis_os.c ****   portBASE_TYPE taskWoken = pdFALSE;  
 1276              		.loc 1 629 3 view .LVU278
 1277              		.loc 1 629 17 is_stmt 0 view .LVU279
 1278 0004 0023     		movs	r3, #0
 1279 0006 0193     		str	r3, [sp, #4]
 630:Middlewares/Third_Party/FreeRTOS/Source/CMSIS_RTOS/cmsis_os.c ****   
 631:Middlewares/Third_Party/FreeRTOS/Source/CMSIS_RTOS/cmsis_os.c ****   
 632:Middlewares/Third_Party/FreeRTOS/Source/CMSIS_RTOS/cmsis_os.c ****   if (mutex_id == NULL) {
 1280              		.loc 1 632 3 is_stmt 1 view .LVU280
 1281              		.loc 1 632 6 is_stmt 0 view .LVU281
 1282 0008 10B3     		cbz	r0, .L99
 1283 000a 0C46     		mov	r4, r1
 1284 000c 0546     		mov	r5, r0
 633:Middlewares/Third_Party/FreeRTOS/Source/CMSIS_RTOS/cmsis_os.c ****     return osErrorParameter;
 634:Middlewares/Third_Party/FreeRTOS/Source/CMSIS_RTOS/cmsis_os.c ****   }
 635:Middlewares/Third_Party/FreeRTOS/Source/CMSIS_RTOS/cmsis_os.c ****   
ARM GAS  C:\Users\Lenovo\AppData\Local\Temp\cci3TShy.s 			page 40


 636:Middlewares/Third_Party/FreeRTOS/Source/CMSIS_RTOS/cmsis_os.c ****   ticks = 0;
 1285              		.loc 1 636 3 is_stmt 1 view .LVU282
 1286              	.LVL97:
 637:Middlewares/Third_Party/FreeRTOS/Source/CMSIS_RTOS/cmsis_os.c ****   if (millisec == osWaitForever) {
 1287              		.loc 1 637 3 view .LVU283
 638:Middlewares/Third_Party/FreeRTOS/Source/CMSIS_RTOS/cmsis_os.c ****     ticks = portMAX_DELAY;
 639:Middlewares/Third_Party/FreeRTOS/Source/CMSIS_RTOS/cmsis_os.c ****   }
 640:Middlewares/Third_Party/FreeRTOS/Source/CMSIS_RTOS/cmsis_os.c ****   else if (millisec != 0) {
 641:Middlewares/Third_Party/FreeRTOS/Source/CMSIS_RTOS/cmsis_os.c ****     ticks = millisec / portTICK_PERIOD_MS;
 642:Middlewares/Third_Party/FreeRTOS/Source/CMSIS_RTOS/cmsis_os.c ****     if (ticks == 0) {
 643:Middlewares/Third_Party/FreeRTOS/Source/CMSIS_RTOS/cmsis_os.c ****       ticks = 1;
 644:Middlewares/Third_Party/FreeRTOS/Source/CMSIS_RTOS/cmsis_os.c ****     }
 645:Middlewares/Third_Party/FreeRTOS/Source/CMSIS_RTOS/cmsis_os.c ****   }
 646:Middlewares/Third_Party/FreeRTOS/Source/CMSIS_RTOS/cmsis_os.c ****   
 647:Middlewares/Third_Party/FreeRTOS/Source/CMSIS_RTOS/cmsis_os.c ****   if (inHandlerMode()) {
 1288              		.loc 1 647 3 view .LVU284
 1289              		.loc 1 647 7 is_stmt 0 view .LVU285
 1290 000e FFF7FEFF 		bl	inHandlerMode
 1291              	.LVL98:
 1292              		.loc 1 647 6 view .LVU286
 1293 0012 A0B1     		cbz	r0, .L98
 648:Middlewares/Third_Party/FreeRTOS/Source/CMSIS_RTOS/cmsis_os.c ****     if (xSemaphoreTakeFromISR(mutex_id, &taskWoken) != pdTRUE) {
 1294              		.loc 1 648 5 is_stmt 1 view .LVU287
 1295              		.loc 1 648 9 is_stmt 0 view .LVU288
 1296 0014 01AA     		add	r2, sp, #4
 1297 0016 0021     		movs	r1, #0
 1298 0018 2846     		mov	r0, r5
 1299 001a FFF7FEFF 		bl	xQueueReceiveFromISR
 1300              	.LVL99:
 1301              		.loc 1 648 8 view .LVU289
 1302 001e 0128     		cmp	r0, #1
 1303 0020 18D1     		bne	.L100
 649:Middlewares/Third_Party/FreeRTOS/Source/CMSIS_RTOS/cmsis_os.c ****       return osErrorOS;
 650:Middlewares/Third_Party/FreeRTOS/Source/CMSIS_RTOS/cmsis_os.c ****     }
 651:Middlewares/Third_Party/FreeRTOS/Source/CMSIS_RTOS/cmsis_os.c **** 	portEND_SWITCHING_ISR(taskWoken);
 1304              		.loc 1 651 2 is_stmt 1 view .LVU290
 1305 0022 019B     		ldr	r3, [sp, #4]
 1306 0024 C3B1     		cbz	r3, .L101
 1307              		.loc 1 651 2 discriminator 1 view .LVU291
 1308 0026 4FF0E023 		mov	r3, #-536813568
 1309 002a 4FF08052 		mov	r2, #268435456
 1310 002e C3F8042D 		str	r2, [r3, #3332]
 1311              		.loc 1 651 2 discriminator 1 view .LVU292
 1312              		.syntax unified
 1313              	@ 651 "Middlewares/Third_Party/FreeRTOS/Source/CMSIS_RTOS/cmsis_os.c" 1
 1314 0032 BFF34F8F 		dsb
 1315              	@ 0 "" 2
 1316              		.loc 1 651 2 discriminator 1 view .LVU293
 1317              	@ 651 "Middlewares/Third_Party/FreeRTOS/Source/CMSIS_RTOS/cmsis_os.c" 1
 1318 0036 BFF36F8F 		isb
 1319              	@ 0 "" 2
 652:Middlewares/Third_Party/FreeRTOS/Source/CMSIS_RTOS/cmsis_os.c ****   } 
 653:Middlewares/Third_Party/FreeRTOS/Source/CMSIS_RTOS/cmsis_os.c ****   else if (xSemaphoreTake(mutex_id, ticks) != pdTRUE) {
 654:Middlewares/Third_Party/FreeRTOS/Source/CMSIS_RTOS/cmsis_os.c ****     return osErrorOS;
 655:Middlewares/Third_Party/FreeRTOS/Source/CMSIS_RTOS/cmsis_os.c ****   }
 656:Middlewares/Third_Party/FreeRTOS/Source/CMSIS_RTOS/cmsis_os.c ****   
 657:Middlewares/Third_Party/FreeRTOS/Source/CMSIS_RTOS/cmsis_os.c ****   return osOK;
ARM GAS  C:\Users\Lenovo\AppData\Local\Temp\cci3TShy.s 			page 41


 1320              		.loc 1 657 10 is_stmt 0 discriminator 1 view .LVU294
 1321              		.thumb
 1322              		.syntax unified
 1323 003a 0020     		movs	r0, #0
 1324 003c 06E0     		b	.L96
 1325              	.L98:
 653:Middlewares/Third_Party/FreeRTOS/Source/CMSIS_RTOS/cmsis_os.c ****     return osErrorOS;
 1326              		.loc 1 653 8 is_stmt 1 view .LVU295
 653:Middlewares/Third_Party/FreeRTOS/Source/CMSIS_RTOS/cmsis_os.c ****     return osErrorOS;
 1327              		.loc 1 653 12 is_stmt 0 view .LVU296
 1328 003e 2146     		mov	r1, r4
 1329 0040 2846     		mov	r0, r5
 1330 0042 FFF7FEFF 		bl	xQueueSemaphoreTake
 1331              	.LVL100:
 653:Middlewares/Third_Party/FreeRTOS/Source/CMSIS_RTOS/cmsis_os.c ****     return osErrorOS;
 1332              		.loc 1 653 11 view .LVU297
 1333 0046 0128     		cmp	r0, #1
 1334 0048 08D1     		bne	.L102
 1335              		.loc 1 657 10 view .LVU298
 1336 004a 0020     		movs	r0, #0
 1337              	.LVL101:
 1338              	.L96:
 658:Middlewares/Third_Party/FreeRTOS/Source/CMSIS_RTOS/cmsis_os.c **** }
 1339              		.loc 1 658 1 view .LVU299
 1340 004c 03B0     		add	sp, sp, #12
 1341              	.LCFI38:
 1342              		.cfi_remember_state
 1343              		.cfi_def_cfa_offset 12
 1344              		@ sp needed
 1345 004e 30BD     		pop	{r4, r5, pc}
 1346              	.LVL102:
 1347              	.L99:
 1348              	.LCFI39:
 1349              		.cfi_restore_state
 633:Middlewares/Third_Party/FreeRTOS/Source/CMSIS_RTOS/cmsis_os.c ****   }
 1350              		.loc 1 633 12 view .LVU300
 1351 0050 8020     		movs	r0, #128
 1352              	.LVL103:
 633:Middlewares/Third_Party/FreeRTOS/Source/CMSIS_RTOS/cmsis_os.c ****   }
 1353              		.loc 1 633 12 view .LVU301
 1354 0052 FBE7     		b	.L96
 1355              	.LVL104:
 1356              	.L100:
 649:Middlewares/Third_Party/FreeRTOS/Source/CMSIS_RTOS/cmsis_os.c ****     }
 1357              		.loc 1 649 14 view .LVU302
 1358 0054 FF20     		movs	r0, #255
 1359 0056 F9E7     		b	.L96
 1360              	.L101:
 657:Middlewares/Third_Party/FreeRTOS/Source/CMSIS_RTOS/cmsis_os.c **** }
 1361              		.loc 1 657 10 view .LVU303
 1362 0058 0020     		movs	r0, #0
 1363 005a F7E7     		b	.L96
 1364              	.L102:
 654:Middlewares/Third_Party/FreeRTOS/Source/CMSIS_RTOS/cmsis_os.c ****   }
 1365              		.loc 1 654 12 view .LVU304
 1366 005c FF20     		movs	r0, #255
 1367 005e F5E7     		b	.L96
ARM GAS  C:\Users\Lenovo\AppData\Local\Temp\cci3TShy.s 			page 42


 1368              		.cfi_endproc
 1369              	.LFE129:
 1371              		.section	.text.osMutexRelease,"ax",%progbits
 1372              		.align	1
 1373              		.global	osMutexRelease
 1374              		.syntax unified
 1375              		.thumb
 1376              		.thumb_func
 1378              	osMutexRelease:
 1379              	.LVL105:
 1380              	.LFB130:
 659:Middlewares/Third_Party/FreeRTOS/Source/CMSIS_RTOS/cmsis_os.c **** 
 660:Middlewares/Third_Party/FreeRTOS/Source/CMSIS_RTOS/cmsis_os.c **** /**
 661:Middlewares/Third_Party/FreeRTOS/Source/CMSIS_RTOS/cmsis_os.c **** * @brief Release a Mutex that was obtained by \ref osMutexWait
 662:Middlewares/Third_Party/FreeRTOS/Source/CMSIS_RTOS/cmsis_os.c **** * @param mutex_id      mutex ID obtained by \ref osMutexCreate.
 663:Middlewares/Third_Party/FreeRTOS/Source/CMSIS_RTOS/cmsis_os.c **** * @retval  status code that indicates the execution status of the function.
 664:Middlewares/Third_Party/FreeRTOS/Source/CMSIS_RTOS/cmsis_os.c **** * @note   MUST REMAIN UNCHANGED: \b osMutexRelease shall be consistent in every CMSIS-RTOS.
 665:Middlewares/Third_Party/FreeRTOS/Source/CMSIS_RTOS/cmsis_os.c **** */
 666:Middlewares/Third_Party/FreeRTOS/Source/CMSIS_RTOS/cmsis_os.c **** osStatus osMutexRelease (osMutexId mutex_id)
 667:Middlewares/Third_Party/FreeRTOS/Source/CMSIS_RTOS/cmsis_os.c **** {
 1381              		.loc 1 667 1 is_stmt 1 view -0
 1382              		.cfi_startproc
 1383              		@ args = 0, pretend = 0, frame = 8
 1384              		@ frame_needed = 0, uses_anonymous_args = 0
 1385              		.loc 1 667 1 is_stmt 0 view .LVU306
 1386 0000 10B5     		push	{r4, lr}
 1387              	.LCFI40:
 1388              		.cfi_def_cfa_offset 8
 1389              		.cfi_offset 4, -8
 1390              		.cfi_offset 14, -4
 1391 0002 82B0     		sub	sp, sp, #8
 1392              	.LCFI41:
 1393              		.cfi_def_cfa_offset 16
 1394 0004 0446     		mov	r4, r0
 668:Middlewares/Third_Party/FreeRTOS/Source/CMSIS_RTOS/cmsis_os.c ****   osStatus result = osOK;
 1395              		.loc 1 668 3 is_stmt 1 view .LVU307
 1396              	.LVL106:
 669:Middlewares/Third_Party/FreeRTOS/Source/CMSIS_RTOS/cmsis_os.c ****   portBASE_TYPE taskWoken = pdFALSE;
 1397              		.loc 1 669 3 view .LVU308
 1398              		.loc 1 669 17 is_stmt 0 view .LVU309
 1399 0006 0023     		movs	r3, #0
 1400 0008 0193     		str	r3, [sp, #4]
 670:Middlewares/Third_Party/FreeRTOS/Source/CMSIS_RTOS/cmsis_os.c ****   
 671:Middlewares/Third_Party/FreeRTOS/Source/CMSIS_RTOS/cmsis_os.c ****   if (inHandlerMode()) {
 1401              		.loc 1 671 3 is_stmt 1 view .LVU310
 1402              		.loc 1 671 7 is_stmt 0 view .LVU311
 1403 000a FFF7FEFF 		bl	inHandlerMode
 1404              	.LVL107:
 1405              		.loc 1 671 6 view .LVU312
 1406 000e 98B1     		cbz	r0, .L105
 672:Middlewares/Third_Party/FreeRTOS/Source/CMSIS_RTOS/cmsis_os.c ****     if (xSemaphoreGiveFromISR(mutex_id, &taskWoken) != pdTRUE) {
 1407              		.loc 1 672 5 is_stmt 1 view .LVU313
 1408              		.loc 1 672 9 is_stmt 0 view .LVU314
 1409 0010 01A9     		add	r1, sp, #4
 1410 0012 2046     		mov	r0, r4
 1411 0014 FFF7FEFF 		bl	xQueueGiveFromISR
 1412              	.LVL108:
ARM GAS  C:\Users\Lenovo\AppData\Local\Temp\cci3TShy.s 			page 43


 1413              		.loc 1 672 8 view .LVU315
 1414 0018 0128     		cmp	r0, #1
 1415 001a 1AD1     		bne	.L107
 673:Middlewares/Third_Party/FreeRTOS/Source/CMSIS_RTOS/cmsis_os.c ****       return osErrorOS;
 674:Middlewares/Third_Party/FreeRTOS/Source/CMSIS_RTOS/cmsis_os.c ****     }
 675:Middlewares/Third_Party/FreeRTOS/Source/CMSIS_RTOS/cmsis_os.c ****     portEND_SWITCHING_ISR(taskWoken);
 1416              		.loc 1 675 5 is_stmt 1 view .LVU316
 1417 001c 019B     		ldr	r3, [sp, #4]
 1418 001e D3B1     		cbz	r3, .L108
 1419              		.loc 1 675 5 discriminator 1 view .LVU317
 1420 0020 4FF0E023 		mov	r3, #-536813568
 1421 0024 4FF08052 		mov	r2, #268435456
 1422 0028 C3F8042D 		str	r2, [r3, #3332]
 1423              		.loc 1 675 5 discriminator 1 view .LVU318
 1424              		.syntax unified
 1425              	@ 675 "Middlewares/Third_Party/FreeRTOS/Source/CMSIS_RTOS/cmsis_os.c" 1
 1426 002c BFF34F8F 		dsb
 1427              	@ 0 "" 2
 1428              		.loc 1 675 5 discriminator 1 view .LVU319
 1429              	@ 675 "Middlewares/Third_Party/FreeRTOS/Source/CMSIS_RTOS/cmsis_os.c" 1
 1430 0030 BFF36F8F 		isb
 1431              	@ 0 "" 2
 668:Middlewares/Third_Party/FreeRTOS/Source/CMSIS_RTOS/cmsis_os.c ****   portBASE_TYPE taskWoken = pdFALSE;
 1432              		.loc 1 668 12 is_stmt 0 discriminator 1 view .LVU320
 1433              		.thumb
 1434              		.syntax unified
 1435 0034 0020     		movs	r0, #0
 1436 0036 08E0     		b	.L104
 1437              	.L105:
 676:Middlewares/Third_Party/FreeRTOS/Source/CMSIS_RTOS/cmsis_os.c ****   }
 677:Middlewares/Third_Party/FreeRTOS/Source/CMSIS_RTOS/cmsis_os.c ****   else if (xSemaphoreGive(mutex_id) != pdTRUE) 
 1438              		.loc 1 677 8 is_stmt 1 view .LVU321
 1439              		.loc 1 677 12 is_stmt 0 view .LVU322
 1440 0038 0023     		movs	r3, #0
 1441 003a 1A46     		mov	r2, r3
 1442 003c 1946     		mov	r1, r3
 1443 003e 2046     		mov	r0, r4
 1444 0040 FFF7FEFF 		bl	xQueueGenericSend
 1445              	.LVL109:
 1446              		.loc 1 677 11 view .LVU323
 1447 0044 0128     		cmp	r0, #1
 1448 0046 02D0     		beq	.L111
 678:Middlewares/Third_Party/FreeRTOS/Source/CMSIS_RTOS/cmsis_os.c ****   {
 679:Middlewares/Third_Party/FreeRTOS/Source/CMSIS_RTOS/cmsis_os.c ****     result = osErrorOS;
 1449              		.loc 1 679 12 view .LVU324
 1450 0048 FF20     		movs	r0, #255
 1451              	.LVL110:
 1452              	.L104:
 680:Middlewares/Third_Party/FreeRTOS/Source/CMSIS_RTOS/cmsis_os.c ****   }
 681:Middlewares/Third_Party/FreeRTOS/Source/CMSIS_RTOS/cmsis_os.c ****   return result;
 682:Middlewares/Third_Party/FreeRTOS/Source/CMSIS_RTOS/cmsis_os.c **** }
 1453              		.loc 1 682 1 view .LVU325
 1454 004a 02B0     		add	sp, sp, #8
 1455              	.LCFI42:
 1456              		.cfi_remember_state
 1457              		.cfi_def_cfa_offset 8
 1458              		@ sp needed
ARM GAS  C:\Users\Lenovo\AppData\Local\Temp\cci3TShy.s 			page 44


 1459 004c 10BD     		pop	{r4, pc}
 1460              	.LVL111:
 1461              	.L111:
 1462              	.LCFI43:
 1463              		.cfi_restore_state
 668:Middlewares/Third_Party/FreeRTOS/Source/CMSIS_RTOS/cmsis_os.c ****   portBASE_TYPE taskWoken = pdFALSE;
 1464              		.loc 1 668 12 view .LVU326
 1465 004e 0020     		movs	r0, #0
 1466 0050 FBE7     		b	.L104
 1467              	.L107:
 673:Middlewares/Third_Party/FreeRTOS/Source/CMSIS_RTOS/cmsis_os.c ****     }
 1468              		.loc 1 673 14 view .LVU327
 1469 0052 FF20     		movs	r0, #255
 1470 0054 F9E7     		b	.L104
 1471              	.L108:
 668:Middlewares/Third_Party/FreeRTOS/Source/CMSIS_RTOS/cmsis_os.c ****   portBASE_TYPE taskWoken = pdFALSE;
 1472              		.loc 1 668 12 view .LVU328
 1473 0056 0020     		movs	r0, #0
 1474 0058 F7E7     		b	.L104
 1475              		.cfi_endproc
 1476              	.LFE130:
 1478              		.section	.text.osMutexDelete,"ax",%progbits
 1479              		.align	1
 1480              		.global	osMutexDelete
 1481              		.syntax unified
 1482              		.thumb
 1483              		.thumb_func
 1485              	osMutexDelete:
 1486              	.LVL112:
 1487              	.LFB131:
 683:Middlewares/Third_Party/FreeRTOS/Source/CMSIS_RTOS/cmsis_os.c **** 
 684:Middlewares/Third_Party/FreeRTOS/Source/CMSIS_RTOS/cmsis_os.c **** /**
 685:Middlewares/Third_Party/FreeRTOS/Source/CMSIS_RTOS/cmsis_os.c **** * @brief Delete a Mutex
 686:Middlewares/Third_Party/FreeRTOS/Source/CMSIS_RTOS/cmsis_os.c **** * @param mutex_id  mutex ID obtained by \ref osMutexCreate.
 687:Middlewares/Third_Party/FreeRTOS/Source/CMSIS_RTOS/cmsis_os.c **** * @retval  status code that indicates the execution status of the function.
 688:Middlewares/Third_Party/FreeRTOS/Source/CMSIS_RTOS/cmsis_os.c **** * @note   MUST REMAIN UNCHANGED: \b osMutexDelete shall be consistent in every CMSIS-RTOS.
 689:Middlewares/Third_Party/FreeRTOS/Source/CMSIS_RTOS/cmsis_os.c **** */
 690:Middlewares/Third_Party/FreeRTOS/Source/CMSIS_RTOS/cmsis_os.c **** osStatus osMutexDelete (osMutexId mutex_id)
 691:Middlewares/Third_Party/FreeRTOS/Source/CMSIS_RTOS/cmsis_os.c **** {
 1488              		.loc 1 691 1 is_stmt 1 view -0
 1489              		.cfi_startproc
 1490              		@ args = 0, pretend = 0, frame = 0
 1491              		@ frame_needed = 0, uses_anonymous_args = 0
 1492              		.loc 1 691 1 is_stmt 0 view .LVU330
 1493 0000 10B5     		push	{r4, lr}
 1494              	.LCFI44:
 1495              		.cfi_def_cfa_offset 8
 1496              		.cfi_offset 4, -8
 1497              		.cfi_offset 14, -4
 1498 0002 0446     		mov	r4, r0
 692:Middlewares/Third_Party/FreeRTOS/Source/CMSIS_RTOS/cmsis_os.c ****   if (inHandlerMode()) {
 1499              		.loc 1 692 3 is_stmt 1 view .LVU331
 1500              		.loc 1 692 7 is_stmt 0 view .LVU332
 1501 0004 FFF7FEFF 		bl	inHandlerMode
 1502              	.LVL113:
 1503              		.loc 1 692 6 view .LVU333
 1504 0008 20B9     		cbnz	r0, .L114
ARM GAS  C:\Users\Lenovo\AppData\Local\Temp\cci3TShy.s 			page 45


 693:Middlewares/Third_Party/FreeRTOS/Source/CMSIS_RTOS/cmsis_os.c ****     return osErrorISR;
 694:Middlewares/Third_Party/FreeRTOS/Source/CMSIS_RTOS/cmsis_os.c ****   }
 695:Middlewares/Third_Party/FreeRTOS/Source/CMSIS_RTOS/cmsis_os.c **** 
 696:Middlewares/Third_Party/FreeRTOS/Source/CMSIS_RTOS/cmsis_os.c ****   vQueueDelete(mutex_id);
 1505              		.loc 1 696 3 is_stmt 1 view .LVU334
 1506 000a 2046     		mov	r0, r4
 1507 000c FFF7FEFF 		bl	vQueueDelete
 1508              	.LVL114:
 697:Middlewares/Third_Party/FreeRTOS/Source/CMSIS_RTOS/cmsis_os.c **** 
 698:Middlewares/Third_Party/FreeRTOS/Source/CMSIS_RTOS/cmsis_os.c ****   return osOK;
 1509              		.loc 1 698 3 view .LVU335
 1510              		.loc 1 698 10 is_stmt 0 view .LVU336
 1511 0010 0020     		movs	r0, #0
 1512              	.L112:
 699:Middlewares/Third_Party/FreeRTOS/Source/CMSIS_RTOS/cmsis_os.c **** }
 1513              		.loc 1 699 1 view .LVU337
 1514 0012 10BD     		pop	{r4, pc}
 1515              	.LVL115:
 1516              	.L114:
 693:Middlewares/Third_Party/FreeRTOS/Source/CMSIS_RTOS/cmsis_os.c ****     return osErrorISR;
 1517              		.loc 1 693 12 view .LVU338
 1518 0014 8220     		movs	r0, #130
 1519 0016 FCE7     		b	.L112
 1520              		.cfi_endproc
 1521              	.LFE131:
 1523              		.section	.text.osSemaphoreCreate,"ax",%progbits
 1524              		.align	1
 1525              		.global	osSemaphoreCreate
 1526              		.syntax unified
 1527              		.thumb
 1528              		.thumb_func
 1530              	osSemaphoreCreate:
 1531              	.LVL116:
 1532              	.LFB132:
 700:Middlewares/Third_Party/FreeRTOS/Source/CMSIS_RTOS/cmsis_os.c **** 
 701:Middlewares/Third_Party/FreeRTOS/Source/CMSIS_RTOS/cmsis_os.c **** /********************  Semaphore Management Functions **************************/
 702:Middlewares/Third_Party/FreeRTOS/Source/CMSIS_RTOS/cmsis_os.c **** 
 703:Middlewares/Third_Party/FreeRTOS/Source/CMSIS_RTOS/cmsis_os.c **** #if (defined (osFeature_Semaphore)  &&  (osFeature_Semaphore != 0))
 704:Middlewares/Third_Party/FreeRTOS/Source/CMSIS_RTOS/cmsis_os.c **** 
 705:Middlewares/Third_Party/FreeRTOS/Source/CMSIS_RTOS/cmsis_os.c **** /**
 706:Middlewares/Third_Party/FreeRTOS/Source/CMSIS_RTOS/cmsis_os.c **** * @brief Create and Initialize a Semaphore object used for managing resources
 707:Middlewares/Third_Party/FreeRTOS/Source/CMSIS_RTOS/cmsis_os.c **** * @param semaphore_def semaphore definition referenced with \ref osSemaphore.
 708:Middlewares/Third_Party/FreeRTOS/Source/CMSIS_RTOS/cmsis_os.c **** * @param count         number of available resources.
 709:Middlewares/Third_Party/FreeRTOS/Source/CMSIS_RTOS/cmsis_os.c **** * @retval  semaphore ID for reference by other functions or NULL in case of error.
 710:Middlewares/Third_Party/FreeRTOS/Source/CMSIS_RTOS/cmsis_os.c **** * @note   MUST REMAIN UNCHANGED: \b osSemaphoreCreate shall be consistent in every CMSIS-RTOS.
 711:Middlewares/Third_Party/FreeRTOS/Source/CMSIS_RTOS/cmsis_os.c **** */
 712:Middlewares/Third_Party/FreeRTOS/Source/CMSIS_RTOS/cmsis_os.c **** osSemaphoreId osSemaphoreCreate (const osSemaphoreDef_t *semaphore_def, int32_t count)
 713:Middlewares/Third_Party/FreeRTOS/Source/CMSIS_RTOS/cmsis_os.c **** { 
 1533              		.loc 1 713 1 is_stmt 1 view -0
 1534              		.cfi_startproc
 1535              		@ args = 0, pretend = 0, frame = 0
 1536              		@ frame_needed = 0, uses_anonymous_args = 0
 1537              		.loc 1 713 1 is_stmt 0 view .LVU340
 1538 0000 10B5     		push	{r4, lr}
 1539              	.LCFI45:
 1540              		.cfi_def_cfa_offset 8
 1541              		.cfi_offset 4, -8
ARM GAS  C:\Users\Lenovo\AppData\Local\Temp\cci3TShy.s 			page 46


 1542              		.cfi_offset 14, -4
 1543 0002 82B0     		sub	sp, sp, #8
 1544              	.LCFI46:
 1545              		.cfi_def_cfa_offset 16
 714:Middlewares/Third_Party/FreeRTOS/Source/CMSIS_RTOS/cmsis_os.c **** #if( configSUPPORT_STATIC_ALLOCATION == 1 ) && ( configSUPPORT_DYNAMIC_ALLOCATION == 1 )
 715:Middlewares/Third_Party/FreeRTOS/Source/CMSIS_RTOS/cmsis_os.c **** 
 716:Middlewares/Third_Party/FreeRTOS/Source/CMSIS_RTOS/cmsis_os.c ****   osSemaphoreId sema;
 1546              		.loc 1 716 3 is_stmt 1 view .LVU341
 717:Middlewares/Third_Party/FreeRTOS/Source/CMSIS_RTOS/cmsis_os.c ****   
 718:Middlewares/Third_Party/FreeRTOS/Source/CMSIS_RTOS/cmsis_os.c ****   if (semaphore_def->controlblock != NULL){
 1547              		.loc 1 718 3 view .LVU342
 1548              		.loc 1 718 20 is_stmt 0 view .LVU343
 1549 0004 4268     		ldr	r2, [r0, #4]
 1550              		.loc 1 718 6 view .LVU344
 1551 0006 92B1     		cbz	r2, .L117
 719:Middlewares/Third_Party/FreeRTOS/Source/CMSIS_RTOS/cmsis_os.c ****     if (count == 1) {
 1552              		.loc 1 719 5 is_stmt 1 view .LVU345
 1553              		.loc 1 719 8 is_stmt 0 view .LVU346
 1554 0008 0129     		cmp	r1, #1
 1555 000a 06D0     		beq	.L123
 720:Middlewares/Third_Party/FreeRTOS/Source/CMSIS_RTOS/cmsis_os.c ****       return xSemaphoreCreateBinaryStatic( semaphore_def->controlblock );
 721:Middlewares/Third_Party/FreeRTOS/Source/CMSIS_RTOS/cmsis_os.c ****     }
 722:Middlewares/Third_Party/FreeRTOS/Source/CMSIS_RTOS/cmsis_os.c ****     else {
 723:Middlewares/Third_Party/FreeRTOS/Source/CMSIS_RTOS/cmsis_os.c **** #if (configUSE_COUNTING_SEMAPHORES == 1 )
 724:Middlewares/Third_Party/FreeRTOS/Source/CMSIS_RTOS/cmsis_os.c ****       return xSemaphoreCreateCountingStatic( count, count, semaphore_def->controlblock );
 1556              		.loc 1 724 7 is_stmt 1 view .LVU347
 1557              		.loc 1 724 14 is_stmt 0 view .LVU348
 1558 000c 0846     		mov	r0, r1
 1559              	.LVL117:
 1560              		.loc 1 724 14 view .LVU349
 1561 000e FFF7FEFF 		bl	xQueueCreateCountingSemaphoreStatic
 1562              	.LVL118:
 1563              		.loc 1 724 14 view .LVU350
 1564 0012 0446     		mov	r4, r0
 1565              	.L116:
 725:Middlewares/Third_Party/FreeRTOS/Source/CMSIS_RTOS/cmsis_os.c **** #else
 726:Middlewares/Third_Party/FreeRTOS/Source/CMSIS_RTOS/cmsis_os.c ****       return NULL;
 727:Middlewares/Third_Party/FreeRTOS/Source/CMSIS_RTOS/cmsis_os.c **** #endif
 728:Middlewares/Third_Party/FreeRTOS/Source/CMSIS_RTOS/cmsis_os.c ****     }
 729:Middlewares/Third_Party/FreeRTOS/Source/CMSIS_RTOS/cmsis_os.c ****   }
 730:Middlewares/Third_Party/FreeRTOS/Source/CMSIS_RTOS/cmsis_os.c ****   else {
 731:Middlewares/Third_Party/FreeRTOS/Source/CMSIS_RTOS/cmsis_os.c ****     if (count == 1) {
 732:Middlewares/Third_Party/FreeRTOS/Source/CMSIS_RTOS/cmsis_os.c ****       vSemaphoreCreateBinary(sema);
 733:Middlewares/Third_Party/FreeRTOS/Source/CMSIS_RTOS/cmsis_os.c ****       return sema;
 734:Middlewares/Third_Party/FreeRTOS/Source/CMSIS_RTOS/cmsis_os.c ****     }
 735:Middlewares/Third_Party/FreeRTOS/Source/CMSIS_RTOS/cmsis_os.c ****     else {
 736:Middlewares/Third_Party/FreeRTOS/Source/CMSIS_RTOS/cmsis_os.c **** #if (configUSE_COUNTING_SEMAPHORES == 1 )	
 737:Middlewares/Third_Party/FreeRTOS/Source/CMSIS_RTOS/cmsis_os.c ****       return xSemaphoreCreateCounting(count, count);
 738:Middlewares/Third_Party/FreeRTOS/Source/CMSIS_RTOS/cmsis_os.c **** #else
 739:Middlewares/Third_Party/FreeRTOS/Source/CMSIS_RTOS/cmsis_os.c ****       return NULL;
 740:Middlewares/Third_Party/FreeRTOS/Source/CMSIS_RTOS/cmsis_os.c **** #endif    
 741:Middlewares/Third_Party/FreeRTOS/Source/CMSIS_RTOS/cmsis_os.c ****     }
 742:Middlewares/Third_Party/FreeRTOS/Source/CMSIS_RTOS/cmsis_os.c ****   }
 743:Middlewares/Third_Party/FreeRTOS/Source/CMSIS_RTOS/cmsis_os.c **** #elif ( configSUPPORT_STATIC_ALLOCATION == 1 ) // configSUPPORT_DYNAMIC_ALLOCATION == 0
 744:Middlewares/Third_Party/FreeRTOS/Source/CMSIS_RTOS/cmsis_os.c ****   if(count == 1) {
 745:Middlewares/Third_Party/FreeRTOS/Source/CMSIS_RTOS/cmsis_os.c ****     return xSemaphoreCreateBinaryStatic( semaphore_def->controlblock );
 746:Middlewares/Third_Party/FreeRTOS/Source/CMSIS_RTOS/cmsis_os.c ****   }
ARM GAS  C:\Users\Lenovo\AppData\Local\Temp\cci3TShy.s 			page 47


 747:Middlewares/Third_Party/FreeRTOS/Source/CMSIS_RTOS/cmsis_os.c ****   else
 748:Middlewares/Third_Party/FreeRTOS/Source/CMSIS_RTOS/cmsis_os.c ****   {
 749:Middlewares/Third_Party/FreeRTOS/Source/CMSIS_RTOS/cmsis_os.c **** #if (configUSE_COUNTING_SEMAPHORES == 1 )
 750:Middlewares/Third_Party/FreeRTOS/Source/CMSIS_RTOS/cmsis_os.c ****       return xSemaphoreCreateCountingStatic( count, count, semaphore_def->controlblock );
 751:Middlewares/Third_Party/FreeRTOS/Source/CMSIS_RTOS/cmsis_os.c **** #else
 752:Middlewares/Third_Party/FreeRTOS/Source/CMSIS_RTOS/cmsis_os.c ****       return NULL;
 753:Middlewares/Third_Party/FreeRTOS/Source/CMSIS_RTOS/cmsis_os.c **** #endif    
 754:Middlewares/Third_Party/FreeRTOS/Source/CMSIS_RTOS/cmsis_os.c ****   }
 755:Middlewares/Third_Party/FreeRTOS/Source/CMSIS_RTOS/cmsis_os.c **** #else  // configSUPPORT_STATIC_ALLOCATION == 0  && configSUPPORT_DYNAMIC_ALLOCATION == 1
 756:Middlewares/Third_Party/FreeRTOS/Source/CMSIS_RTOS/cmsis_os.c ****   osSemaphoreId sema;
 757:Middlewares/Third_Party/FreeRTOS/Source/CMSIS_RTOS/cmsis_os.c ****  
 758:Middlewares/Third_Party/FreeRTOS/Source/CMSIS_RTOS/cmsis_os.c ****   if (count == 1) {
 759:Middlewares/Third_Party/FreeRTOS/Source/CMSIS_RTOS/cmsis_os.c ****     vSemaphoreCreateBinary(sema);
 760:Middlewares/Third_Party/FreeRTOS/Source/CMSIS_RTOS/cmsis_os.c ****     return sema;
 761:Middlewares/Third_Party/FreeRTOS/Source/CMSIS_RTOS/cmsis_os.c ****   }
 762:Middlewares/Third_Party/FreeRTOS/Source/CMSIS_RTOS/cmsis_os.c ****   else {
 763:Middlewares/Third_Party/FreeRTOS/Source/CMSIS_RTOS/cmsis_os.c **** #if (configUSE_COUNTING_SEMAPHORES == 1 )	
 764:Middlewares/Third_Party/FreeRTOS/Source/CMSIS_RTOS/cmsis_os.c ****     return xSemaphoreCreateCounting(count, count);
 765:Middlewares/Third_Party/FreeRTOS/Source/CMSIS_RTOS/cmsis_os.c **** #else
 766:Middlewares/Third_Party/FreeRTOS/Source/CMSIS_RTOS/cmsis_os.c ****     return NULL;
 767:Middlewares/Third_Party/FreeRTOS/Source/CMSIS_RTOS/cmsis_os.c **** #endif
 768:Middlewares/Third_Party/FreeRTOS/Source/CMSIS_RTOS/cmsis_os.c ****   }
 769:Middlewares/Third_Party/FreeRTOS/Source/CMSIS_RTOS/cmsis_os.c **** #endif
 770:Middlewares/Third_Party/FreeRTOS/Source/CMSIS_RTOS/cmsis_os.c **** }
 1566              		.loc 1 770 1 view .LVU351
 1567 0014 2046     		mov	r0, r4
 1568 0016 02B0     		add	sp, sp, #8
 1569              	.LCFI47:
 1570              		.cfi_remember_state
 1571              		.cfi_def_cfa_offset 8
 1572              		@ sp needed
 1573 0018 10BD     		pop	{r4, pc}
 1574              	.LVL119:
 1575              	.L123:
 1576              	.LCFI48:
 1577              		.cfi_restore_state
 720:Middlewares/Third_Party/FreeRTOS/Source/CMSIS_RTOS/cmsis_os.c ****       return xSemaphoreCreateBinaryStatic( semaphore_def->controlblock );
 1578              		.loc 1 720 7 is_stmt 1 view .LVU352
 720:Middlewares/Third_Party/FreeRTOS/Source/CMSIS_RTOS/cmsis_os.c ****       return xSemaphoreCreateBinaryStatic( semaphore_def->controlblock );
 1579              		.loc 1 720 14 is_stmt 0 view .LVU353
 1580 001a 0323     		movs	r3, #3
 1581 001c 0093     		str	r3, [sp]
 1582 001e 1346     		mov	r3, r2
 1583 0020 0022     		movs	r2, #0
 1584 0022 1146     		mov	r1, r2
 1585              	.LVL120:
 720:Middlewares/Third_Party/FreeRTOS/Source/CMSIS_RTOS/cmsis_os.c ****       return xSemaphoreCreateBinaryStatic( semaphore_def->controlblock );
 1586              		.loc 1 720 14 view .LVU354
 1587 0024 0120     		movs	r0, #1
 1588              	.LVL121:
 720:Middlewares/Third_Party/FreeRTOS/Source/CMSIS_RTOS/cmsis_os.c ****       return xSemaphoreCreateBinaryStatic( semaphore_def->controlblock );
 1589              		.loc 1 720 14 view .LVU355
 1590 0026 FFF7FEFF 		bl	xQueueGenericCreateStatic
 1591              	.LVL122:
 1592 002a 0446     		mov	r4, r0
 1593 002c F2E7     		b	.L116
 1594              	.LVL123:
ARM GAS  C:\Users\Lenovo\AppData\Local\Temp\cci3TShy.s 			page 48


 1595              	.L117:
 731:Middlewares/Third_Party/FreeRTOS/Source/CMSIS_RTOS/cmsis_os.c ****       vSemaphoreCreateBinary(sema);
 1596              		.loc 1 731 5 is_stmt 1 view .LVU356
 731:Middlewares/Third_Party/FreeRTOS/Source/CMSIS_RTOS/cmsis_os.c ****       vSemaphoreCreateBinary(sema);
 1597              		.loc 1 731 8 is_stmt 0 view .LVU357
 1598 002e 0129     		cmp	r1, #1
 1599 0030 04D0     		beq	.L124
 737:Middlewares/Third_Party/FreeRTOS/Source/CMSIS_RTOS/cmsis_os.c **** #else
 1600              		.loc 1 737 7 is_stmt 1 view .LVU358
 737:Middlewares/Third_Party/FreeRTOS/Source/CMSIS_RTOS/cmsis_os.c **** #else
 1601              		.loc 1 737 14 is_stmt 0 view .LVU359
 1602 0032 0846     		mov	r0, r1
 1603              	.LVL124:
 737:Middlewares/Third_Party/FreeRTOS/Source/CMSIS_RTOS/cmsis_os.c **** #else
 1604              		.loc 1 737 14 view .LVU360
 1605 0034 FFF7FEFF 		bl	xQueueCreateCountingSemaphore
 1606              	.LVL125:
 737:Middlewares/Third_Party/FreeRTOS/Source/CMSIS_RTOS/cmsis_os.c **** #else
 1607              		.loc 1 737 14 view .LVU361
 1608 0038 0446     		mov	r4, r0
 1609 003a EBE7     		b	.L116
 1610              	.LVL126:
 1611              	.L124:
 732:Middlewares/Third_Party/FreeRTOS/Source/CMSIS_RTOS/cmsis_os.c ****       return sema;
 1612              		.loc 1 732 7 is_stmt 1 view .LVU362
 1613 003c 0322     		movs	r2, #3
 1614 003e 0021     		movs	r1, #0
 1615              	.LVL127:
 732:Middlewares/Third_Party/FreeRTOS/Source/CMSIS_RTOS/cmsis_os.c ****       return sema;
 1616              		.loc 1 732 7 is_stmt 0 view .LVU363
 1617 0040 0120     		movs	r0, #1
 1618              	.LVL128:
 732:Middlewares/Third_Party/FreeRTOS/Source/CMSIS_RTOS/cmsis_os.c ****       return sema;
 1619              		.loc 1 732 7 view .LVU364
 1620 0042 FFF7FEFF 		bl	xQueueGenericCreate
 1621              	.LVL129:
 732:Middlewares/Third_Party/FreeRTOS/Source/CMSIS_RTOS/cmsis_os.c ****       return sema;
 1622              		.loc 1 732 7 is_stmt 1 view .LVU365
 1623 0046 0446     		mov	r4, r0
 1624 0048 0028     		cmp	r0, #0
 1625 004a E3D0     		beq	.L116
 732:Middlewares/Third_Party/FreeRTOS/Source/CMSIS_RTOS/cmsis_os.c ****       return sema;
 1626              		.loc 1 732 7 discriminator 1 view .LVU366
 1627 004c 0023     		movs	r3, #0
 1628 004e 1A46     		mov	r2, r3
 1629 0050 1946     		mov	r1, r3
 1630 0052 FFF7FEFF 		bl	xQueueGenericSend
 1631              	.LVL130:
 732:Middlewares/Third_Party/FreeRTOS/Source/CMSIS_RTOS/cmsis_os.c ****       return sema;
 1632              		.loc 1 732 35 discriminator 1 view .LVU367
 733:Middlewares/Third_Party/FreeRTOS/Source/CMSIS_RTOS/cmsis_os.c ****     }
 1633              		.loc 1 733 7 discriminator 1 view .LVU368
 733:Middlewares/Third_Party/FreeRTOS/Source/CMSIS_RTOS/cmsis_os.c ****     }
 1634              		.loc 1 733 14 is_stmt 0 discriminator 1 view .LVU369
 1635 0056 DDE7     		b	.L116
 1636              		.cfi_endproc
 1637              	.LFE132:
ARM GAS  C:\Users\Lenovo\AppData\Local\Temp\cci3TShy.s 			page 49


 1639              		.section	.text.osSemaphoreWait,"ax",%progbits
 1640              		.align	1
 1641              		.global	osSemaphoreWait
 1642              		.syntax unified
 1643              		.thumb
 1644              		.thumb_func
 1646              	osSemaphoreWait:
 1647              	.LVL131:
 1648              	.LFB133:
 771:Middlewares/Third_Party/FreeRTOS/Source/CMSIS_RTOS/cmsis_os.c **** 
 772:Middlewares/Third_Party/FreeRTOS/Source/CMSIS_RTOS/cmsis_os.c **** /**
 773:Middlewares/Third_Party/FreeRTOS/Source/CMSIS_RTOS/cmsis_os.c **** * @brief Wait until a Semaphore token becomes available
 774:Middlewares/Third_Party/FreeRTOS/Source/CMSIS_RTOS/cmsis_os.c **** * @param  semaphore_id  semaphore object referenced with \ref osSemaphore.
 775:Middlewares/Third_Party/FreeRTOS/Source/CMSIS_RTOS/cmsis_os.c **** * @param  millisec      timeout value or 0 in case of no time-out.
 776:Middlewares/Third_Party/FreeRTOS/Source/CMSIS_RTOS/cmsis_os.c **** * @retval  number of available tokens, or -1 in case of incorrect parameters.
 777:Middlewares/Third_Party/FreeRTOS/Source/CMSIS_RTOS/cmsis_os.c **** * @note   MUST REMAIN UNCHANGED: \b osSemaphoreWait shall be consistent in every CMSIS-RTOS.
 778:Middlewares/Third_Party/FreeRTOS/Source/CMSIS_RTOS/cmsis_os.c **** */
 779:Middlewares/Third_Party/FreeRTOS/Source/CMSIS_RTOS/cmsis_os.c **** int32_t osSemaphoreWait (osSemaphoreId semaphore_id, uint32_t millisec)
 780:Middlewares/Third_Party/FreeRTOS/Source/CMSIS_RTOS/cmsis_os.c **** {
 1649              		.loc 1 780 1 is_stmt 1 view -0
 1650              		.cfi_startproc
 1651              		@ args = 0, pretend = 0, frame = 8
 1652              		@ frame_needed = 0, uses_anonymous_args = 0
 1653              		.loc 1 780 1 is_stmt 0 view .LVU371
 1654 0000 70B5     		push	{r4, r5, r6, lr}
 1655              	.LCFI49:
 1656              		.cfi_def_cfa_offset 16
 1657              		.cfi_offset 4, -16
 1658              		.cfi_offset 5, -12
 1659              		.cfi_offset 6, -8
 1660              		.cfi_offset 14, -4
 1661 0002 82B0     		sub	sp, sp, #8
 1662              	.LCFI50:
 1663              		.cfi_def_cfa_offset 24
 781:Middlewares/Third_Party/FreeRTOS/Source/CMSIS_RTOS/cmsis_os.c ****   TickType_t ticks;
 1664              		.loc 1 781 3 is_stmt 1 view .LVU372
 782:Middlewares/Third_Party/FreeRTOS/Source/CMSIS_RTOS/cmsis_os.c ****   portBASE_TYPE taskWoken = pdFALSE;  
 1665              		.loc 1 782 3 view .LVU373
 1666              		.loc 1 782 17 is_stmt 0 view .LVU374
 1667 0004 0023     		movs	r3, #0
 1668 0006 0193     		str	r3, [sp, #4]
 783:Middlewares/Third_Party/FreeRTOS/Source/CMSIS_RTOS/cmsis_os.c ****   
 784:Middlewares/Third_Party/FreeRTOS/Source/CMSIS_RTOS/cmsis_os.c ****   
 785:Middlewares/Third_Party/FreeRTOS/Source/CMSIS_RTOS/cmsis_os.c ****   if (semaphore_id == NULL) {
 1669              		.loc 1 785 3 is_stmt 1 view .LVU375
 1670              		.loc 1 785 6 is_stmt 0 view .LVU376
 1671 0008 18B3     		cbz	r0, .L128
 1672 000a 0C46     		mov	r4, r1
 1673 000c 0646     		mov	r6, r0
 786:Middlewares/Third_Party/FreeRTOS/Source/CMSIS_RTOS/cmsis_os.c ****     return osErrorParameter;
 787:Middlewares/Third_Party/FreeRTOS/Source/CMSIS_RTOS/cmsis_os.c ****   }
 788:Middlewares/Third_Party/FreeRTOS/Source/CMSIS_RTOS/cmsis_os.c ****   
 789:Middlewares/Third_Party/FreeRTOS/Source/CMSIS_RTOS/cmsis_os.c ****   ticks = 0;
 1674              		.loc 1 789 3 is_stmt 1 view .LVU377
 1675              	.LVL132:
 790:Middlewares/Third_Party/FreeRTOS/Source/CMSIS_RTOS/cmsis_os.c ****   if (millisec == osWaitForever) {
 1676              		.loc 1 790 3 view .LVU378
ARM GAS  C:\Users\Lenovo\AppData\Local\Temp\cci3TShy.s 			page 50


 791:Middlewares/Third_Party/FreeRTOS/Source/CMSIS_RTOS/cmsis_os.c ****     ticks = portMAX_DELAY;
 792:Middlewares/Third_Party/FreeRTOS/Source/CMSIS_RTOS/cmsis_os.c ****   }
 793:Middlewares/Third_Party/FreeRTOS/Source/CMSIS_RTOS/cmsis_os.c ****   else if (millisec != 0) {
 794:Middlewares/Third_Party/FreeRTOS/Source/CMSIS_RTOS/cmsis_os.c ****     ticks = millisec / portTICK_PERIOD_MS;
 795:Middlewares/Third_Party/FreeRTOS/Source/CMSIS_RTOS/cmsis_os.c ****     if (ticks == 0) {
 796:Middlewares/Third_Party/FreeRTOS/Source/CMSIS_RTOS/cmsis_os.c ****       ticks = 1;
 797:Middlewares/Third_Party/FreeRTOS/Source/CMSIS_RTOS/cmsis_os.c ****     }
 798:Middlewares/Third_Party/FreeRTOS/Source/CMSIS_RTOS/cmsis_os.c ****   }
 799:Middlewares/Third_Party/FreeRTOS/Source/CMSIS_RTOS/cmsis_os.c ****   
 800:Middlewares/Third_Party/FreeRTOS/Source/CMSIS_RTOS/cmsis_os.c ****   if (inHandlerMode()) {
 1677              		.loc 1 800 3 view .LVU379
 1678              		.loc 1 800 7 is_stmt 0 view .LVU380
 1679 000e FFF7FEFF 		bl	inHandlerMode
 1680              	.LVL133:
 1681              		.loc 1 800 6 view .LVU381
 1682 0012 0546     		mov	r5, r0
 1683 0014 A0B1     		cbz	r0, .L127
 801:Middlewares/Third_Party/FreeRTOS/Source/CMSIS_RTOS/cmsis_os.c ****     if (xSemaphoreTakeFromISR(semaphore_id, &taskWoken) != pdTRUE) {
 1684              		.loc 1 801 5 is_stmt 1 view .LVU382
 1685              		.loc 1 801 9 is_stmt 0 view .LVU383
 1686 0016 01AA     		add	r2, sp, #4
 1687 0018 0021     		movs	r1, #0
 1688 001a 3046     		mov	r0, r6
 1689 001c FFF7FEFF 		bl	xQueueReceiveFromISR
 1690              	.LVL134:
 1691              		.loc 1 801 8 view .LVU384
 1692 0020 0128     		cmp	r0, #1
 1693 0022 18D1     		bne	.L129
 802:Middlewares/Third_Party/FreeRTOS/Source/CMSIS_RTOS/cmsis_os.c ****       return osErrorOS;
 803:Middlewares/Third_Party/FreeRTOS/Source/CMSIS_RTOS/cmsis_os.c ****     }
 804:Middlewares/Third_Party/FreeRTOS/Source/CMSIS_RTOS/cmsis_os.c **** 	portEND_SWITCHING_ISR(taskWoken);
 1694              		.loc 1 804 2 is_stmt 1 view .LVU385
 1695 0024 019D     		ldr	r5, [sp, #4]
 1696 0026 8DB1     		cbz	r5, .L125
 1697              		.loc 1 804 2 discriminator 1 view .LVU386
 1698 0028 4FF0E023 		mov	r3, #-536813568
 1699 002c 4FF08052 		mov	r2, #268435456
 1700 0030 C3F8042D 		str	r2, [r3, #3332]
 1701              		.loc 1 804 2 discriminator 1 view .LVU387
 1702              		.syntax unified
 1703              	@ 804 "Middlewares/Third_Party/FreeRTOS/Source/CMSIS_RTOS/cmsis_os.c" 1
 1704 0034 BFF34F8F 		dsb
 1705              	@ 0 "" 2
 1706              		.loc 1 804 2 discriminator 1 view .LVU388
 1707              	@ 804 "Middlewares/Third_Party/FreeRTOS/Source/CMSIS_RTOS/cmsis_os.c" 1
 1708 0038 BFF36F8F 		isb
 1709              	@ 0 "" 2
 805:Middlewares/Third_Party/FreeRTOS/Source/CMSIS_RTOS/cmsis_os.c ****   }  
 806:Middlewares/Third_Party/FreeRTOS/Source/CMSIS_RTOS/cmsis_os.c ****   else if (xSemaphoreTake(semaphore_id, ticks) != pdTRUE) {
 807:Middlewares/Third_Party/FreeRTOS/Source/CMSIS_RTOS/cmsis_os.c ****     return osErrorOS;
 808:Middlewares/Third_Party/FreeRTOS/Source/CMSIS_RTOS/cmsis_os.c ****   }
 809:Middlewares/Third_Party/FreeRTOS/Source/CMSIS_RTOS/cmsis_os.c ****   
 810:Middlewares/Third_Party/FreeRTOS/Source/CMSIS_RTOS/cmsis_os.c ****   return osOK;
 1710              		.loc 1 810 10 is_stmt 0 discriminator 1 view .LVU389
 1711              		.thumb
 1712              		.syntax unified
 1713 003c 0025     		movs	r5, #0
ARM GAS  C:\Users\Lenovo\AppData\Local\Temp\cci3TShy.s 			page 51


 1714 003e 05E0     		b	.L125
 1715              	.L127:
 806:Middlewares/Third_Party/FreeRTOS/Source/CMSIS_RTOS/cmsis_os.c ****     return osErrorOS;
 1716              		.loc 1 806 8 is_stmt 1 view .LVU390
 806:Middlewares/Third_Party/FreeRTOS/Source/CMSIS_RTOS/cmsis_os.c ****     return osErrorOS;
 1717              		.loc 1 806 12 is_stmt 0 view .LVU391
 1718 0040 2146     		mov	r1, r4
 1719 0042 3046     		mov	r0, r6
 1720 0044 FFF7FEFF 		bl	xQueueSemaphoreTake
 1721              	.LVL135:
 806:Middlewares/Third_Party/FreeRTOS/Source/CMSIS_RTOS/cmsis_os.c ****     return osErrorOS;
 1722              		.loc 1 806 11 view .LVU392
 1723 0048 0128     		cmp	r0, #1
 1724 004a 06D1     		bne	.L132
 1725              	.LVL136:
 1726              	.L125:
 811:Middlewares/Third_Party/FreeRTOS/Source/CMSIS_RTOS/cmsis_os.c **** }
 1727              		.loc 1 811 1 view .LVU393
 1728 004c 2846     		mov	r0, r5
 1729 004e 02B0     		add	sp, sp, #8
 1730              	.LCFI51:
 1731              		.cfi_remember_state
 1732              		.cfi_def_cfa_offset 16
 1733              		@ sp needed
 1734 0050 70BD     		pop	{r4, r5, r6, pc}
 1735              	.LVL137:
 1736              	.L128:
 1737              	.LCFI52:
 1738              		.cfi_restore_state
 786:Middlewares/Third_Party/FreeRTOS/Source/CMSIS_RTOS/cmsis_os.c ****   }
 1739              		.loc 1 786 12 view .LVU394
 1740 0052 8025     		movs	r5, #128
 1741 0054 FAE7     		b	.L125
 1742              	.LVL138:
 1743              	.L129:
 802:Middlewares/Third_Party/FreeRTOS/Source/CMSIS_RTOS/cmsis_os.c ****     }
 1744              		.loc 1 802 14 view .LVU395
 1745 0056 FF25     		movs	r5, #255
 1746 0058 F8E7     		b	.L125
 1747              	.L132:
 807:Middlewares/Third_Party/FreeRTOS/Source/CMSIS_RTOS/cmsis_os.c ****   }
 1748              		.loc 1 807 12 view .LVU396
 1749 005a FF25     		movs	r5, #255
 1750 005c F6E7     		b	.L125
 1751              		.cfi_endproc
 1752              	.LFE133:
 1754              		.section	.text.osSemaphoreRelease,"ax",%progbits
 1755              		.align	1
 1756              		.global	osSemaphoreRelease
 1757              		.syntax unified
 1758              		.thumb
 1759              		.thumb_func
 1761              	osSemaphoreRelease:
 1762              	.LVL139:
 1763              	.LFB134:
 812:Middlewares/Third_Party/FreeRTOS/Source/CMSIS_RTOS/cmsis_os.c **** 
 813:Middlewares/Third_Party/FreeRTOS/Source/CMSIS_RTOS/cmsis_os.c **** /**
ARM GAS  C:\Users\Lenovo\AppData\Local\Temp\cci3TShy.s 			page 52


 814:Middlewares/Third_Party/FreeRTOS/Source/CMSIS_RTOS/cmsis_os.c **** * @brief Release a Semaphore token
 815:Middlewares/Third_Party/FreeRTOS/Source/CMSIS_RTOS/cmsis_os.c **** * @param  semaphore_id  semaphore object referenced with \ref osSemaphore.
 816:Middlewares/Third_Party/FreeRTOS/Source/CMSIS_RTOS/cmsis_os.c **** * @retval  status code that indicates the execution status of the function.
 817:Middlewares/Third_Party/FreeRTOS/Source/CMSIS_RTOS/cmsis_os.c **** * @note   MUST REMAIN UNCHANGED: \b osSemaphoreRelease shall be consistent in every CMSIS-RTOS.
 818:Middlewares/Third_Party/FreeRTOS/Source/CMSIS_RTOS/cmsis_os.c **** */
 819:Middlewares/Third_Party/FreeRTOS/Source/CMSIS_RTOS/cmsis_os.c **** osStatus osSemaphoreRelease (osSemaphoreId semaphore_id)
 820:Middlewares/Third_Party/FreeRTOS/Source/CMSIS_RTOS/cmsis_os.c **** {
 1764              		.loc 1 820 1 is_stmt 1 view -0
 1765              		.cfi_startproc
 1766              		@ args = 0, pretend = 0, frame = 8
 1767              		@ frame_needed = 0, uses_anonymous_args = 0
 1768              		.loc 1 820 1 is_stmt 0 view .LVU398
 1769 0000 10B5     		push	{r4, lr}
 1770              	.LCFI53:
 1771              		.cfi_def_cfa_offset 8
 1772              		.cfi_offset 4, -8
 1773              		.cfi_offset 14, -4
 1774 0002 82B0     		sub	sp, sp, #8
 1775              	.LCFI54:
 1776              		.cfi_def_cfa_offset 16
 1777 0004 0446     		mov	r4, r0
 821:Middlewares/Third_Party/FreeRTOS/Source/CMSIS_RTOS/cmsis_os.c ****   osStatus result = osOK;
 1778              		.loc 1 821 3 is_stmt 1 view .LVU399
 1779              	.LVL140:
 822:Middlewares/Third_Party/FreeRTOS/Source/CMSIS_RTOS/cmsis_os.c ****   portBASE_TYPE taskWoken = pdFALSE;
 1780              		.loc 1 822 3 view .LVU400
 1781              		.loc 1 822 17 is_stmt 0 view .LVU401
 1782 0006 0023     		movs	r3, #0
 1783 0008 0193     		str	r3, [sp, #4]
 823:Middlewares/Third_Party/FreeRTOS/Source/CMSIS_RTOS/cmsis_os.c ****   
 824:Middlewares/Third_Party/FreeRTOS/Source/CMSIS_RTOS/cmsis_os.c ****   
 825:Middlewares/Third_Party/FreeRTOS/Source/CMSIS_RTOS/cmsis_os.c ****   if (inHandlerMode()) {
 1784              		.loc 1 825 3 is_stmt 1 view .LVU402
 1785              		.loc 1 825 7 is_stmt 0 view .LVU403
 1786 000a FFF7FEFF 		bl	inHandlerMode
 1787              	.LVL141:
 1788              		.loc 1 825 6 view .LVU404
 1789 000e 98B1     		cbz	r0, .L134
 826:Middlewares/Third_Party/FreeRTOS/Source/CMSIS_RTOS/cmsis_os.c ****     if (xSemaphoreGiveFromISR(semaphore_id, &taskWoken) != pdTRUE) {
 1790              		.loc 1 826 5 is_stmt 1 view .LVU405
 1791              		.loc 1 826 9 is_stmt 0 view .LVU406
 1792 0010 01A9     		add	r1, sp, #4
 1793 0012 2046     		mov	r0, r4
 1794 0014 FFF7FEFF 		bl	xQueueGiveFromISR
 1795              	.LVL142:
 1796              		.loc 1 826 8 view .LVU407
 1797 0018 0128     		cmp	r0, #1
 1798 001a 1AD1     		bne	.L136
 827:Middlewares/Third_Party/FreeRTOS/Source/CMSIS_RTOS/cmsis_os.c ****       return osErrorOS;
 828:Middlewares/Third_Party/FreeRTOS/Source/CMSIS_RTOS/cmsis_os.c ****     }
 829:Middlewares/Third_Party/FreeRTOS/Source/CMSIS_RTOS/cmsis_os.c ****     portEND_SWITCHING_ISR(taskWoken);
 1799              		.loc 1 829 5 is_stmt 1 view .LVU408
 1800 001c 019B     		ldr	r3, [sp, #4]
 1801 001e D3B1     		cbz	r3, .L137
 1802              		.loc 1 829 5 discriminator 1 view .LVU409
 1803 0020 4FF0E023 		mov	r3, #-536813568
 1804 0024 4FF08052 		mov	r2, #268435456
ARM GAS  C:\Users\Lenovo\AppData\Local\Temp\cci3TShy.s 			page 53


 1805 0028 C3F8042D 		str	r2, [r3, #3332]
 1806              		.loc 1 829 5 discriminator 1 view .LVU410
 1807              		.syntax unified
 1808              	@ 829 "Middlewares/Third_Party/FreeRTOS/Source/CMSIS_RTOS/cmsis_os.c" 1
 1809 002c BFF34F8F 		dsb
 1810              	@ 0 "" 2
 1811              		.loc 1 829 5 discriminator 1 view .LVU411
 1812              	@ 829 "Middlewares/Third_Party/FreeRTOS/Source/CMSIS_RTOS/cmsis_os.c" 1
 1813 0030 BFF36F8F 		isb
 1814              	@ 0 "" 2
 821:Middlewares/Third_Party/FreeRTOS/Source/CMSIS_RTOS/cmsis_os.c ****   portBASE_TYPE taskWoken = pdFALSE;
 1815              		.loc 1 821 12 is_stmt 0 discriminator 1 view .LVU412
 1816              		.thumb
 1817              		.syntax unified
 1818 0034 0020     		movs	r0, #0
 1819 0036 08E0     		b	.L133
 1820              	.L134:
 830:Middlewares/Third_Party/FreeRTOS/Source/CMSIS_RTOS/cmsis_os.c ****   }
 831:Middlewares/Third_Party/FreeRTOS/Source/CMSIS_RTOS/cmsis_os.c ****   else {
 832:Middlewares/Third_Party/FreeRTOS/Source/CMSIS_RTOS/cmsis_os.c ****     if (xSemaphoreGive(semaphore_id) != pdTRUE) {
 1821              		.loc 1 832 5 is_stmt 1 view .LVU413
 1822              		.loc 1 832 9 is_stmt 0 view .LVU414
 1823 0038 0023     		movs	r3, #0
 1824 003a 1A46     		mov	r2, r3
 1825 003c 1946     		mov	r1, r3
 1826 003e 2046     		mov	r0, r4
 1827 0040 FFF7FEFF 		bl	xQueueGenericSend
 1828              	.LVL143:
 1829              		.loc 1 832 8 view .LVU415
 1830 0044 0128     		cmp	r0, #1
 1831 0046 02D0     		beq	.L140
 833:Middlewares/Third_Party/FreeRTOS/Source/CMSIS_RTOS/cmsis_os.c ****       result = osErrorOS;
 1832              		.loc 1 833 14 view .LVU416
 1833 0048 FF20     		movs	r0, #255
 1834              	.LVL144:
 1835              	.L133:
 834:Middlewares/Third_Party/FreeRTOS/Source/CMSIS_RTOS/cmsis_os.c ****     }
 835:Middlewares/Third_Party/FreeRTOS/Source/CMSIS_RTOS/cmsis_os.c ****   }
 836:Middlewares/Third_Party/FreeRTOS/Source/CMSIS_RTOS/cmsis_os.c ****   
 837:Middlewares/Third_Party/FreeRTOS/Source/CMSIS_RTOS/cmsis_os.c ****   return result;
 838:Middlewares/Third_Party/FreeRTOS/Source/CMSIS_RTOS/cmsis_os.c **** }
 1836              		.loc 1 838 1 view .LVU417
 1837 004a 02B0     		add	sp, sp, #8
 1838              	.LCFI55:
 1839              		.cfi_remember_state
 1840              		.cfi_def_cfa_offset 8
 1841              		@ sp needed
 1842 004c 10BD     		pop	{r4, pc}
 1843              	.LVL145:
 1844              	.L140:
 1845              	.LCFI56:
 1846              		.cfi_restore_state
 821:Middlewares/Third_Party/FreeRTOS/Source/CMSIS_RTOS/cmsis_os.c ****   portBASE_TYPE taskWoken = pdFALSE;
 1847              		.loc 1 821 12 view .LVU418
 1848 004e 0020     		movs	r0, #0
 1849 0050 FBE7     		b	.L133
 1850              	.L136:
ARM GAS  C:\Users\Lenovo\AppData\Local\Temp\cci3TShy.s 			page 54


 827:Middlewares/Third_Party/FreeRTOS/Source/CMSIS_RTOS/cmsis_os.c ****     }
 1851              		.loc 1 827 14 view .LVU419
 1852 0052 FF20     		movs	r0, #255
 1853 0054 F9E7     		b	.L133
 1854              	.L137:
 821:Middlewares/Third_Party/FreeRTOS/Source/CMSIS_RTOS/cmsis_os.c ****   portBASE_TYPE taskWoken = pdFALSE;
 1855              		.loc 1 821 12 view .LVU420
 1856 0056 0020     		movs	r0, #0
 1857 0058 F7E7     		b	.L133
 1858              		.cfi_endproc
 1859              	.LFE134:
 1861              		.section	.text.osSemaphoreDelete,"ax",%progbits
 1862              		.align	1
 1863              		.global	osSemaphoreDelete
 1864              		.syntax unified
 1865              		.thumb
 1866              		.thumb_func
 1868              	osSemaphoreDelete:
 1869              	.LVL146:
 1870              	.LFB135:
 839:Middlewares/Third_Party/FreeRTOS/Source/CMSIS_RTOS/cmsis_os.c **** 
 840:Middlewares/Third_Party/FreeRTOS/Source/CMSIS_RTOS/cmsis_os.c **** /**
 841:Middlewares/Third_Party/FreeRTOS/Source/CMSIS_RTOS/cmsis_os.c **** * @brief Delete a Semaphore
 842:Middlewares/Third_Party/FreeRTOS/Source/CMSIS_RTOS/cmsis_os.c **** * @param  semaphore_id  semaphore object referenced with \ref osSemaphore.
 843:Middlewares/Third_Party/FreeRTOS/Source/CMSIS_RTOS/cmsis_os.c **** * @retval  status code that indicates the execution status of the function.
 844:Middlewares/Third_Party/FreeRTOS/Source/CMSIS_RTOS/cmsis_os.c **** * @note   MUST REMAIN UNCHANGED: \b osSemaphoreDelete shall be consistent in every CMSIS-RTOS.
 845:Middlewares/Third_Party/FreeRTOS/Source/CMSIS_RTOS/cmsis_os.c **** */
 846:Middlewares/Third_Party/FreeRTOS/Source/CMSIS_RTOS/cmsis_os.c **** osStatus osSemaphoreDelete (osSemaphoreId semaphore_id)
 847:Middlewares/Third_Party/FreeRTOS/Source/CMSIS_RTOS/cmsis_os.c **** {
 1871              		.loc 1 847 1 is_stmt 1 view -0
 1872              		.cfi_startproc
 1873              		@ args = 0, pretend = 0, frame = 0
 1874              		@ frame_needed = 0, uses_anonymous_args = 0
 1875              		.loc 1 847 1 is_stmt 0 view .LVU422
 1876 0000 10B5     		push	{r4, lr}
 1877              	.LCFI57:
 1878              		.cfi_def_cfa_offset 8
 1879              		.cfi_offset 4, -8
 1880              		.cfi_offset 14, -4
 1881 0002 0446     		mov	r4, r0
 848:Middlewares/Third_Party/FreeRTOS/Source/CMSIS_RTOS/cmsis_os.c ****   if (inHandlerMode()) {
 1882              		.loc 1 848 3 is_stmt 1 view .LVU423
 1883              		.loc 1 848 7 is_stmt 0 view .LVU424
 1884 0004 FFF7FEFF 		bl	inHandlerMode
 1885              	.LVL147:
 1886              		.loc 1 848 6 view .LVU425
 1887 0008 20B9     		cbnz	r0, .L143
 849:Middlewares/Third_Party/FreeRTOS/Source/CMSIS_RTOS/cmsis_os.c ****     return osErrorISR;
 850:Middlewares/Third_Party/FreeRTOS/Source/CMSIS_RTOS/cmsis_os.c ****   }
 851:Middlewares/Third_Party/FreeRTOS/Source/CMSIS_RTOS/cmsis_os.c **** 
 852:Middlewares/Third_Party/FreeRTOS/Source/CMSIS_RTOS/cmsis_os.c ****   vSemaphoreDelete(semaphore_id);
 1888              		.loc 1 852 3 is_stmt 1 view .LVU426
 1889 000a 2046     		mov	r0, r4
 1890 000c FFF7FEFF 		bl	vQueueDelete
 1891              	.LVL148:
 853:Middlewares/Third_Party/FreeRTOS/Source/CMSIS_RTOS/cmsis_os.c **** 
 854:Middlewares/Third_Party/FreeRTOS/Source/CMSIS_RTOS/cmsis_os.c ****   return osOK; 
ARM GAS  C:\Users\Lenovo\AppData\Local\Temp\cci3TShy.s 			page 55


 1892              		.loc 1 854 3 view .LVU427
 1893              		.loc 1 854 10 is_stmt 0 view .LVU428
 1894 0010 0020     		movs	r0, #0
 1895              	.L141:
 855:Middlewares/Third_Party/FreeRTOS/Source/CMSIS_RTOS/cmsis_os.c **** }
 1896              		.loc 1 855 1 view .LVU429
 1897 0012 10BD     		pop	{r4, pc}
 1898              	.LVL149:
 1899              	.L143:
 849:Middlewares/Third_Party/FreeRTOS/Source/CMSIS_RTOS/cmsis_os.c ****     return osErrorISR;
 1900              		.loc 1 849 12 view .LVU430
 1901 0014 8220     		movs	r0, #130
 1902 0016 FCE7     		b	.L141
 1903              		.cfi_endproc
 1904              	.LFE135:
 1906              		.section	.text.osPoolCreate,"ax",%progbits
 1907              		.align	1
 1908              		.global	osPoolCreate
 1909              		.syntax unified
 1910              		.thumb
 1911              		.thumb_func
 1913              	osPoolCreate:
 1914              	.LVL150:
 1915              	.LFB136:
 856:Middlewares/Third_Party/FreeRTOS/Source/CMSIS_RTOS/cmsis_os.c **** 
 857:Middlewares/Third_Party/FreeRTOS/Source/CMSIS_RTOS/cmsis_os.c **** #endif    /* Use Semaphores */
 858:Middlewares/Third_Party/FreeRTOS/Source/CMSIS_RTOS/cmsis_os.c **** 
 859:Middlewares/Third_Party/FreeRTOS/Source/CMSIS_RTOS/cmsis_os.c **** /*******************   Memory Pool Management Functions  ***********************/
 860:Middlewares/Third_Party/FreeRTOS/Source/CMSIS_RTOS/cmsis_os.c **** 
 861:Middlewares/Third_Party/FreeRTOS/Source/CMSIS_RTOS/cmsis_os.c **** #if (defined (osFeature_Pool)  &&  (osFeature_Pool != 0)) 
 862:Middlewares/Third_Party/FreeRTOS/Source/CMSIS_RTOS/cmsis_os.c **** 
 863:Middlewares/Third_Party/FreeRTOS/Source/CMSIS_RTOS/cmsis_os.c **** //TODO
 864:Middlewares/Third_Party/FreeRTOS/Source/CMSIS_RTOS/cmsis_os.c **** //This is a primitive and inefficient wrapper around the existing FreeRTOS memory management.
 865:Middlewares/Third_Party/FreeRTOS/Source/CMSIS_RTOS/cmsis_os.c **** //A better implementation will have to modify heap_x.c!
 866:Middlewares/Third_Party/FreeRTOS/Source/CMSIS_RTOS/cmsis_os.c **** 
 867:Middlewares/Third_Party/FreeRTOS/Source/CMSIS_RTOS/cmsis_os.c **** 
 868:Middlewares/Third_Party/FreeRTOS/Source/CMSIS_RTOS/cmsis_os.c **** typedef struct os_pool_cb {
 869:Middlewares/Third_Party/FreeRTOS/Source/CMSIS_RTOS/cmsis_os.c ****   void *pool;
 870:Middlewares/Third_Party/FreeRTOS/Source/CMSIS_RTOS/cmsis_os.c ****   uint8_t *markers;
 871:Middlewares/Third_Party/FreeRTOS/Source/CMSIS_RTOS/cmsis_os.c ****   uint32_t pool_sz;
 872:Middlewares/Third_Party/FreeRTOS/Source/CMSIS_RTOS/cmsis_os.c ****   uint32_t item_sz;
 873:Middlewares/Third_Party/FreeRTOS/Source/CMSIS_RTOS/cmsis_os.c ****   uint32_t currentIndex;
 874:Middlewares/Third_Party/FreeRTOS/Source/CMSIS_RTOS/cmsis_os.c **** } os_pool_cb_t;
 875:Middlewares/Third_Party/FreeRTOS/Source/CMSIS_RTOS/cmsis_os.c **** 
 876:Middlewares/Third_Party/FreeRTOS/Source/CMSIS_RTOS/cmsis_os.c **** 
 877:Middlewares/Third_Party/FreeRTOS/Source/CMSIS_RTOS/cmsis_os.c **** /**
 878:Middlewares/Third_Party/FreeRTOS/Source/CMSIS_RTOS/cmsis_os.c **** * @brief Create and Initialize a memory pool
 879:Middlewares/Third_Party/FreeRTOS/Source/CMSIS_RTOS/cmsis_os.c **** * @param  pool_def      memory pool definition referenced with \ref osPool.
 880:Middlewares/Third_Party/FreeRTOS/Source/CMSIS_RTOS/cmsis_os.c **** * @retval  memory pool ID for reference by other functions or NULL in case of error.
 881:Middlewares/Third_Party/FreeRTOS/Source/CMSIS_RTOS/cmsis_os.c **** * @note   MUST REMAIN UNCHANGED: \b osPoolCreate shall be consistent in every CMSIS-RTOS.
 882:Middlewares/Third_Party/FreeRTOS/Source/CMSIS_RTOS/cmsis_os.c **** */
 883:Middlewares/Third_Party/FreeRTOS/Source/CMSIS_RTOS/cmsis_os.c **** osPoolId osPoolCreate (const osPoolDef_t *pool_def)
 884:Middlewares/Third_Party/FreeRTOS/Source/CMSIS_RTOS/cmsis_os.c **** {
 1916              		.loc 1 884 1 is_stmt 1 view -0
 1917              		.cfi_startproc
 1918              		@ args = 0, pretend = 0, frame = 0
 1919              		@ frame_needed = 0, uses_anonymous_args = 0
ARM GAS  C:\Users\Lenovo\AppData\Local\Temp\cci3TShy.s 			page 56


 1920              		.loc 1 884 1 is_stmt 0 view .LVU432
 1921 0000 F8B5     		push	{r3, r4, r5, r6, r7, lr}
 1922              	.LCFI58:
 1923              		.cfi_def_cfa_offset 24
 1924              		.cfi_offset 3, -24
 1925              		.cfi_offset 4, -20
 1926              		.cfi_offset 5, -16
 1927              		.cfi_offset 6, -12
 1928              		.cfi_offset 7, -8
 1929              		.cfi_offset 14, -4
 1930 0002 0446     		mov	r4, r0
 885:Middlewares/Third_Party/FreeRTOS/Source/CMSIS_RTOS/cmsis_os.c **** #if (configSUPPORT_DYNAMIC_ALLOCATION == 1)
 886:Middlewares/Third_Party/FreeRTOS/Source/CMSIS_RTOS/cmsis_os.c ****   osPoolId thePool;
 1931              		.loc 1 886 3 is_stmt 1 view .LVU433
 887:Middlewares/Third_Party/FreeRTOS/Source/CMSIS_RTOS/cmsis_os.c ****   int itemSize = 4 * ((pool_def->item_sz + 3) / 4);
 1932              		.loc 1 887 3 view .LVU434
 1933              		.loc 1 887 32 is_stmt 0 view .LVU435
 1934 0004 4368     		ldr	r3, [r0, #4]
 1935              		.loc 1 887 42 view .LVU436
 1936 0006 0333     		adds	r3, r3, #3
 1937              		.loc 1 887 7 view .LVU437
 1938 0008 23F00306 		bic	r6, r3, #3
 1939              	.LVL151:
 888:Middlewares/Third_Party/FreeRTOS/Source/CMSIS_RTOS/cmsis_os.c ****   uint32_t i;
 1940              		.loc 1 888 3 is_stmt 1 view .LVU438
 889:Middlewares/Third_Party/FreeRTOS/Source/CMSIS_RTOS/cmsis_os.c ****   
 890:Middlewares/Third_Party/FreeRTOS/Source/CMSIS_RTOS/cmsis_os.c ****   /* First have to allocate memory for the pool control block. */
 891:Middlewares/Third_Party/FreeRTOS/Source/CMSIS_RTOS/cmsis_os.c ****  thePool = pvPortMalloc(sizeof(os_pool_cb_t));
 1941              		.loc 1 891 2 view .LVU439
 1942              		.loc 1 891 12 is_stmt 0 view .LVU440
 1943 000c 1420     		movs	r0, #20
 1944              	.LVL152:
 1945              		.loc 1 891 12 view .LVU441
 1946 000e FFF7FEFF 		bl	pvPortMalloc
 1947              	.LVL153:
 892:Middlewares/Third_Party/FreeRTOS/Source/CMSIS_RTOS/cmsis_os.c **** 
 893:Middlewares/Third_Party/FreeRTOS/Source/CMSIS_RTOS/cmsis_os.c ****   
 894:Middlewares/Third_Party/FreeRTOS/Source/CMSIS_RTOS/cmsis_os.c ****   if (thePool) {
 1948              		.loc 1 894 3 is_stmt 1 view .LVU442
 1949              		.loc 1 894 6 is_stmt 0 view .LVU443
 1950 0012 0546     		mov	r5, r0
 1951 0014 D8B1     		cbz	r0, .L145
 895:Middlewares/Third_Party/FreeRTOS/Source/CMSIS_RTOS/cmsis_os.c ****     thePool->pool_sz = pool_def->pool_sz;
 1952              		.loc 1 895 5 is_stmt 1 view .LVU444
 1953              		.loc 1 895 32 is_stmt 0 view .LVU445
 1954 0016 2368     		ldr	r3, [r4]
 1955              		.loc 1 895 22 view .LVU446
 1956 0018 8360     		str	r3, [r0, #8]
 896:Middlewares/Third_Party/FreeRTOS/Source/CMSIS_RTOS/cmsis_os.c ****     thePool->item_sz = itemSize;
 1957              		.loc 1 896 5 is_stmt 1 view .LVU447
 1958              		.loc 1 896 22 is_stmt 0 view .LVU448
 1959 001a C660     		str	r6, [r0, #12]
 897:Middlewares/Third_Party/FreeRTOS/Source/CMSIS_RTOS/cmsis_os.c ****     thePool->currentIndex = 0;
 1960              		.loc 1 897 5 is_stmt 1 view .LVU449
 1961              		.loc 1 897 27 is_stmt 0 view .LVU450
 1962 001c 0023     		movs	r3, #0
 1963 001e 0361     		str	r3, [r0, #16]
ARM GAS  C:\Users\Lenovo\AppData\Local\Temp\cci3TShy.s 			page 57


 898:Middlewares/Third_Party/FreeRTOS/Source/CMSIS_RTOS/cmsis_os.c ****     
 899:Middlewares/Third_Party/FreeRTOS/Source/CMSIS_RTOS/cmsis_os.c ****     /* Memory for markers */
 900:Middlewares/Third_Party/FreeRTOS/Source/CMSIS_RTOS/cmsis_os.c ****     thePool->markers = pvPortMalloc(pool_def->pool_sz);
 1964              		.loc 1 900 5 is_stmt 1 view .LVU451
 1965              		.loc 1 900 24 is_stmt 0 view .LVU452
 1966 0020 2068     		ldr	r0, [r4]
 1967              	.LVL154:
 1968              		.loc 1 900 24 view .LVU453
 1969 0022 FFF7FEFF 		bl	pvPortMalloc
 1970              	.LVL155:
 1971 0026 0746     		mov	r7, r0
 1972              		.loc 1 900 22 view .LVU454
 1973 0028 6860     		str	r0, [r5, #4]
 901:Middlewares/Third_Party/FreeRTOS/Source/CMSIS_RTOS/cmsis_os.c ****    
 902:Middlewares/Third_Party/FreeRTOS/Source/CMSIS_RTOS/cmsis_os.c ****     if (thePool->markers) {
 1974              		.loc 1 902 5 is_stmt 1 view .LVU455
 1975              		.loc 1 902 8 is_stmt 0 view .LVU456
 1976 002a D0B1     		cbz	r0, .L147
 903:Middlewares/Third_Party/FreeRTOS/Source/CMSIS_RTOS/cmsis_os.c ****       /* Now allocate the pool itself. */
 904:Middlewares/Third_Party/FreeRTOS/Source/CMSIS_RTOS/cmsis_os.c ****      thePool->pool = pvPortMalloc(pool_def->pool_sz * itemSize);
 1977              		.loc 1 904 6 is_stmt 1 view .LVU457
 1978              		.loc 1 904 43 is_stmt 0 view .LVU458
 1979 002c 2068     		ldr	r0, [r4]
 1980              		.loc 1 904 22 view .LVU459
 1981 002e 06FB00F0 		mul	r0, r6, r0
 1982 0032 FFF7FEFF 		bl	pvPortMalloc
 1983              	.LVL156:
 1984 0036 0646     		mov	r6, r0
 1985              	.LVL157:
 1986              		.loc 1 904 20 view .LVU460
 1987 0038 2860     		str	r0, [r5]
 905:Middlewares/Third_Party/FreeRTOS/Source/CMSIS_RTOS/cmsis_os.c ****       
 906:Middlewares/Third_Party/FreeRTOS/Source/CMSIS_RTOS/cmsis_os.c ****       if (thePool->pool) {
 1988              		.loc 1 906 7 is_stmt 1 view .LVU461
 1989              		.loc 1 906 10 is_stmt 0 view .LVU462
 1990 003a 50B1     		cbz	r0, .L154
 907:Middlewares/Third_Party/FreeRTOS/Source/CMSIS_RTOS/cmsis_os.c ****         for (i = 0; i < pool_def->pool_sz; i++) {
 1991              		.loc 1 907 16 view .LVU463
 1992 003c 0023     		movs	r3, #0
 1993 003e 03E0     		b	.L148
 1994              	.LVL158:
 1995              	.L150:
 908:Middlewares/Third_Party/FreeRTOS/Source/CMSIS_RTOS/cmsis_os.c ****           thePool->markers[i] = 0;
 1996              		.loc 1 908 11 is_stmt 1 discriminator 3 view .LVU464
 1997              		.loc 1 908 18 is_stmt 0 discriminator 3 view .LVU465
 1998 0040 6A68     		ldr	r2, [r5, #4]
 1999              		.loc 1 908 31 discriminator 3 view .LVU466
 2000 0042 0021     		movs	r1, #0
 2001 0044 D154     		strb	r1, [r2, r3]
 907:Middlewares/Third_Party/FreeRTOS/Source/CMSIS_RTOS/cmsis_os.c ****         for (i = 0; i < pool_def->pool_sz; i++) {
 2002              		.loc 1 907 44 is_stmt 1 discriminator 3 view .LVU467
 907:Middlewares/Third_Party/FreeRTOS/Source/CMSIS_RTOS/cmsis_os.c ****         for (i = 0; i < pool_def->pool_sz; i++) {
 2003              		.loc 1 907 45 is_stmt 0 discriminator 3 view .LVU468
 2004 0046 0133     		adds	r3, r3, #1
 2005              	.LVL159:
 2006              	.L148:
 907:Middlewares/Third_Party/FreeRTOS/Source/CMSIS_RTOS/cmsis_os.c ****         for (i = 0; i < pool_def->pool_sz; i++) {
ARM GAS  C:\Users\Lenovo\AppData\Local\Temp\cci3TShy.s 			page 58


 2007              		.loc 1 907 21 is_stmt 1 discriminator 1 view .LVU469
 907:Middlewares/Third_Party/FreeRTOS/Source/CMSIS_RTOS/cmsis_os.c ****         for (i = 0; i < pool_def->pool_sz; i++) {
 2008              		.loc 1 907 33 is_stmt 0 discriminator 1 view .LVU470
 2009 0048 2268     		ldr	r2, [r4]
 907:Middlewares/Third_Party/FreeRTOS/Source/CMSIS_RTOS/cmsis_os.c ****         for (i = 0; i < pool_def->pool_sz; i++) {
 2010              		.loc 1 907 9 discriminator 1 view .LVU471
 2011 004a 9A42     		cmp	r2, r3
 2012 004c F8D8     		bhi	.L150
 2013              	.LVL160:
 2014              	.L145:
 909:Middlewares/Third_Party/FreeRTOS/Source/CMSIS_RTOS/cmsis_os.c ****         }
 910:Middlewares/Third_Party/FreeRTOS/Source/CMSIS_RTOS/cmsis_os.c ****       }
 911:Middlewares/Third_Party/FreeRTOS/Source/CMSIS_RTOS/cmsis_os.c ****       else {
 912:Middlewares/Third_Party/FreeRTOS/Source/CMSIS_RTOS/cmsis_os.c ****         vPortFree(thePool->markers);
 913:Middlewares/Third_Party/FreeRTOS/Source/CMSIS_RTOS/cmsis_os.c ****         vPortFree(thePool);
 914:Middlewares/Third_Party/FreeRTOS/Source/CMSIS_RTOS/cmsis_os.c ****         thePool = NULL;
 915:Middlewares/Third_Party/FreeRTOS/Source/CMSIS_RTOS/cmsis_os.c ****       }
 916:Middlewares/Third_Party/FreeRTOS/Source/CMSIS_RTOS/cmsis_os.c ****     }
 917:Middlewares/Third_Party/FreeRTOS/Source/CMSIS_RTOS/cmsis_os.c ****     else {
 918:Middlewares/Third_Party/FreeRTOS/Source/CMSIS_RTOS/cmsis_os.c ****       vPortFree(thePool);
 919:Middlewares/Third_Party/FreeRTOS/Source/CMSIS_RTOS/cmsis_os.c ****       thePool = NULL;
 920:Middlewares/Third_Party/FreeRTOS/Source/CMSIS_RTOS/cmsis_os.c ****     }
 921:Middlewares/Third_Party/FreeRTOS/Source/CMSIS_RTOS/cmsis_os.c ****   }
 922:Middlewares/Third_Party/FreeRTOS/Source/CMSIS_RTOS/cmsis_os.c **** 
 923:Middlewares/Third_Party/FreeRTOS/Source/CMSIS_RTOS/cmsis_os.c ****   return thePool;
 924:Middlewares/Third_Party/FreeRTOS/Source/CMSIS_RTOS/cmsis_os.c ****  
 925:Middlewares/Third_Party/FreeRTOS/Source/CMSIS_RTOS/cmsis_os.c **** #else
 926:Middlewares/Third_Party/FreeRTOS/Source/CMSIS_RTOS/cmsis_os.c ****   return NULL;
 927:Middlewares/Third_Party/FreeRTOS/Source/CMSIS_RTOS/cmsis_os.c **** #endif
 928:Middlewares/Third_Party/FreeRTOS/Source/CMSIS_RTOS/cmsis_os.c **** }
 2015              		.loc 1 928 1 view .LVU472
 2016 004e 2846     		mov	r0, r5
 2017 0050 F8BD     		pop	{r3, r4, r5, r6, r7, pc}
 2018              	.LVL161:
 2019              	.L154:
 912:Middlewares/Third_Party/FreeRTOS/Source/CMSIS_RTOS/cmsis_os.c ****         vPortFree(thePool);
 2020              		.loc 1 912 9 is_stmt 1 view .LVU473
 2021 0052 6868     		ldr	r0, [r5, #4]
 2022 0054 FFF7FEFF 		bl	vPortFree
 2023              	.LVL162:
 913:Middlewares/Third_Party/FreeRTOS/Source/CMSIS_RTOS/cmsis_os.c ****         thePool = NULL;
 2024              		.loc 1 913 9 view .LVU474
 2025 0058 2846     		mov	r0, r5
 2026 005a FFF7FEFF 		bl	vPortFree
 2027              	.LVL163:
 914:Middlewares/Third_Party/FreeRTOS/Source/CMSIS_RTOS/cmsis_os.c ****       }
 2028              		.loc 1 914 9 view .LVU475
 914:Middlewares/Third_Party/FreeRTOS/Source/CMSIS_RTOS/cmsis_os.c ****       }
 2029              		.loc 1 914 17 is_stmt 0 view .LVU476
 2030 005e 3546     		mov	r5, r6
 2031 0060 F5E7     		b	.L145
 2032              	.LVL164:
 2033              	.L147:
 918:Middlewares/Third_Party/FreeRTOS/Source/CMSIS_RTOS/cmsis_os.c ****       thePool = NULL;
 2034              		.loc 1 918 7 is_stmt 1 view .LVU477
 2035 0062 2846     		mov	r0, r5
 2036 0064 FFF7FEFF 		bl	vPortFree
ARM GAS  C:\Users\Lenovo\AppData\Local\Temp\cci3TShy.s 			page 59


 2037              	.LVL165:
 919:Middlewares/Third_Party/FreeRTOS/Source/CMSIS_RTOS/cmsis_os.c ****     }
 2038              		.loc 1 919 7 view .LVU478
 919:Middlewares/Third_Party/FreeRTOS/Source/CMSIS_RTOS/cmsis_os.c ****     }
 2039              		.loc 1 919 15 is_stmt 0 view .LVU479
 2040 0068 3D46     		mov	r5, r7
 2041              	.LVL166:
 923:Middlewares/Third_Party/FreeRTOS/Source/CMSIS_RTOS/cmsis_os.c ****  
 2042              		.loc 1 923 3 is_stmt 1 view .LVU480
 923:Middlewares/Third_Party/FreeRTOS/Source/CMSIS_RTOS/cmsis_os.c ****  
 2043              		.loc 1 923 10 is_stmt 0 view .LVU481
 2044 006a F0E7     		b	.L145
 2045              		.cfi_endproc
 2046              	.LFE136:
 2048              		.section	.text.osPoolAlloc,"ax",%progbits
 2049              		.align	1
 2050              		.global	osPoolAlloc
 2051              		.syntax unified
 2052              		.thumb
 2053              		.thumb_func
 2055              	osPoolAlloc:
 2056              	.LVL167:
 2057              	.LFB137:
 929:Middlewares/Third_Party/FreeRTOS/Source/CMSIS_RTOS/cmsis_os.c **** 
 930:Middlewares/Third_Party/FreeRTOS/Source/CMSIS_RTOS/cmsis_os.c **** /**
 931:Middlewares/Third_Party/FreeRTOS/Source/CMSIS_RTOS/cmsis_os.c **** * @brief Allocate a memory block from a memory pool
 932:Middlewares/Third_Party/FreeRTOS/Source/CMSIS_RTOS/cmsis_os.c **** * @param pool_id       memory pool ID obtain referenced with \ref osPoolCreate.
 933:Middlewares/Third_Party/FreeRTOS/Source/CMSIS_RTOS/cmsis_os.c **** * @retval  address of the allocated memory block or NULL in case of no memory available.
 934:Middlewares/Third_Party/FreeRTOS/Source/CMSIS_RTOS/cmsis_os.c **** * @note   MUST REMAIN UNCHANGED: \b osPoolAlloc shall be consistent in every CMSIS-RTOS.
 935:Middlewares/Third_Party/FreeRTOS/Source/CMSIS_RTOS/cmsis_os.c **** */
 936:Middlewares/Third_Party/FreeRTOS/Source/CMSIS_RTOS/cmsis_os.c **** void *osPoolAlloc (osPoolId pool_id)
 937:Middlewares/Third_Party/FreeRTOS/Source/CMSIS_RTOS/cmsis_os.c **** {
 2058              		.loc 1 937 1 is_stmt 1 view -0
 2059              		.cfi_startproc
 2060              		@ args = 0, pretend = 0, frame = 0
 2061              		@ frame_needed = 0, uses_anonymous_args = 0
 2062              		.loc 1 937 1 is_stmt 0 view .LVU483
 2063 0000 70B5     		push	{r4, r5, r6, lr}
 2064              	.LCFI59:
 2065              		.cfi_def_cfa_offset 16
 2066              		.cfi_offset 4, -16
 2067              		.cfi_offset 5, -12
 2068              		.cfi_offset 6, -8
 2069              		.cfi_offset 14, -4
 2070 0002 0446     		mov	r4, r0
 938:Middlewares/Third_Party/FreeRTOS/Source/CMSIS_RTOS/cmsis_os.c ****   int dummy = 0;
 2071              		.loc 1 938 3 is_stmt 1 view .LVU484
 2072              	.LVL168:
 939:Middlewares/Third_Party/FreeRTOS/Source/CMSIS_RTOS/cmsis_os.c ****   void *p = NULL;
 2073              		.loc 1 939 3 view .LVU485
 940:Middlewares/Third_Party/FreeRTOS/Source/CMSIS_RTOS/cmsis_os.c ****   uint32_t i;
 2074              		.loc 1 940 3 view .LVU486
 941:Middlewares/Third_Party/FreeRTOS/Source/CMSIS_RTOS/cmsis_os.c ****   uint32_t index;
 2075              		.loc 1 941 3 view .LVU487
 942:Middlewares/Third_Party/FreeRTOS/Source/CMSIS_RTOS/cmsis_os.c ****   
 943:Middlewares/Third_Party/FreeRTOS/Source/CMSIS_RTOS/cmsis_os.c ****   if (inHandlerMode()) {
 2076              		.loc 1 943 3 view .LVU488
ARM GAS  C:\Users\Lenovo\AppData\Local\Temp\cci3TShy.s 			page 60


 2077              		.loc 1 943 7 is_stmt 0 view .LVU489
 2078 0004 FFF7FEFF 		bl	inHandlerMode
 2079              	.LVL169:
 2080              		.loc 1 943 6 view .LVU490
 2081 0008 58B1     		cbz	r0, .L156
 944:Middlewares/Third_Party/FreeRTOS/Source/CMSIS_RTOS/cmsis_os.c ****     dummy = portSET_INTERRUPT_MASK_FROM_ISR();
 2082              		.loc 1 944 5 is_stmt 1 view .LVU491
 2083              	.LBB10:
 2084              	.LBI10:
 2085              		.file 3 "Middlewares/Third_Party/FreeRTOS/Source/portable/GCC/ARM_CM3/portmacro.h"
   1:Middlewares/Third_Party/FreeRTOS/Source/portable/GCC/ARM_CM3/portmacro.h **** /*
   2:Middlewares/Third_Party/FreeRTOS/Source/portable/GCC/ARM_CM3/portmacro.h ****  * FreeRTOS Kernel V10.2.1
   3:Middlewares/Third_Party/FreeRTOS/Source/portable/GCC/ARM_CM3/portmacro.h ****  * Copyright (C) 2019 Amazon.com, Inc. or its affiliates.  All Rights Reserved.
   4:Middlewares/Third_Party/FreeRTOS/Source/portable/GCC/ARM_CM3/portmacro.h ****  *
   5:Middlewares/Third_Party/FreeRTOS/Source/portable/GCC/ARM_CM3/portmacro.h ****  * Permission is hereby granted, free of charge, to any person obtaining a copy of
   6:Middlewares/Third_Party/FreeRTOS/Source/portable/GCC/ARM_CM3/portmacro.h ****  * this software and associated documentation files (the "Software"), to deal in
   7:Middlewares/Third_Party/FreeRTOS/Source/portable/GCC/ARM_CM3/portmacro.h ****  * the Software without restriction, including without limitation the rights to
   8:Middlewares/Third_Party/FreeRTOS/Source/portable/GCC/ARM_CM3/portmacro.h ****  * use, copy, modify, merge, publish, distribute, sublicense, and/or sell copies of
   9:Middlewares/Third_Party/FreeRTOS/Source/portable/GCC/ARM_CM3/portmacro.h ****  * the Software, and to permit persons to whom the Software is furnished to do so,
  10:Middlewares/Third_Party/FreeRTOS/Source/portable/GCC/ARM_CM3/portmacro.h ****  * subject to the following conditions:
  11:Middlewares/Third_Party/FreeRTOS/Source/portable/GCC/ARM_CM3/portmacro.h ****  *
  12:Middlewares/Third_Party/FreeRTOS/Source/portable/GCC/ARM_CM3/portmacro.h ****  * The above copyright notice and this permission notice shall be included in all
  13:Middlewares/Third_Party/FreeRTOS/Source/portable/GCC/ARM_CM3/portmacro.h ****  * copies or substantial portions of the Software.
  14:Middlewares/Third_Party/FreeRTOS/Source/portable/GCC/ARM_CM3/portmacro.h ****  *
  15:Middlewares/Third_Party/FreeRTOS/Source/portable/GCC/ARM_CM3/portmacro.h ****  * THE SOFTWARE IS PROVIDED "AS IS", WITHOUT WARRANTY OF ANY KIND, EXPRESS OR
  16:Middlewares/Third_Party/FreeRTOS/Source/portable/GCC/ARM_CM3/portmacro.h ****  * IMPLIED, INCLUDING BUT NOT LIMITED TO THE WARRANTIES OF MERCHANTABILITY, FITNESS
  17:Middlewares/Third_Party/FreeRTOS/Source/portable/GCC/ARM_CM3/portmacro.h ****  * FOR A PARTICULAR PURPOSE AND NONINFRINGEMENT. IN NO EVENT SHALL THE AUTHORS OR
  18:Middlewares/Third_Party/FreeRTOS/Source/portable/GCC/ARM_CM3/portmacro.h ****  * COPYRIGHT HOLDERS BE LIABLE FOR ANY CLAIM, DAMAGES OR OTHER LIABILITY, WHETHER
  19:Middlewares/Third_Party/FreeRTOS/Source/portable/GCC/ARM_CM3/portmacro.h ****  * IN AN ACTION OF CONTRACT, TORT OR OTHERWISE, ARISING FROM, OUT OF OR IN
  20:Middlewares/Third_Party/FreeRTOS/Source/portable/GCC/ARM_CM3/portmacro.h ****  * CONNECTION WITH THE SOFTWARE OR THE USE OR OTHER DEALINGS IN THE SOFTWARE.
  21:Middlewares/Third_Party/FreeRTOS/Source/portable/GCC/ARM_CM3/portmacro.h ****  *
  22:Middlewares/Third_Party/FreeRTOS/Source/portable/GCC/ARM_CM3/portmacro.h ****  * http://www.FreeRTOS.org
  23:Middlewares/Third_Party/FreeRTOS/Source/portable/GCC/ARM_CM3/portmacro.h ****  * http://aws.amazon.com/freertos
  24:Middlewares/Third_Party/FreeRTOS/Source/portable/GCC/ARM_CM3/portmacro.h ****  *
  25:Middlewares/Third_Party/FreeRTOS/Source/portable/GCC/ARM_CM3/portmacro.h ****  * 1 tab == 4 spaces!
  26:Middlewares/Third_Party/FreeRTOS/Source/portable/GCC/ARM_CM3/portmacro.h ****  */
  27:Middlewares/Third_Party/FreeRTOS/Source/portable/GCC/ARM_CM3/portmacro.h **** 
  28:Middlewares/Third_Party/FreeRTOS/Source/portable/GCC/ARM_CM3/portmacro.h **** 
  29:Middlewares/Third_Party/FreeRTOS/Source/portable/GCC/ARM_CM3/portmacro.h **** #ifndef PORTMACRO_H
  30:Middlewares/Third_Party/FreeRTOS/Source/portable/GCC/ARM_CM3/portmacro.h **** #define PORTMACRO_H
  31:Middlewares/Third_Party/FreeRTOS/Source/portable/GCC/ARM_CM3/portmacro.h **** 
  32:Middlewares/Third_Party/FreeRTOS/Source/portable/GCC/ARM_CM3/portmacro.h **** #ifdef __cplusplus
  33:Middlewares/Third_Party/FreeRTOS/Source/portable/GCC/ARM_CM3/portmacro.h **** extern "C" {
  34:Middlewares/Third_Party/FreeRTOS/Source/portable/GCC/ARM_CM3/portmacro.h **** #endif
  35:Middlewares/Third_Party/FreeRTOS/Source/portable/GCC/ARM_CM3/portmacro.h **** 
  36:Middlewares/Third_Party/FreeRTOS/Source/portable/GCC/ARM_CM3/portmacro.h **** /*-----------------------------------------------------------
  37:Middlewares/Third_Party/FreeRTOS/Source/portable/GCC/ARM_CM3/portmacro.h ****  * Port specific definitions.
  38:Middlewares/Third_Party/FreeRTOS/Source/portable/GCC/ARM_CM3/portmacro.h ****  *
  39:Middlewares/Third_Party/FreeRTOS/Source/portable/GCC/ARM_CM3/portmacro.h ****  * The settings in this file configure FreeRTOS correctly for the
  40:Middlewares/Third_Party/FreeRTOS/Source/portable/GCC/ARM_CM3/portmacro.h ****  * given hardware and compiler.
  41:Middlewares/Third_Party/FreeRTOS/Source/portable/GCC/ARM_CM3/portmacro.h ****  *
  42:Middlewares/Third_Party/FreeRTOS/Source/portable/GCC/ARM_CM3/portmacro.h ****  * These settings should not be altered.
  43:Middlewares/Third_Party/FreeRTOS/Source/portable/GCC/ARM_CM3/portmacro.h ****  *-----------------------------------------------------------
  44:Middlewares/Third_Party/FreeRTOS/Source/portable/GCC/ARM_CM3/portmacro.h ****  */
  45:Middlewares/Third_Party/FreeRTOS/Source/portable/GCC/ARM_CM3/portmacro.h **** 
  46:Middlewares/Third_Party/FreeRTOS/Source/portable/GCC/ARM_CM3/portmacro.h **** /* Type definitions. */
  47:Middlewares/Third_Party/FreeRTOS/Source/portable/GCC/ARM_CM3/portmacro.h **** #define portCHAR		char
ARM GAS  C:\Users\Lenovo\AppData\Local\Temp\cci3TShy.s 			page 61


  48:Middlewares/Third_Party/FreeRTOS/Source/portable/GCC/ARM_CM3/portmacro.h **** #define portFLOAT		float
  49:Middlewares/Third_Party/FreeRTOS/Source/portable/GCC/ARM_CM3/portmacro.h **** #define portDOUBLE		double
  50:Middlewares/Third_Party/FreeRTOS/Source/portable/GCC/ARM_CM3/portmacro.h **** #define portLONG		long
  51:Middlewares/Third_Party/FreeRTOS/Source/portable/GCC/ARM_CM3/portmacro.h **** #define portSHORT		short
  52:Middlewares/Third_Party/FreeRTOS/Source/portable/GCC/ARM_CM3/portmacro.h **** #define portSTACK_TYPE	uint32_t
  53:Middlewares/Third_Party/FreeRTOS/Source/portable/GCC/ARM_CM3/portmacro.h **** #define portBASE_TYPE	long
  54:Middlewares/Third_Party/FreeRTOS/Source/portable/GCC/ARM_CM3/portmacro.h **** 
  55:Middlewares/Third_Party/FreeRTOS/Source/portable/GCC/ARM_CM3/portmacro.h **** typedef portSTACK_TYPE StackType_t;
  56:Middlewares/Third_Party/FreeRTOS/Source/portable/GCC/ARM_CM3/portmacro.h **** typedef long BaseType_t;
  57:Middlewares/Third_Party/FreeRTOS/Source/portable/GCC/ARM_CM3/portmacro.h **** typedef unsigned long UBaseType_t;
  58:Middlewares/Third_Party/FreeRTOS/Source/portable/GCC/ARM_CM3/portmacro.h **** 
  59:Middlewares/Third_Party/FreeRTOS/Source/portable/GCC/ARM_CM3/portmacro.h **** #if( configUSE_16_BIT_TICKS == 1 )
  60:Middlewares/Third_Party/FreeRTOS/Source/portable/GCC/ARM_CM3/portmacro.h **** 	typedef uint16_t TickType_t;
  61:Middlewares/Third_Party/FreeRTOS/Source/portable/GCC/ARM_CM3/portmacro.h **** 	#define portMAX_DELAY ( TickType_t ) 0xffff
  62:Middlewares/Third_Party/FreeRTOS/Source/portable/GCC/ARM_CM3/portmacro.h **** #else
  63:Middlewares/Third_Party/FreeRTOS/Source/portable/GCC/ARM_CM3/portmacro.h **** 	typedef uint32_t TickType_t;
  64:Middlewares/Third_Party/FreeRTOS/Source/portable/GCC/ARM_CM3/portmacro.h **** 	#define portMAX_DELAY ( TickType_t ) 0xffffffffUL
  65:Middlewares/Third_Party/FreeRTOS/Source/portable/GCC/ARM_CM3/portmacro.h **** 
  66:Middlewares/Third_Party/FreeRTOS/Source/portable/GCC/ARM_CM3/portmacro.h **** 	/* 32-bit tick type on a 32-bit architecture, so reads of the tick count do
  67:Middlewares/Third_Party/FreeRTOS/Source/portable/GCC/ARM_CM3/portmacro.h **** 	not need to be guarded with a critical section. */
  68:Middlewares/Third_Party/FreeRTOS/Source/portable/GCC/ARM_CM3/portmacro.h **** 	#define portTICK_TYPE_IS_ATOMIC 1
  69:Middlewares/Third_Party/FreeRTOS/Source/portable/GCC/ARM_CM3/portmacro.h **** #endif
  70:Middlewares/Third_Party/FreeRTOS/Source/portable/GCC/ARM_CM3/portmacro.h **** /*-----------------------------------------------------------*/
  71:Middlewares/Third_Party/FreeRTOS/Source/portable/GCC/ARM_CM3/portmacro.h **** 
  72:Middlewares/Third_Party/FreeRTOS/Source/portable/GCC/ARM_CM3/portmacro.h **** /* Architecture specifics. */
  73:Middlewares/Third_Party/FreeRTOS/Source/portable/GCC/ARM_CM3/portmacro.h **** #define portSTACK_GROWTH			( -1 )
  74:Middlewares/Third_Party/FreeRTOS/Source/portable/GCC/ARM_CM3/portmacro.h **** #define portTICK_PERIOD_MS			( ( TickType_t ) 1000 / configTICK_RATE_HZ )
  75:Middlewares/Third_Party/FreeRTOS/Source/portable/GCC/ARM_CM3/portmacro.h **** #define portBYTE_ALIGNMENT			8
  76:Middlewares/Third_Party/FreeRTOS/Source/portable/GCC/ARM_CM3/portmacro.h **** /*-----------------------------------------------------------*/
  77:Middlewares/Third_Party/FreeRTOS/Source/portable/GCC/ARM_CM3/portmacro.h **** 
  78:Middlewares/Third_Party/FreeRTOS/Source/portable/GCC/ARM_CM3/portmacro.h **** /* Scheduler utilities. */
  79:Middlewares/Third_Party/FreeRTOS/Source/portable/GCC/ARM_CM3/portmacro.h **** #define portYIELD() 															\
  80:Middlewares/Third_Party/FreeRTOS/Source/portable/GCC/ARM_CM3/portmacro.h **** {																				\
  81:Middlewares/Third_Party/FreeRTOS/Source/portable/GCC/ARM_CM3/portmacro.h **** 	/* Set a PendSV to request a context switch. */								\
  82:Middlewares/Third_Party/FreeRTOS/Source/portable/GCC/ARM_CM3/portmacro.h **** 	portNVIC_INT_CTRL_REG = portNVIC_PENDSVSET_BIT;								\
  83:Middlewares/Third_Party/FreeRTOS/Source/portable/GCC/ARM_CM3/portmacro.h **** 																				\
  84:Middlewares/Third_Party/FreeRTOS/Source/portable/GCC/ARM_CM3/portmacro.h **** 	/* Barriers are normally not required but do ensure the code is completely	\
  85:Middlewares/Third_Party/FreeRTOS/Source/portable/GCC/ARM_CM3/portmacro.h **** 	within the specified behaviour for the architecture. */						\
  86:Middlewares/Third_Party/FreeRTOS/Source/portable/GCC/ARM_CM3/portmacro.h **** 	__asm volatile( "dsb" ::: "memory" );										\
  87:Middlewares/Third_Party/FreeRTOS/Source/portable/GCC/ARM_CM3/portmacro.h **** 	__asm volatile( "isb" );													\
  88:Middlewares/Third_Party/FreeRTOS/Source/portable/GCC/ARM_CM3/portmacro.h **** }
  89:Middlewares/Third_Party/FreeRTOS/Source/portable/GCC/ARM_CM3/portmacro.h **** 
  90:Middlewares/Third_Party/FreeRTOS/Source/portable/GCC/ARM_CM3/portmacro.h **** #define portNVIC_INT_CTRL_REG		( * ( ( volatile uint32_t * ) 0xe000ed04 ) )
  91:Middlewares/Third_Party/FreeRTOS/Source/portable/GCC/ARM_CM3/portmacro.h **** #define portNVIC_PENDSVSET_BIT		( 1UL << 28UL )
  92:Middlewares/Third_Party/FreeRTOS/Source/portable/GCC/ARM_CM3/portmacro.h **** #define portEND_SWITCHING_ISR( xSwitchRequired ) if( xSwitchRequired != pdFALSE ) portYIELD()
  93:Middlewares/Third_Party/FreeRTOS/Source/portable/GCC/ARM_CM3/portmacro.h **** #define portYIELD_FROM_ISR( x ) portEND_SWITCHING_ISR( x )
  94:Middlewares/Third_Party/FreeRTOS/Source/portable/GCC/ARM_CM3/portmacro.h **** /*-----------------------------------------------------------*/
  95:Middlewares/Third_Party/FreeRTOS/Source/portable/GCC/ARM_CM3/portmacro.h **** 
  96:Middlewares/Third_Party/FreeRTOS/Source/portable/GCC/ARM_CM3/portmacro.h **** /* Critical section management. */
  97:Middlewares/Third_Party/FreeRTOS/Source/portable/GCC/ARM_CM3/portmacro.h **** extern void vPortEnterCritical( void );
  98:Middlewares/Third_Party/FreeRTOS/Source/portable/GCC/ARM_CM3/portmacro.h **** extern void vPortExitCritical( void );
  99:Middlewares/Third_Party/FreeRTOS/Source/portable/GCC/ARM_CM3/portmacro.h **** #define portSET_INTERRUPT_MASK_FROM_ISR()		ulPortRaiseBASEPRI()
 100:Middlewares/Third_Party/FreeRTOS/Source/portable/GCC/ARM_CM3/portmacro.h **** #define portCLEAR_INTERRUPT_MASK_FROM_ISR(x)	vPortSetBASEPRI(x)
 101:Middlewares/Third_Party/FreeRTOS/Source/portable/GCC/ARM_CM3/portmacro.h **** #define portDISABLE_INTERRUPTS()				vPortRaiseBASEPRI()
 102:Middlewares/Third_Party/FreeRTOS/Source/portable/GCC/ARM_CM3/portmacro.h **** #define portENABLE_INTERRUPTS()					vPortSetBASEPRI(0)
 103:Middlewares/Third_Party/FreeRTOS/Source/portable/GCC/ARM_CM3/portmacro.h **** #define portENTER_CRITICAL()					vPortEnterCritical()
 104:Middlewares/Third_Party/FreeRTOS/Source/portable/GCC/ARM_CM3/portmacro.h **** #define portEXIT_CRITICAL()						vPortExitCritical()
ARM GAS  C:\Users\Lenovo\AppData\Local\Temp\cci3TShy.s 			page 62


 105:Middlewares/Third_Party/FreeRTOS/Source/portable/GCC/ARM_CM3/portmacro.h **** 
 106:Middlewares/Third_Party/FreeRTOS/Source/portable/GCC/ARM_CM3/portmacro.h **** /*-----------------------------------------------------------*/
 107:Middlewares/Third_Party/FreeRTOS/Source/portable/GCC/ARM_CM3/portmacro.h **** 
 108:Middlewares/Third_Party/FreeRTOS/Source/portable/GCC/ARM_CM3/portmacro.h **** /* Task function macros as described on the FreeRTOS.org WEB site.  These are
 109:Middlewares/Third_Party/FreeRTOS/Source/portable/GCC/ARM_CM3/portmacro.h **** not necessary for to use this port.  They are defined so the common demo files
 110:Middlewares/Third_Party/FreeRTOS/Source/portable/GCC/ARM_CM3/portmacro.h **** (which build with all the ports) will build. */
 111:Middlewares/Third_Party/FreeRTOS/Source/portable/GCC/ARM_CM3/portmacro.h **** #define portTASK_FUNCTION_PROTO( vFunction, pvParameters ) void vFunction( void *pvParameters )
 112:Middlewares/Third_Party/FreeRTOS/Source/portable/GCC/ARM_CM3/portmacro.h **** #define portTASK_FUNCTION( vFunction, pvParameters ) void vFunction( void *pvParameters )
 113:Middlewares/Third_Party/FreeRTOS/Source/portable/GCC/ARM_CM3/portmacro.h **** /*-----------------------------------------------------------*/
 114:Middlewares/Third_Party/FreeRTOS/Source/portable/GCC/ARM_CM3/portmacro.h **** 
 115:Middlewares/Third_Party/FreeRTOS/Source/portable/GCC/ARM_CM3/portmacro.h **** /* Tickless idle/low power functionality. */
 116:Middlewares/Third_Party/FreeRTOS/Source/portable/GCC/ARM_CM3/portmacro.h **** #ifndef portSUPPRESS_TICKS_AND_SLEEP
 117:Middlewares/Third_Party/FreeRTOS/Source/portable/GCC/ARM_CM3/portmacro.h **** 	extern void vPortSuppressTicksAndSleep( TickType_t xExpectedIdleTime );
 118:Middlewares/Third_Party/FreeRTOS/Source/portable/GCC/ARM_CM3/portmacro.h **** 	#define portSUPPRESS_TICKS_AND_SLEEP( xExpectedIdleTime ) vPortSuppressTicksAndSleep( xExpectedIdl
 119:Middlewares/Third_Party/FreeRTOS/Source/portable/GCC/ARM_CM3/portmacro.h **** #endif
 120:Middlewares/Third_Party/FreeRTOS/Source/portable/GCC/ARM_CM3/portmacro.h **** /*-----------------------------------------------------------*/
 121:Middlewares/Third_Party/FreeRTOS/Source/portable/GCC/ARM_CM3/portmacro.h **** 
 122:Middlewares/Third_Party/FreeRTOS/Source/portable/GCC/ARM_CM3/portmacro.h **** /* Architecture specific optimisations. */
 123:Middlewares/Third_Party/FreeRTOS/Source/portable/GCC/ARM_CM3/portmacro.h **** #ifndef configUSE_PORT_OPTIMISED_TASK_SELECTION
 124:Middlewares/Third_Party/FreeRTOS/Source/portable/GCC/ARM_CM3/portmacro.h **** 	#define configUSE_PORT_OPTIMISED_TASK_SELECTION 1
 125:Middlewares/Third_Party/FreeRTOS/Source/portable/GCC/ARM_CM3/portmacro.h **** #endif
 126:Middlewares/Third_Party/FreeRTOS/Source/portable/GCC/ARM_CM3/portmacro.h **** 
 127:Middlewares/Third_Party/FreeRTOS/Source/portable/GCC/ARM_CM3/portmacro.h **** #if configUSE_PORT_OPTIMISED_TASK_SELECTION == 1
 128:Middlewares/Third_Party/FreeRTOS/Source/portable/GCC/ARM_CM3/portmacro.h **** 
 129:Middlewares/Third_Party/FreeRTOS/Source/portable/GCC/ARM_CM3/portmacro.h **** 	/* Generic helper function. */
 130:Middlewares/Third_Party/FreeRTOS/Source/portable/GCC/ARM_CM3/portmacro.h **** 	__attribute__( ( always_inline ) ) static inline uint8_t ucPortCountLeadingZeros( uint32_t ulBitma
 131:Middlewares/Third_Party/FreeRTOS/Source/portable/GCC/ARM_CM3/portmacro.h **** 	{
 132:Middlewares/Third_Party/FreeRTOS/Source/portable/GCC/ARM_CM3/portmacro.h **** 	uint8_t ucReturn;
 133:Middlewares/Third_Party/FreeRTOS/Source/portable/GCC/ARM_CM3/portmacro.h **** 
 134:Middlewares/Third_Party/FreeRTOS/Source/portable/GCC/ARM_CM3/portmacro.h **** 		__asm volatile ( "clz %0, %1" : "=r" ( ucReturn ) : "r" ( ulBitmap ) : "memory" );
 135:Middlewares/Third_Party/FreeRTOS/Source/portable/GCC/ARM_CM3/portmacro.h **** 		return ucReturn;
 136:Middlewares/Third_Party/FreeRTOS/Source/portable/GCC/ARM_CM3/portmacro.h **** 	}
 137:Middlewares/Third_Party/FreeRTOS/Source/portable/GCC/ARM_CM3/portmacro.h **** 
 138:Middlewares/Third_Party/FreeRTOS/Source/portable/GCC/ARM_CM3/portmacro.h **** 	/* Check the configuration. */
 139:Middlewares/Third_Party/FreeRTOS/Source/portable/GCC/ARM_CM3/portmacro.h **** 	#if( configMAX_PRIORITIES > 32 )
 140:Middlewares/Third_Party/FreeRTOS/Source/portable/GCC/ARM_CM3/portmacro.h **** 		#error configUSE_PORT_OPTIMISED_TASK_SELECTION can only be set to 1 when configMAX_PRIORITIES is 
 141:Middlewares/Third_Party/FreeRTOS/Source/portable/GCC/ARM_CM3/portmacro.h **** 	#endif
 142:Middlewares/Third_Party/FreeRTOS/Source/portable/GCC/ARM_CM3/portmacro.h **** 
 143:Middlewares/Third_Party/FreeRTOS/Source/portable/GCC/ARM_CM3/portmacro.h **** 	/* Store/clear the ready priorities in a bit map. */
 144:Middlewares/Third_Party/FreeRTOS/Source/portable/GCC/ARM_CM3/portmacro.h **** 	#define portRECORD_READY_PRIORITY( uxPriority, uxReadyPriorities ) ( uxReadyPriorities ) |= ( 1UL 
 145:Middlewares/Third_Party/FreeRTOS/Source/portable/GCC/ARM_CM3/portmacro.h **** 	#define portRESET_READY_PRIORITY( uxPriority, uxReadyPriorities ) ( uxReadyPriorities ) &= ~( 1UL 
 146:Middlewares/Third_Party/FreeRTOS/Source/portable/GCC/ARM_CM3/portmacro.h **** 
 147:Middlewares/Third_Party/FreeRTOS/Source/portable/GCC/ARM_CM3/portmacro.h **** 	/*-----------------------------------------------------------*/
 148:Middlewares/Third_Party/FreeRTOS/Source/portable/GCC/ARM_CM3/portmacro.h **** 
 149:Middlewares/Third_Party/FreeRTOS/Source/portable/GCC/ARM_CM3/portmacro.h **** 	#define portGET_HIGHEST_PRIORITY( uxTopPriority, uxReadyPriorities ) uxTopPriority = ( 31UL - ( ui
 150:Middlewares/Third_Party/FreeRTOS/Source/portable/GCC/ARM_CM3/portmacro.h **** 
 151:Middlewares/Third_Party/FreeRTOS/Source/portable/GCC/ARM_CM3/portmacro.h **** #endif /* configUSE_PORT_OPTIMISED_TASK_SELECTION */
 152:Middlewares/Third_Party/FreeRTOS/Source/portable/GCC/ARM_CM3/portmacro.h **** 
 153:Middlewares/Third_Party/FreeRTOS/Source/portable/GCC/ARM_CM3/portmacro.h **** /*-----------------------------------------------------------*/
 154:Middlewares/Third_Party/FreeRTOS/Source/portable/GCC/ARM_CM3/portmacro.h **** 
 155:Middlewares/Third_Party/FreeRTOS/Source/portable/GCC/ARM_CM3/portmacro.h **** #ifdef configASSERT
 156:Middlewares/Third_Party/FreeRTOS/Source/portable/GCC/ARM_CM3/portmacro.h **** 	void vPortValidateInterruptPriority( void );
 157:Middlewares/Third_Party/FreeRTOS/Source/portable/GCC/ARM_CM3/portmacro.h **** 	#define portASSERT_IF_INTERRUPT_PRIORITY_INVALID() 	vPortValidateInterruptPriority()
 158:Middlewares/Third_Party/FreeRTOS/Source/portable/GCC/ARM_CM3/portmacro.h **** #endif
 159:Middlewares/Third_Party/FreeRTOS/Source/portable/GCC/ARM_CM3/portmacro.h **** 
 160:Middlewares/Third_Party/FreeRTOS/Source/portable/GCC/ARM_CM3/portmacro.h **** /* portNOP() is not required by this port. */
 161:Middlewares/Third_Party/FreeRTOS/Source/portable/GCC/ARM_CM3/portmacro.h **** #define portNOP()
ARM GAS  C:\Users\Lenovo\AppData\Local\Temp\cci3TShy.s 			page 63


 162:Middlewares/Third_Party/FreeRTOS/Source/portable/GCC/ARM_CM3/portmacro.h **** 
 163:Middlewares/Third_Party/FreeRTOS/Source/portable/GCC/ARM_CM3/portmacro.h **** #define portINLINE	__inline
 164:Middlewares/Third_Party/FreeRTOS/Source/portable/GCC/ARM_CM3/portmacro.h **** 
 165:Middlewares/Third_Party/FreeRTOS/Source/portable/GCC/ARM_CM3/portmacro.h **** #ifndef portFORCE_INLINE
 166:Middlewares/Third_Party/FreeRTOS/Source/portable/GCC/ARM_CM3/portmacro.h **** 	#define portFORCE_INLINE inline __attribute__(( always_inline))
 167:Middlewares/Third_Party/FreeRTOS/Source/portable/GCC/ARM_CM3/portmacro.h **** #endif
 168:Middlewares/Third_Party/FreeRTOS/Source/portable/GCC/ARM_CM3/portmacro.h **** 
 169:Middlewares/Third_Party/FreeRTOS/Source/portable/GCC/ARM_CM3/portmacro.h **** portFORCE_INLINE static BaseType_t xPortIsInsideInterrupt( void )
 170:Middlewares/Third_Party/FreeRTOS/Source/portable/GCC/ARM_CM3/portmacro.h **** {
 171:Middlewares/Third_Party/FreeRTOS/Source/portable/GCC/ARM_CM3/portmacro.h **** uint32_t ulCurrentInterrupt;
 172:Middlewares/Third_Party/FreeRTOS/Source/portable/GCC/ARM_CM3/portmacro.h **** BaseType_t xReturn;
 173:Middlewares/Third_Party/FreeRTOS/Source/portable/GCC/ARM_CM3/portmacro.h **** 
 174:Middlewares/Third_Party/FreeRTOS/Source/portable/GCC/ARM_CM3/portmacro.h **** 	/* Obtain the number of the currently executing interrupt. */
 175:Middlewares/Third_Party/FreeRTOS/Source/portable/GCC/ARM_CM3/portmacro.h **** 	__asm volatile( "mrs %0, ipsr" : "=r"( ulCurrentInterrupt ) :: "memory" );
 176:Middlewares/Third_Party/FreeRTOS/Source/portable/GCC/ARM_CM3/portmacro.h **** 
 177:Middlewares/Third_Party/FreeRTOS/Source/portable/GCC/ARM_CM3/portmacro.h **** 	if( ulCurrentInterrupt == 0 )
 178:Middlewares/Third_Party/FreeRTOS/Source/portable/GCC/ARM_CM3/portmacro.h **** 	{
 179:Middlewares/Third_Party/FreeRTOS/Source/portable/GCC/ARM_CM3/portmacro.h **** 		xReturn = pdFALSE;
 180:Middlewares/Third_Party/FreeRTOS/Source/portable/GCC/ARM_CM3/portmacro.h **** 	}
 181:Middlewares/Third_Party/FreeRTOS/Source/portable/GCC/ARM_CM3/portmacro.h **** 	else
 182:Middlewares/Third_Party/FreeRTOS/Source/portable/GCC/ARM_CM3/portmacro.h **** 	{
 183:Middlewares/Third_Party/FreeRTOS/Source/portable/GCC/ARM_CM3/portmacro.h **** 		xReturn = pdTRUE;
 184:Middlewares/Third_Party/FreeRTOS/Source/portable/GCC/ARM_CM3/portmacro.h **** 	}
 185:Middlewares/Third_Party/FreeRTOS/Source/portable/GCC/ARM_CM3/portmacro.h **** 
 186:Middlewares/Third_Party/FreeRTOS/Source/portable/GCC/ARM_CM3/portmacro.h **** 	return xReturn;
 187:Middlewares/Third_Party/FreeRTOS/Source/portable/GCC/ARM_CM3/portmacro.h **** }
 188:Middlewares/Third_Party/FreeRTOS/Source/portable/GCC/ARM_CM3/portmacro.h **** 
 189:Middlewares/Third_Party/FreeRTOS/Source/portable/GCC/ARM_CM3/portmacro.h **** /*-----------------------------------------------------------*/
 190:Middlewares/Third_Party/FreeRTOS/Source/portable/GCC/ARM_CM3/portmacro.h **** 
 191:Middlewares/Third_Party/FreeRTOS/Source/portable/GCC/ARM_CM3/portmacro.h **** portFORCE_INLINE static void vPortRaiseBASEPRI( void )
 192:Middlewares/Third_Party/FreeRTOS/Source/portable/GCC/ARM_CM3/portmacro.h **** {
 193:Middlewares/Third_Party/FreeRTOS/Source/portable/GCC/ARM_CM3/portmacro.h **** uint32_t ulNewBASEPRI;
 194:Middlewares/Third_Party/FreeRTOS/Source/portable/GCC/ARM_CM3/portmacro.h **** 
 195:Middlewares/Third_Party/FreeRTOS/Source/portable/GCC/ARM_CM3/portmacro.h **** 	__asm volatile
 196:Middlewares/Third_Party/FreeRTOS/Source/portable/GCC/ARM_CM3/portmacro.h **** 	(
 197:Middlewares/Third_Party/FreeRTOS/Source/portable/GCC/ARM_CM3/portmacro.h **** 		"	mov %0, %1												\n" \
 198:Middlewares/Third_Party/FreeRTOS/Source/portable/GCC/ARM_CM3/portmacro.h **** 		"	msr basepri, %0											\n" \
 199:Middlewares/Third_Party/FreeRTOS/Source/portable/GCC/ARM_CM3/portmacro.h **** 		"	isb														\n" \
 200:Middlewares/Third_Party/FreeRTOS/Source/portable/GCC/ARM_CM3/portmacro.h **** 		"	dsb														\n" \
 201:Middlewares/Third_Party/FreeRTOS/Source/portable/GCC/ARM_CM3/portmacro.h **** 		:"=r" (ulNewBASEPRI) : "i" ( configMAX_SYSCALL_INTERRUPT_PRIORITY ) : "memory"
 202:Middlewares/Third_Party/FreeRTOS/Source/portable/GCC/ARM_CM3/portmacro.h **** 	);
 203:Middlewares/Third_Party/FreeRTOS/Source/portable/GCC/ARM_CM3/portmacro.h **** }
 204:Middlewares/Third_Party/FreeRTOS/Source/portable/GCC/ARM_CM3/portmacro.h **** 
 205:Middlewares/Third_Party/FreeRTOS/Source/portable/GCC/ARM_CM3/portmacro.h **** /*-----------------------------------------------------------*/
 206:Middlewares/Third_Party/FreeRTOS/Source/portable/GCC/ARM_CM3/portmacro.h **** 
 207:Middlewares/Third_Party/FreeRTOS/Source/portable/GCC/ARM_CM3/portmacro.h **** portFORCE_INLINE static uint32_t ulPortRaiseBASEPRI( void )
 2086              		.loc 3 207 34 view .LVU492
 2087              	.LBB11:
 208:Middlewares/Third_Party/FreeRTOS/Source/portable/GCC/ARM_CM3/portmacro.h **** {
 209:Middlewares/Third_Party/FreeRTOS/Source/portable/GCC/ARM_CM3/portmacro.h **** uint32_t ulOriginalBASEPRI, ulNewBASEPRI;
 2088              		.loc 3 209 1 view .LVU493
 210:Middlewares/Third_Party/FreeRTOS/Source/portable/GCC/ARM_CM3/portmacro.h **** 
 211:Middlewares/Third_Party/FreeRTOS/Source/portable/GCC/ARM_CM3/portmacro.h **** 	__asm volatile
 2089              		.loc 3 211 2 view .LVU494
 2090              		.syntax unified
 2091              	@ 211 "Middlewares/Third_Party/FreeRTOS/Source/portable/GCC/ARM_CM3/portmacro.h" 1
 2092 000a EFF31185 			mrs r5, basepri											
ARM GAS  C:\Users\Lenovo\AppData\Local\Temp\cci3TShy.s 			page 64


 2093 000e 4FF05003 		mov r3, #80												
 2094 0012 83F31188 		msr basepri, r3											
 2095 0016 BFF36F8F 		isb														
 2096 001a BFF34F8F 		dsb														
 2097              	
 2098              	@ 0 "" 2
 2099              	.LVL170:
 212:Middlewares/Third_Party/FreeRTOS/Source/portable/GCC/ARM_CM3/portmacro.h **** 	(
 213:Middlewares/Third_Party/FreeRTOS/Source/portable/GCC/ARM_CM3/portmacro.h **** 		"	mrs %0, basepri											\n" \
 214:Middlewares/Third_Party/FreeRTOS/Source/portable/GCC/ARM_CM3/portmacro.h **** 		"	mov %1, %2												\n" \
 215:Middlewares/Third_Party/FreeRTOS/Source/portable/GCC/ARM_CM3/portmacro.h **** 		"	msr basepri, %1											\n" \
 216:Middlewares/Third_Party/FreeRTOS/Source/portable/GCC/ARM_CM3/portmacro.h **** 		"	isb														\n" \
 217:Middlewares/Third_Party/FreeRTOS/Source/portable/GCC/ARM_CM3/portmacro.h **** 		"	dsb														\n" \
 218:Middlewares/Third_Party/FreeRTOS/Source/portable/GCC/ARM_CM3/portmacro.h **** 		:"=r" (ulOriginalBASEPRI), "=r" (ulNewBASEPRI) : "i" ( configMAX_SYSCALL_INTERRUPT_PRIORITY ) : "
 219:Middlewares/Third_Party/FreeRTOS/Source/portable/GCC/ARM_CM3/portmacro.h **** 	);
 220:Middlewares/Third_Party/FreeRTOS/Source/portable/GCC/ARM_CM3/portmacro.h **** 
 221:Middlewares/Third_Party/FreeRTOS/Source/portable/GCC/ARM_CM3/portmacro.h **** 	/* This return will not be reached but is necessary to prevent compiler
 222:Middlewares/Third_Party/FreeRTOS/Source/portable/GCC/ARM_CM3/portmacro.h **** 	warnings. */
 223:Middlewares/Third_Party/FreeRTOS/Source/portable/GCC/ARM_CM3/portmacro.h **** 	return ulOriginalBASEPRI;
 2100              		.loc 3 223 2 view .LVU495
 2101              		.thumb
 2102              		.syntax unified
 2103              	.L157:
 2104              		.loc 3 223 2 is_stmt 0 view .LVU496
 2105              	.LBE11:
 2106              	.LBE10:
 945:Middlewares/Third_Party/FreeRTOS/Source/CMSIS_RTOS/cmsis_os.c ****   }
 946:Middlewares/Third_Party/FreeRTOS/Source/CMSIS_RTOS/cmsis_os.c ****   else {
 947:Middlewares/Third_Party/FreeRTOS/Source/CMSIS_RTOS/cmsis_os.c ****     vPortEnterCritical();
 948:Middlewares/Third_Party/FreeRTOS/Source/CMSIS_RTOS/cmsis_os.c ****   }
 949:Middlewares/Third_Party/FreeRTOS/Source/CMSIS_RTOS/cmsis_os.c ****   
 950:Middlewares/Third_Party/FreeRTOS/Source/CMSIS_RTOS/cmsis_os.c ****   for (i = 0; i < pool_id->pool_sz; i++) {
 2107              		.loc 1 950 3 is_stmt 1 view .LVU497
 2108              		.loc 1 950 10 is_stmt 0 view .LVU498
 2109 001e 0021     		movs	r1, #0
 2110              		.loc 1 950 3 view .LVU499
 2111 0020 04E0     		b	.L158
 2112              	.LVL171:
 2113              	.L156:
 2114              		.loc 1 950 3 view .LVU500
 2115 0022 0546     		mov	r5, r0
 947:Middlewares/Third_Party/FreeRTOS/Source/CMSIS_RTOS/cmsis_os.c ****   }
 2116              		.loc 1 947 5 is_stmt 1 view .LVU501
 2117 0024 FFF7FEFF 		bl	vPortEnterCritical
 2118              	.LVL172:
 2119 0028 F9E7     		b	.L157
 2120              	.LVL173:
 2121              	.L159:
 2122              		.loc 1 950 37 discriminator 2 view .LVU502
 2123              		.loc 1 950 38 is_stmt 0 discriminator 2 view .LVU503
 2124 002a 0131     		adds	r1, r1, #1
 2125              	.LVL174:
 2126              	.L158:
 2127              		.loc 1 950 15 is_stmt 1 discriminator 1 view .LVU504
 2128              		.loc 1 950 26 is_stmt 0 discriminator 1 view .LVU505
 2129 002c A268     		ldr	r2, [r4, #8]
 2130              		.loc 1 950 3 discriminator 1 view .LVU506
ARM GAS  C:\Users\Lenovo\AppData\Local\Temp\cci3TShy.s 			page 65


 2131 002e 8A42     		cmp	r2, r1
 2132 0030 12D9     		bls	.L165
 951:Middlewares/Third_Party/FreeRTOS/Source/CMSIS_RTOS/cmsis_os.c ****     index = (pool_id->currentIndex + i) % pool_id->pool_sz;
 2133              		.loc 1 951 5 is_stmt 1 view .LVU507
 2134              		.loc 1 951 21 is_stmt 0 view .LVU508
 2135 0032 2369     		ldr	r3, [r4, #16]
 2136              		.loc 1 951 36 view .LVU509
 2137 0034 0B44     		add	r3, r3, r1
 2138              		.loc 1 951 11 view .LVU510
 2139 0036 B3FBF2F0 		udiv	r0, r3, r2
 2140 003a 02FB1033 		mls	r3, r2, r0, r3
 2141              	.LVL175:
 952:Middlewares/Third_Party/FreeRTOS/Source/CMSIS_RTOS/cmsis_os.c ****     
 953:Middlewares/Third_Party/FreeRTOS/Source/CMSIS_RTOS/cmsis_os.c ****     if (pool_id->markers[index] == 0) {
 2142              		.loc 1 953 5 is_stmt 1 view .LVU511
 2143              		.loc 1 953 16 is_stmt 0 view .LVU512
 2144 003e 6268     		ldr	r2, [r4, #4]
 2145              		.loc 1 953 25 view .LVU513
 2146 0040 D018     		adds	r0, r2, r3
 2147 0042 D25C     		ldrb	r2, [r2, r3]	@ zero_extendqisi2
 2148              		.loc 1 953 8 view .LVU514
 2149 0044 002A     		cmp	r2, #0
 2150 0046 F0D1     		bne	.L159
 954:Middlewares/Third_Party/FreeRTOS/Source/CMSIS_RTOS/cmsis_os.c ****       pool_id->markers[index] = 1;
 2151              		.loc 1 954 7 is_stmt 1 view .LVU515
 2152              		.loc 1 954 31 is_stmt 0 view .LVU516
 2153 0048 0122     		movs	r2, #1
 2154 004a 0270     		strb	r2, [r0]
 955:Middlewares/Third_Party/FreeRTOS/Source/CMSIS_RTOS/cmsis_os.c ****       p = (void *)((uint32_t)(pool_id->pool) + (index * pool_id->item_sz));
 2155              		.loc 1 955 7 is_stmt 1 view .LVU517
 2156              		.loc 1 955 38 is_stmt 0 view .LVU518
 2157 004c 2668     		ldr	r6, [r4]
 2158              		.loc 1 955 64 view .LVU519
 2159 004e E268     		ldr	r2, [r4, #12]
 2160              		.loc 1 955 46 view .LVU520
 2161 0050 03FB0266 		mla	r6, r3, r2, r6
 2162              	.LVL176:
 956:Middlewares/Third_Party/FreeRTOS/Source/CMSIS_RTOS/cmsis_os.c ****       pool_id->currentIndex = index;
 2163              		.loc 1 956 7 is_stmt 1 view .LVU521
 2164              		.loc 1 956 29 is_stmt 0 view .LVU522
 2165 0054 2361     		str	r3, [r4, #16]
 957:Middlewares/Third_Party/FreeRTOS/Source/CMSIS_RTOS/cmsis_os.c ****       break;
 2166              		.loc 1 957 7 is_stmt 1 view .LVU523
 2167 0056 00E0     		b	.L160
 2168              	.LVL177:
 2169              	.L165:
 939:Middlewares/Third_Party/FreeRTOS/Source/CMSIS_RTOS/cmsis_os.c ****   uint32_t i;
 2170              		.loc 1 939 9 is_stmt 0 view .LVU524
 2171 0058 0026     		movs	r6, #0
 2172              	.LVL178:
 2173              	.L160:
 958:Middlewares/Third_Party/FreeRTOS/Source/CMSIS_RTOS/cmsis_os.c ****     }
 959:Middlewares/Third_Party/FreeRTOS/Source/CMSIS_RTOS/cmsis_os.c ****   }
 960:Middlewares/Third_Party/FreeRTOS/Source/CMSIS_RTOS/cmsis_os.c ****   
 961:Middlewares/Third_Party/FreeRTOS/Source/CMSIS_RTOS/cmsis_os.c ****   if (inHandlerMode()) {
 2174              		.loc 1 961 3 is_stmt 1 view .LVU525
 2175              		.loc 1 961 7 is_stmt 0 view .LVU526
ARM GAS  C:\Users\Lenovo\AppData\Local\Temp\cci3TShy.s 			page 66


 2176 005a FFF7FEFF 		bl	inHandlerMode
 2177              	.LVL179:
 2178              		.loc 1 961 6 view .LVU527
 2179 005e 18B1     		cbz	r0, .L162
 962:Middlewares/Third_Party/FreeRTOS/Source/CMSIS_RTOS/cmsis_os.c ****     portCLEAR_INTERRUPT_MASK_FROM_ISR(dummy);
 2180              		.loc 1 962 5 is_stmt 1 view .LVU528
 2181              	.LVL180:
 2182              	.LBB12:
 2183              	.LBI12:
 224:Middlewares/Third_Party/FreeRTOS/Source/portable/GCC/ARM_CM3/portmacro.h **** }
 225:Middlewares/Third_Party/FreeRTOS/Source/portable/GCC/ARM_CM3/portmacro.h **** /*-----------------------------------------------------------*/
 226:Middlewares/Third_Party/FreeRTOS/Source/portable/GCC/ARM_CM3/portmacro.h **** 
 227:Middlewares/Third_Party/FreeRTOS/Source/portable/GCC/ARM_CM3/portmacro.h **** portFORCE_INLINE static void vPortSetBASEPRI( uint32_t ulNewMaskValue )
 2184              		.loc 3 227 30 view .LVU529
 2185              	.LBB13:
 228:Middlewares/Third_Party/FreeRTOS/Source/portable/GCC/ARM_CM3/portmacro.h **** {
 229:Middlewares/Third_Party/FreeRTOS/Source/portable/GCC/ARM_CM3/portmacro.h **** 	__asm volatile
 2186              		.loc 3 229 2 view .LVU530
 2187              		.syntax unified
 2188              	@ 229 "Middlewares/Third_Party/FreeRTOS/Source/portable/GCC/ARM_CM3/portmacro.h" 1
 2189 0060 85F31188 			msr basepri, r5	
 2190              	@ 0 "" 2
 2191              	.LVL181:
 2192              		.thumb
 2193              		.syntax unified
 2194              	.L155:
 2195              		.loc 3 229 2 is_stmt 0 view .LVU531
 2196              	.LBE13:
 2197              	.LBE12:
 963:Middlewares/Third_Party/FreeRTOS/Source/CMSIS_RTOS/cmsis_os.c ****   }
 964:Middlewares/Third_Party/FreeRTOS/Source/CMSIS_RTOS/cmsis_os.c ****   else {
 965:Middlewares/Third_Party/FreeRTOS/Source/CMSIS_RTOS/cmsis_os.c ****     vPortExitCritical();
 966:Middlewares/Third_Party/FreeRTOS/Source/CMSIS_RTOS/cmsis_os.c ****   }
 967:Middlewares/Third_Party/FreeRTOS/Source/CMSIS_RTOS/cmsis_os.c ****   
 968:Middlewares/Third_Party/FreeRTOS/Source/CMSIS_RTOS/cmsis_os.c ****   return p;
 969:Middlewares/Third_Party/FreeRTOS/Source/CMSIS_RTOS/cmsis_os.c **** }
 2198              		.loc 1 969 1 view .LVU532
 2199 0064 3046     		mov	r0, r6
 2200 0066 70BD     		pop	{r4, r5, r6, pc}
 2201              	.LVL182:
 2202              	.L162:
 965:Middlewares/Third_Party/FreeRTOS/Source/CMSIS_RTOS/cmsis_os.c ****   }
 2203              		.loc 1 965 5 is_stmt 1 view .LVU533
 2204 0068 FFF7FEFF 		bl	vPortExitCritical
 2205              	.LVL183:
 968:Middlewares/Third_Party/FreeRTOS/Source/CMSIS_RTOS/cmsis_os.c **** }
 2206              		.loc 1 968 3 view .LVU534
 968:Middlewares/Third_Party/FreeRTOS/Source/CMSIS_RTOS/cmsis_os.c **** }
 2207              		.loc 1 968 10 is_stmt 0 view .LVU535
 2208 006c FAE7     		b	.L155
 2209              		.cfi_endproc
 2210              	.LFE137:
 2212              		.section	.text.osPoolCAlloc,"ax",%progbits
 2213              		.align	1
 2214              		.global	osPoolCAlloc
 2215              		.syntax unified
 2216              		.thumb
ARM GAS  C:\Users\Lenovo\AppData\Local\Temp\cci3TShy.s 			page 67


 2217              		.thumb_func
 2219              	osPoolCAlloc:
 2220              	.LVL184:
 2221              	.LFB138:
 970:Middlewares/Third_Party/FreeRTOS/Source/CMSIS_RTOS/cmsis_os.c **** 
 971:Middlewares/Third_Party/FreeRTOS/Source/CMSIS_RTOS/cmsis_os.c **** /**
 972:Middlewares/Third_Party/FreeRTOS/Source/CMSIS_RTOS/cmsis_os.c **** * @brief Allocate a memory block from a memory pool and set memory block to zero
 973:Middlewares/Third_Party/FreeRTOS/Source/CMSIS_RTOS/cmsis_os.c **** * @param  pool_id       memory pool ID obtain referenced with \ref osPoolCreate.
 974:Middlewares/Third_Party/FreeRTOS/Source/CMSIS_RTOS/cmsis_os.c **** * @retval  address of the allocated memory block or NULL in case of no memory available.
 975:Middlewares/Third_Party/FreeRTOS/Source/CMSIS_RTOS/cmsis_os.c **** * @note   MUST REMAIN UNCHANGED: \b osPoolCAlloc shall be consistent in every CMSIS-RTOS.
 976:Middlewares/Third_Party/FreeRTOS/Source/CMSIS_RTOS/cmsis_os.c **** */
 977:Middlewares/Third_Party/FreeRTOS/Source/CMSIS_RTOS/cmsis_os.c **** void *osPoolCAlloc (osPoolId pool_id)
 978:Middlewares/Third_Party/FreeRTOS/Source/CMSIS_RTOS/cmsis_os.c **** {
 2222              		.loc 1 978 1 is_stmt 1 view -0
 2223              		.cfi_startproc
 2224              		@ args = 0, pretend = 0, frame = 0
 2225              		@ frame_needed = 0, uses_anonymous_args = 0
 2226              		.loc 1 978 1 is_stmt 0 view .LVU537
 2227 0000 08B5     		push	{r3, lr}
 2228              	.LCFI60:
 2229              		.cfi_def_cfa_offset 8
 2230              		.cfi_offset 3, -8
 2231              		.cfi_offset 14, -4
 979:Middlewares/Third_Party/FreeRTOS/Source/CMSIS_RTOS/cmsis_os.c ****   void *p = osPoolAlloc(pool_id);
 2232              		.loc 1 979 3 is_stmt 1 view .LVU538
 2233              		.loc 1 979 13 is_stmt 0 view .LVU539
 2234 0002 FFF7FEFF 		bl	osPoolAlloc
 2235              	.LVL185:
 980:Middlewares/Third_Party/FreeRTOS/Source/CMSIS_RTOS/cmsis_os.c ****   
 981:Middlewares/Third_Party/FreeRTOS/Source/CMSIS_RTOS/cmsis_os.c ****   if (p != NULL)
 2236              		.loc 1 981 3 is_stmt 1 view .LVU540
 2237              		.loc 1 981 6 is_stmt 0 view .LVU541
 2238 0006 08B1     		cbz	r0, .L166
 982:Middlewares/Third_Party/FreeRTOS/Source/CMSIS_RTOS/cmsis_os.c ****   {
 983:Middlewares/Third_Party/FreeRTOS/Source/CMSIS_RTOS/cmsis_os.c ****     memset(p, 0, sizeof(pool_id->pool_sz));
 2239              		.loc 1 983 5 is_stmt 1 view .LVU542
 2240 0008 0023     		movs	r3, #0
 2241 000a 0360     		str	r3, [r0]	@ unaligned
 984:Middlewares/Third_Party/FreeRTOS/Source/CMSIS_RTOS/cmsis_os.c ****   }
 985:Middlewares/Third_Party/FreeRTOS/Source/CMSIS_RTOS/cmsis_os.c ****   
 986:Middlewares/Third_Party/FreeRTOS/Source/CMSIS_RTOS/cmsis_os.c ****   return p;
 2242              		.loc 1 986 3 view .LVU543
 2243              	.L166:
 987:Middlewares/Third_Party/FreeRTOS/Source/CMSIS_RTOS/cmsis_os.c **** }
 2244              		.loc 1 987 1 is_stmt 0 view .LVU544
 2245 000c 08BD     		pop	{r3, pc}
 2246              		.cfi_endproc
 2247              	.LFE138:
 2249              		.section	.text.osPoolFree,"ax",%progbits
 2250              		.align	1
 2251              		.global	osPoolFree
 2252              		.syntax unified
 2253              		.thumb
 2254              		.thumb_func
 2256              	osPoolFree:
 2257              	.LVL186:
 2258              	.LFB139:
ARM GAS  C:\Users\Lenovo\AppData\Local\Temp\cci3TShy.s 			page 68


 988:Middlewares/Third_Party/FreeRTOS/Source/CMSIS_RTOS/cmsis_os.c **** 
 989:Middlewares/Third_Party/FreeRTOS/Source/CMSIS_RTOS/cmsis_os.c **** /**
 990:Middlewares/Third_Party/FreeRTOS/Source/CMSIS_RTOS/cmsis_os.c **** * @brief Return an allocated memory block back to a specific memory pool
 991:Middlewares/Third_Party/FreeRTOS/Source/CMSIS_RTOS/cmsis_os.c **** * @param  pool_id       memory pool ID obtain referenced with \ref osPoolCreate.
 992:Middlewares/Third_Party/FreeRTOS/Source/CMSIS_RTOS/cmsis_os.c **** * @param  block         address of the allocated memory block that is returned to the memory pool.
 993:Middlewares/Third_Party/FreeRTOS/Source/CMSIS_RTOS/cmsis_os.c **** * @retval  status code that indicates the execution status of the function.
 994:Middlewares/Third_Party/FreeRTOS/Source/CMSIS_RTOS/cmsis_os.c **** * @note   MUST REMAIN UNCHANGED: \b osPoolFree shall be consistent in every CMSIS-RTOS.
 995:Middlewares/Third_Party/FreeRTOS/Source/CMSIS_RTOS/cmsis_os.c **** */
 996:Middlewares/Third_Party/FreeRTOS/Source/CMSIS_RTOS/cmsis_os.c **** osStatus osPoolFree (osPoolId pool_id, void *block)
 997:Middlewares/Third_Party/FreeRTOS/Source/CMSIS_RTOS/cmsis_os.c **** {
 2259              		.loc 1 997 1 is_stmt 1 view -0
 2260              		.cfi_startproc
 2261              		@ args = 0, pretend = 0, frame = 0
 2262              		@ frame_needed = 0, uses_anonymous_args = 0
 2263              		@ link register save eliminated.
 998:Middlewares/Third_Party/FreeRTOS/Source/CMSIS_RTOS/cmsis_os.c ****   uint32_t index;
 2264              		.loc 1 998 3 view .LVU546
 999:Middlewares/Third_Party/FreeRTOS/Source/CMSIS_RTOS/cmsis_os.c ****   
1000:Middlewares/Third_Party/FreeRTOS/Source/CMSIS_RTOS/cmsis_os.c ****   if (pool_id == NULL) {
 2265              		.loc 1 1000 3 view .LVU547
 2266              		.loc 1 1000 6 is_stmt 0 view .LVU548
 2267 0000 0346     		mov	r3, r0
 2268 0002 98B1     		cbz	r0, .L171
1001:Middlewares/Third_Party/FreeRTOS/Source/CMSIS_RTOS/cmsis_os.c ****     return osErrorParameter;
1002:Middlewares/Third_Party/FreeRTOS/Source/CMSIS_RTOS/cmsis_os.c ****   }
1003:Middlewares/Third_Party/FreeRTOS/Source/CMSIS_RTOS/cmsis_os.c ****   
1004:Middlewares/Third_Party/FreeRTOS/Source/CMSIS_RTOS/cmsis_os.c ****   if (block == NULL) {
 2269              		.loc 1 1004 3 is_stmt 1 view .LVU549
 2270              		.loc 1 1004 6 is_stmt 0 view .LVU550
 2271 0004 A1B1     		cbz	r1, .L172
1005:Middlewares/Third_Party/FreeRTOS/Source/CMSIS_RTOS/cmsis_os.c ****     return osErrorParameter;
1006:Middlewares/Third_Party/FreeRTOS/Source/CMSIS_RTOS/cmsis_os.c ****   }
1007:Middlewares/Third_Party/FreeRTOS/Source/CMSIS_RTOS/cmsis_os.c ****   
1008:Middlewares/Third_Party/FreeRTOS/Source/CMSIS_RTOS/cmsis_os.c ****   if (block < pool_id->pool) {
 2272              		.loc 1 1008 3 is_stmt 1 view .LVU551
 2273              		.loc 1 1008 22 is_stmt 0 view .LVU552
 2274 0006 0268     		ldr	r2, [r0]
 2275              		.loc 1 1008 6 view .LVU553
 2276 0008 8A42     		cmp	r2, r1
 2277 000a 13D8     		bhi	.L173
1009:Middlewares/Third_Party/FreeRTOS/Source/CMSIS_RTOS/cmsis_os.c ****     return osErrorParameter;
1010:Middlewares/Third_Party/FreeRTOS/Source/CMSIS_RTOS/cmsis_os.c ****   }
1011:Middlewares/Third_Party/FreeRTOS/Source/CMSIS_RTOS/cmsis_os.c ****   
1012:Middlewares/Third_Party/FreeRTOS/Source/CMSIS_RTOS/cmsis_os.c ****   index = (uint32_t)block - (uint32_t)(pool_id->pool);
 2278              		.loc 1 1012 3 is_stmt 1 view .LVU554
 2279              		.loc 1 1012 9 is_stmt 0 view .LVU555
 2280 000c 891A     		subs	r1, r1, r2
 2281              	.LVL187:
1013:Middlewares/Third_Party/FreeRTOS/Source/CMSIS_RTOS/cmsis_os.c ****   if (index % pool_id->item_sz) {
 2282              		.loc 1 1013 3 is_stmt 1 view .LVU556
 2283              		.loc 1 1013 22 is_stmt 0 view .LVU557
 2284 000e C268     		ldr	r2, [r0, #12]
 2285              		.loc 1 1013 13 view .LVU558
 2286 0010 B1FBF2F0 		udiv	r0, r1, r2
 2287              	.LVL188:
 2288              		.loc 1 1013 13 view .LVU559
 2289 0014 02FB1010 		mls	r0, r2, r0, r1
ARM GAS  C:\Users\Lenovo\AppData\Local\Temp\cci3TShy.s 			page 69


 2290              		.loc 1 1013 6 view .LVU560
 2291 0018 70B9     		cbnz	r0, .L174
1014:Middlewares/Third_Party/FreeRTOS/Source/CMSIS_RTOS/cmsis_os.c ****     return osErrorParameter;
1015:Middlewares/Third_Party/FreeRTOS/Source/CMSIS_RTOS/cmsis_os.c ****   }
1016:Middlewares/Third_Party/FreeRTOS/Source/CMSIS_RTOS/cmsis_os.c ****   index = index / pool_id->item_sz;
 2292              		.loc 1 1016 3 is_stmt 1 view .LVU561
 2293              		.loc 1 1016 9 is_stmt 0 view .LVU562
 2294 001a B1FBF2F1 		udiv	r1, r1, r2
 2295              	.LVL189:
1017:Middlewares/Third_Party/FreeRTOS/Source/CMSIS_RTOS/cmsis_os.c ****   if (index >= pool_id->pool_sz) {
 2296              		.loc 1 1017 3 is_stmt 1 view .LVU563
 2297              		.loc 1 1017 23 is_stmt 0 view .LVU564
 2298 001e 9A68     		ldr	r2, [r3, #8]
 2299              		.loc 1 1017 6 view .LVU565
 2300 0020 8A42     		cmp	r2, r1
 2301 0022 0BD9     		bls	.L175
1018:Middlewares/Third_Party/FreeRTOS/Source/CMSIS_RTOS/cmsis_os.c ****     return osErrorParameter;
1019:Middlewares/Third_Party/FreeRTOS/Source/CMSIS_RTOS/cmsis_os.c ****   }
1020:Middlewares/Third_Party/FreeRTOS/Source/CMSIS_RTOS/cmsis_os.c ****   
1021:Middlewares/Third_Party/FreeRTOS/Source/CMSIS_RTOS/cmsis_os.c ****   pool_id->markers[index] = 0;
 2302              		.loc 1 1021 3 is_stmt 1 view .LVU566
 2303              		.loc 1 1021 10 is_stmt 0 view .LVU567
 2304 0024 5B68     		ldr	r3, [r3, #4]
 2305              	.LVL190:
 2306              		.loc 1 1021 27 view .LVU568
 2307 0026 0022     		movs	r2, #0
 2308 0028 5A54     		strb	r2, [r3, r1]
1022:Middlewares/Third_Party/FreeRTOS/Source/CMSIS_RTOS/cmsis_os.c ****   
1023:Middlewares/Third_Party/FreeRTOS/Source/CMSIS_RTOS/cmsis_os.c ****   return osOK;
 2309              		.loc 1 1023 3 is_stmt 1 view .LVU569
 2310              		.loc 1 1023 10 is_stmt 0 view .LVU570
 2311 002a 7047     		bx	lr
 2312              	.LVL191:
 2313              	.L171:
1001:Middlewares/Third_Party/FreeRTOS/Source/CMSIS_RTOS/cmsis_os.c ****   }
 2314              		.loc 1 1001 12 view .LVU571
 2315 002c 8020     		movs	r0, #128
 2316              	.LVL192:
1001:Middlewares/Third_Party/FreeRTOS/Source/CMSIS_RTOS/cmsis_os.c ****   }
 2317              		.loc 1 1001 12 view .LVU572
 2318 002e 7047     		bx	lr
 2319              	.LVL193:
 2320              	.L172:
1005:Middlewares/Third_Party/FreeRTOS/Source/CMSIS_RTOS/cmsis_os.c ****   }
 2321              		.loc 1 1005 12 view .LVU573
 2322 0030 8020     		movs	r0, #128
 2323              	.LVL194:
1005:Middlewares/Third_Party/FreeRTOS/Source/CMSIS_RTOS/cmsis_os.c ****   }
 2324              		.loc 1 1005 12 view .LVU574
 2325 0032 7047     		bx	lr
 2326              	.LVL195:
 2327              	.L173:
1009:Middlewares/Third_Party/FreeRTOS/Source/CMSIS_RTOS/cmsis_os.c ****   }
 2328              		.loc 1 1009 12 view .LVU575
 2329 0034 8020     		movs	r0, #128
 2330              	.LVL196:
1009:Middlewares/Third_Party/FreeRTOS/Source/CMSIS_RTOS/cmsis_os.c ****   }
ARM GAS  C:\Users\Lenovo\AppData\Local\Temp\cci3TShy.s 			page 70


 2331              		.loc 1 1009 12 view .LVU576
 2332 0036 7047     		bx	lr
 2333              	.LVL197:
 2334              	.L174:
1014:Middlewares/Third_Party/FreeRTOS/Source/CMSIS_RTOS/cmsis_os.c ****   }
 2335              		.loc 1 1014 12 view .LVU577
 2336 0038 8020     		movs	r0, #128
 2337 003a 7047     		bx	lr
 2338              	.L175:
1018:Middlewares/Third_Party/FreeRTOS/Source/CMSIS_RTOS/cmsis_os.c ****   }
 2339              		.loc 1 1018 12 view .LVU578
 2340 003c 8020     		movs	r0, #128
1024:Middlewares/Third_Party/FreeRTOS/Source/CMSIS_RTOS/cmsis_os.c **** }
 2341              		.loc 1 1024 1 view .LVU579
 2342 003e 7047     		bx	lr
 2343              		.cfi_endproc
 2344              	.LFE139:
 2346              		.section	.text.osMessageCreate,"ax",%progbits
 2347              		.align	1
 2348              		.global	osMessageCreate
 2349              		.syntax unified
 2350              		.thumb
 2351              		.thumb_func
 2353              	osMessageCreate:
 2354              	.LVL198:
 2355              	.LFB140:
1025:Middlewares/Third_Party/FreeRTOS/Source/CMSIS_RTOS/cmsis_os.c **** 
1026:Middlewares/Third_Party/FreeRTOS/Source/CMSIS_RTOS/cmsis_os.c **** 
1027:Middlewares/Third_Party/FreeRTOS/Source/CMSIS_RTOS/cmsis_os.c **** #endif   /* Use Memory Pool Management */
1028:Middlewares/Third_Party/FreeRTOS/Source/CMSIS_RTOS/cmsis_os.c **** 
1029:Middlewares/Third_Party/FreeRTOS/Source/CMSIS_RTOS/cmsis_os.c **** /*******************   Message Queue Management Functions  *********************/
1030:Middlewares/Third_Party/FreeRTOS/Source/CMSIS_RTOS/cmsis_os.c **** 
1031:Middlewares/Third_Party/FreeRTOS/Source/CMSIS_RTOS/cmsis_os.c **** #if (defined (osFeature_MessageQ)  &&  (osFeature_MessageQ != 0)) /* Use Message Queues */
1032:Middlewares/Third_Party/FreeRTOS/Source/CMSIS_RTOS/cmsis_os.c **** 
1033:Middlewares/Third_Party/FreeRTOS/Source/CMSIS_RTOS/cmsis_os.c **** /**
1034:Middlewares/Third_Party/FreeRTOS/Source/CMSIS_RTOS/cmsis_os.c **** * @brief Create and Initialize a Message Queue
1035:Middlewares/Third_Party/FreeRTOS/Source/CMSIS_RTOS/cmsis_os.c **** * @param queue_def     queue definition referenced with \ref osMessageQ.
1036:Middlewares/Third_Party/FreeRTOS/Source/CMSIS_RTOS/cmsis_os.c **** * @param  thread_id     thread ID (obtained by \ref osThreadCreate or \ref osThreadGetId) or NULL.
1037:Middlewares/Third_Party/FreeRTOS/Source/CMSIS_RTOS/cmsis_os.c **** * @retval  message queue ID for reference by other functions or NULL in case of error.
1038:Middlewares/Third_Party/FreeRTOS/Source/CMSIS_RTOS/cmsis_os.c **** * @note   MUST REMAIN UNCHANGED: \b osMessageCreate shall be consistent in every CMSIS-RTOS.
1039:Middlewares/Third_Party/FreeRTOS/Source/CMSIS_RTOS/cmsis_os.c **** */
1040:Middlewares/Third_Party/FreeRTOS/Source/CMSIS_RTOS/cmsis_os.c **** osMessageQId osMessageCreate (const osMessageQDef_t *queue_def, osThreadId thread_id)
1041:Middlewares/Third_Party/FreeRTOS/Source/CMSIS_RTOS/cmsis_os.c **** {
 2356              		.loc 1 1041 1 is_stmt 1 view -0
 2357              		.cfi_startproc
 2358              		@ args = 0, pretend = 0, frame = 0
 2359              		@ frame_needed = 0, uses_anonymous_args = 0
 2360              		.loc 1 1041 1 is_stmt 0 view .LVU581
 2361 0000 00B5     		push	{lr}
 2362              	.LCFI61:
 2363              		.cfi_def_cfa_offset 4
 2364              		.cfi_offset 14, -4
 2365 0002 83B0     		sub	sp, sp, #12
 2366              	.LCFI62:
 2367              		.cfi_def_cfa_offset 16
1042:Middlewares/Third_Party/FreeRTOS/Source/CMSIS_RTOS/cmsis_os.c ****   (void) thread_id;
 2368              		.loc 1 1042 3 is_stmt 1 view .LVU582
ARM GAS  C:\Users\Lenovo\AppData\Local\Temp\cci3TShy.s 			page 71


1043:Middlewares/Third_Party/FreeRTOS/Source/CMSIS_RTOS/cmsis_os.c ****   
1044:Middlewares/Third_Party/FreeRTOS/Source/CMSIS_RTOS/cmsis_os.c **** #if( configSUPPORT_STATIC_ALLOCATION == 1 ) && ( configSUPPORT_DYNAMIC_ALLOCATION == 1 )
1045:Middlewares/Third_Party/FreeRTOS/Source/CMSIS_RTOS/cmsis_os.c **** 
1046:Middlewares/Third_Party/FreeRTOS/Source/CMSIS_RTOS/cmsis_os.c ****   if ((queue_def->buffer != NULL) && (queue_def->controlblock != NULL)) {
 2369              		.loc 1 1046 3 view .LVU583
 2370              		.loc 1 1046 17 is_stmt 0 view .LVU584
 2371 0004 8268     		ldr	r2, [r0, #8]
 2372              		.loc 1 1046 6 view .LVU585
 2373 0006 42B1     		cbz	r2, .L177
 2374              		.loc 1 1046 48 discriminator 1 view .LVU586
 2375 0008 C368     		ldr	r3, [r0, #12]
 2376              		.loc 1 1046 35 discriminator 1 view .LVU587
 2377 000a 33B1     		cbz	r3, .L177
1047:Middlewares/Third_Party/FreeRTOS/Source/CMSIS_RTOS/cmsis_os.c ****     return xQueueCreateStatic(queue_def->queue_sz, queue_def->item_sz, queue_def->buffer, queue_def
 2378              		.loc 1 1047 5 is_stmt 1 view .LVU588
 2379              		.loc 1 1047 12 is_stmt 0 view .LVU589
 2380 000c 0021     		movs	r1, #0
 2381              	.LVL199:
 2382              		.loc 1 1047 12 view .LVU590
 2383 000e 0091     		str	r1, [sp]
 2384 0010 4168     		ldr	r1, [r0, #4]
 2385 0012 0068     		ldr	r0, [r0]
 2386              	.LVL200:
 2387              		.loc 1 1047 12 view .LVU591
 2388 0014 FFF7FEFF 		bl	xQueueGenericCreateStatic
 2389              	.LVL201:
 2390 0018 04E0     		b	.L176
 2391              	.LVL202:
 2392              	.L177:
1048:Middlewares/Third_Party/FreeRTOS/Source/CMSIS_RTOS/cmsis_os.c ****   }
1049:Middlewares/Third_Party/FreeRTOS/Source/CMSIS_RTOS/cmsis_os.c ****   else {
1050:Middlewares/Third_Party/FreeRTOS/Source/CMSIS_RTOS/cmsis_os.c ****     return xQueueCreate(queue_def->queue_sz, queue_def->item_sz);
 2393              		.loc 1 1050 5 is_stmt 1 view .LVU592
 2394              		.loc 1 1050 12 is_stmt 0 view .LVU593
 2395 001a 0022     		movs	r2, #0
 2396 001c 4168     		ldr	r1, [r0, #4]
 2397              	.LVL203:
 2398              		.loc 1 1050 12 view .LVU594
 2399 001e 0068     		ldr	r0, [r0]
 2400              	.LVL204:
 2401              		.loc 1 1050 12 view .LVU595
 2402 0020 FFF7FEFF 		bl	xQueueGenericCreate
 2403              	.LVL205:
 2404              	.L176:
1051:Middlewares/Third_Party/FreeRTOS/Source/CMSIS_RTOS/cmsis_os.c ****   }
1052:Middlewares/Third_Party/FreeRTOS/Source/CMSIS_RTOS/cmsis_os.c **** #elif ( configSUPPORT_STATIC_ALLOCATION == 1 )
1053:Middlewares/Third_Party/FreeRTOS/Source/CMSIS_RTOS/cmsis_os.c ****   return xQueueCreateStatic(queue_def->queue_sz, queue_def->item_sz, queue_def->buffer, queue_def->
1054:Middlewares/Third_Party/FreeRTOS/Source/CMSIS_RTOS/cmsis_os.c **** #else  
1055:Middlewares/Third_Party/FreeRTOS/Source/CMSIS_RTOS/cmsis_os.c ****   return xQueueCreate(queue_def->queue_sz, queue_def->item_sz);
1056:Middlewares/Third_Party/FreeRTOS/Source/CMSIS_RTOS/cmsis_os.c **** #endif
1057:Middlewares/Third_Party/FreeRTOS/Source/CMSIS_RTOS/cmsis_os.c **** }
 2405              		.loc 1 1057 1 view .LVU596
 2406 0024 03B0     		add	sp, sp, #12
 2407              	.LCFI63:
 2408              		.cfi_def_cfa_offset 4
 2409              		@ sp needed
 2410 0026 5DF804FB 		ldr	pc, [sp], #4
ARM GAS  C:\Users\Lenovo\AppData\Local\Temp\cci3TShy.s 			page 72


 2411              		.cfi_endproc
 2412              	.LFE140:
 2414              		.section	.text.osMessagePut,"ax",%progbits
 2415              		.align	1
 2416              		.global	osMessagePut
 2417              		.syntax unified
 2418              		.thumb
 2419              		.thumb_func
 2421              	osMessagePut:
 2422              	.LVL206:
 2423              	.LFB141:
1058:Middlewares/Third_Party/FreeRTOS/Source/CMSIS_RTOS/cmsis_os.c **** 
1059:Middlewares/Third_Party/FreeRTOS/Source/CMSIS_RTOS/cmsis_os.c **** /**
1060:Middlewares/Third_Party/FreeRTOS/Source/CMSIS_RTOS/cmsis_os.c **** * @brief Put a Message to a Queue.
1061:Middlewares/Third_Party/FreeRTOS/Source/CMSIS_RTOS/cmsis_os.c **** * @param  queue_id  message queue ID obtained with \ref osMessageCreate.
1062:Middlewares/Third_Party/FreeRTOS/Source/CMSIS_RTOS/cmsis_os.c **** * @param  info      message information.
1063:Middlewares/Third_Party/FreeRTOS/Source/CMSIS_RTOS/cmsis_os.c **** * @param  millisec  timeout value or 0 in case of no time-out.
1064:Middlewares/Third_Party/FreeRTOS/Source/CMSIS_RTOS/cmsis_os.c **** * @retval status code that indicates the execution status of the function.
1065:Middlewares/Third_Party/FreeRTOS/Source/CMSIS_RTOS/cmsis_os.c **** * @note   MUST REMAIN UNCHANGED: \b osMessagePut shall be consistent in every CMSIS-RTOS.
1066:Middlewares/Third_Party/FreeRTOS/Source/CMSIS_RTOS/cmsis_os.c **** */
1067:Middlewares/Third_Party/FreeRTOS/Source/CMSIS_RTOS/cmsis_os.c **** osStatus osMessagePut (osMessageQId queue_id, uint32_t info, uint32_t millisec)
1068:Middlewares/Third_Party/FreeRTOS/Source/CMSIS_RTOS/cmsis_os.c **** {
 2424              		.loc 1 1068 1 is_stmt 1 view -0
 2425              		.cfi_startproc
 2426              		@ args = 0, pretend = 0, frame = 16
 2427              		@ frame_needed = 0, uses_anonymous_args = 0
 2428              		.loc 1 1068 1 is_stmt 0 view .LVU598
 2429 0000 30B5     		push	{r4, r5, lr}
 2430              	.LCFI64:
 2431              		.cfi_def_cfa_offset 12
 2432              		.cfi_offset 4, -12
 2433              		.cfi_offset 5, -8
 2434              		.cfi_offset 14, -4
 2435 0002 85B0     		sub	sp, sp, #20
 2436              	.LCFI65:
 2437              		.cfi_def_cfa_offset 32
 2438 0004 0446     		mov	r4, r0
 2439 0006 0191     		str	r1, [sp, #4]
1069:Middlewares/Third_Party/FreeRTOS/Source/CMSIS_RTOS/cmsis_os.c ****   portBASE_TYPE taskWoken = pdFALSE;
 2440              		.loc 1 1069 3 is_stmt 1 view .LVU599
 2441              		.loc 1 1069 17 is_stmt 0 view .LVU600
 2442 0008 0023     		movs	r3, #0
 2443 000a 0393     		str	r3, [sp, #12]
1070:Middlewares/Third_Party/FreeRTOS/Source/CMSIS_RTOS/cmsis_os.c ****   TickType_t ticks;
 2444              		.loc 1 1070 3 is_stmt 1 view .LVU601
1071:Middlewares/Third_Party/FreeRTOS/Source/CMSIS_RTOS/cmsis_os.c ****   
1072:Middlewares/Third_Party/FreeRTOS/Source/CMSIS_RTOS/cmsis_os.c ****   ticks = millisec / portTICK_PERIOD_MS;
 2445              		.loc 1 1072 3 view .LVU602
 2446              	.LVL207:
1073:Middlewares/Third_Party/FreeRTOS/Source/CMSIS_RTOS/cmsis_os.c ****   if (ticks == 0) {
 2447              		.loc 1 1073 3 view .LVU603
 2448              		.loc 1 1073 6 is_stmt 0 view .LVU604
 2449 000c 1546     		mov	r5, r2
 2450 000e 02B9     		cbnz	r2, .L181
1074:Middlewares/Third_Party/FreeRTOS/Source/CMSIS_RTOS/cmsis_os.c ****     ticks = 1;
 2451              		.loc 1 1074 11 view .LVU605
 2452 0010 0125     		movs	r5, #1
ARM GAS  C:\Users\Lenovo\AppData\Local\Temp\cci3TShy.s 			page 73


 2453              	.L181:
 2454              	.LVL208:
1075:Middlewares/Third_Party/FreeRTOS/Source/CMSIS_RTOS/cmsis_os.c ****   }
1076:Middlewares/Third_Party/FreeRTOS/Source/CMSIS_RTOS/cmsis_os.c ****   
1077:Middlewares/Third_Party/FreeRTOS/Source/CMSIS_RTOS/cmsis_os.c ****   if (inHandlerMode()) {
 2455              		.loc 1 1077 3 is_stmt 1 view .LVU606
 2456              		.loc 1 1077 7 is_stmt 0 view .LVU607
 2457 0012 FFF7FEFF 		bl	inHandlerMode
 2458              	.LVL209:
 2459              		.loc 1 1077 6 view .LVU608
 2460 0016 A8B1     		cbz	r0, .L182
1078:Middlewares/Third_Party/FreeRTOS/Source/CMSIS_RTOS/cmsis_os.c ****     if (xQueueSendFromISR(queue_id, &info, &taskWoken) != pdTRUE) {
 2461              		.loc 1 1078 5 is_stmt 1 view .LVU609
 2462              		.loc 1 1078 9 is_stmt 0 view .LVU610
 2463 0018 0023     		movs	r3, #0
 2464 001a 03AA     		add	r2, sp, #12
 2465 001c 01A9     		add	r1, sp, #4
 2466 001e 2046     		mov	r0, r4
 2467 0020 FFF7FEFF 		bl	xQueueGenericSendFromISR
 2468              	.LVL210:
 2469              		.loc 1 1078 8 view .LVU611
 2470 0024 0128     		cmp	r0, #1
 2471 0026 18D1     		bne	.L185
1079:Middlewares/Third_Party/FreeRTOS/Source/CMSIS_RTOS/cmsis_os.c ****       return osErrorOS;
1080:Middlewares/Third_Party/FreeRTOS/Source/CMSIS_RTOS/cmsis_os.c ****     }
1081:Middlewares/Third_Party/FreeRTOS/Source/CMSIS_RTOS/cmsis_os.c ****     portEND_SWITCHING_ISR(taskWoken);
 2472              		.loc 1 1081 5 is_stmt 1 view .LVU612
 2473 0028 039B     		ldr	r3, [sp, #12]
 2474 002a C3B1     		cbz	r3, .L186
 2475              		.loc 1 1081 5 discriminator 1 view .LVU613
 2476 002c 4FF0E023 		mov	r3, #-536813568
 2477 0030 4FF08052 		mov	r2, #268435456
 2478 0034 C3F8042D 		str	r2, [r3, #3332]
 2479              		.loc 1 1081 5 discriminator 1 view .LVU614
 2480              		.syntax unified
 2481              	@ 1081 "Middlewares/Third_Party/FreeRTOS/Source/CMSIS_RTOS/cmsis_os.c" 1
 2482 0038 BFF34F8F 		dsb
 2483              	@ 0 "" 2
 2484              		.loc 1 1081 5 discriminator 1 view .LVU615
 2485              	@ 1081 "Middlewares/Third_Party/FreeRTOS/Source/CMSIS_RTOS/cmsis_os.c" 1
 2486 003c BFF36F8F 		isb
 2487              	@ 0 "" 2
1082:Middlewares/Third_Party/FreeRTOS/Source/CMSIS_RTOS/cmsis_os.c ****   }
1083:Middlewares/Third_Party/FreeRTOS/Source/CMSIS_RTOS/cmsis_os.c ****   else {
1084:Middlewares/Third_Party/FreeRTOS/Source/CMSIS_RTOS/cmsis_os.c ****     if (xQueueSend(queue_id, &info, ticks) != pdTRUE) {
1085:Middlewares/Third_Party/FreeRTOS/Source/CMSIS_RTOS/cmsis_os.c ****       return osErrorOS;
1086:Middlewares/Third_Party/FreeRTOS/Source/CMSIS_RTOS/cmsis_os.c ****     }
1087:Middlewares/Third_Party/FreeRTOS/Source/CMSIS_RTOS/cmsis_os.c ****   }
1088:Middlewares/Third_Party/FreeRTOS/Source/CMSIS_RTOS/cmsis_os.c ****   
1089:Middlewares/Third_Party/FreeRTOS/Source/CMSIS_RTOS/cmsis_os.c ****   return osOK;
 2488              		.loc 1 1089 10 is_stmt 0 discriminator 1 view .LVU616
 2489              		.thumb
 2490              		.syntax unified
 2491 0040 0020     		movs	r0, #0
 2492 0042 08E0     		b	.L180
 2493              	.L182:
1084:Middlewares/Third_Party/FreeRTOS/Source/CMSIS_RTOS/cmsis_os.c ****       return osErrorOS;
ARM GAS  C:\Users\Lenovo\AppData\Local\Temp\cci3TShy.s 			page 74


 2494              		.loc 1 1084 5 is_stmt 1 view .LVU617
1084:Middlewares/Third_Party/FreeRTOS/Source/CMSIS_RTOS/cmsis_os.c ****       return osErrorOS;
 2495              		.loc 1 1084 9 is_stmt 0 view .LVU618
 2496 0044 0023     		movs	r3, #0
 2497 0046 2A46     		mov	r2, r5
 2498 0048 01A9     		add	r1, sp, #4
 2499 004a 2046     		mov	r0, r4
 2500 004c FFF7FEFF 		bl	xQueueGenericSend
 2501              	.LVL211:
1084:Middlewares/Third_Party/FreeRTOS/Source/CMSIS_RTOS/cmsis_os.c ****       return osErrorOS;
 2502              		.loc 1 1084 8 view .LVU619
 2503 0050 0128     		cmp	r0, #1
 2504 0052 06D1     		bne	.L187
 2505              		.loc 1 1089 10 view .LVU620
 2506 0054 0020     		movs	r0, #0
 2507              	.L180:
1090:Middlewares/Third_Party/FreeRTOS/Source/CMSIS_RTOS/cmsis_os.c **** }
 2508              		.loc 1 1090 1 view .LVU621
 2509 0056 05B0     		add	sp, sp, #20
 2510              	.LCFI66:
 2511              		.cfi_remember_state
 2512              		.cfi_def_cfa_offset 12
 2513              		@ sp needed
 2514 0058 30BD     		pop	{r4, r5, pc}
 2515              	.LVL212:
 2516              	.L185:
 2517              	.LCFI67:
 2518              		.cfi_restore_state
1079:Middlewares/Third_Party/FreeRTOS/Source/CMSIS_RTOS/cmsis_os.c ****     }
 2519              		.loc 1 1079 14 view .LVU622
 2520 005a FF20     		movs	r0, #255
 2521 005c FBE7     		b	.L180
 2522              	.L186:
1089:Middlewares/Third_Party/FreeRTOS/Source/CMSIS_RTOS/cmsis_os.c **** }
 2523              		.loc 1 1089 10 view .LVU623
 2524 005e 0020     		movs	r0, #0
 2525 0060 F9E7     		b	.L180
 2526              	.L187:
1085:Middlewares/Third_Party/FreeRTOS/Source/CMSIS_RTOS/cmsis_os.c ****     }
 2527              		.loc 1 1085 14 view .LVU624
 2528 0062 FF20     		movs	r0, #255
 2529 0064 F7E7     		b	.L180
 2530              		.cfi_endproc
 2531              	.LFE141:
 2533              		.section	.text.osMessageGet,"ax",%progbits
 2534              		.align	1
 2535              		.global	osMessageGet
 2536              		.syntax unified
 2537              		.thumb
 2538              		.thumb_func
 2540              	osMessageGet:
 2541              	.LVL213:
 2542              	.LFB142:
1091:Middlewares/Third_Party/FreeRTOS/Source/CMSIS_RTOS/cmsis_os.c **** 
1092:Middlewares/Third_Party/FreeRTOS/Source/CMSIS_RTOS/cmsis_os.c **** /**
1093:Middlewares/Third_Party/FreeRTOS/Source/CMSIS_RTOS/cmsis_os.c **** * @brief Get a Message or Wait for a Message from a Queue.
1094:Middlewares/Third_Party/FreeRTOS/Source/CMSIS_RTOS/cmsis_os.c **** * @param  queue_id  message queue ID obtained with \ref osMessageCreate.
ARM GAS  C:\Users\Lenovo\AppData\Local\Temp\cci3TShy.s 			page 75


1095:Middlewares/Third_Party/FreeRTOS/Source/CMSIS_RTOS/cmsis_os.c **** * @param  millisec  timeout value or 0 in case of no time-out.
1096:Middlewares/Third_Party/FreeRTOS/Source/CMSIS_RTOS/cmsis_os.c **** * @retval event information that includes status code.
1097:Middlewares/Third_Party/FreeRTOS/Source/CMSIS_RTOS/cmsis_os.c **** * @note   MUST REMAIN UNCHANGED: \b osMessageGet shall be consistent in every CMSIS-RTOS.
1098:Middlewares/Third_Party/FreeRTOS/Source/CMSIS_RTOS/cmsis_os.c **** */
1099:Middlewares/Third_Party/FreeRTOS/Source/CMSIS_RTOS/cmsis_os.c **** osEvent osMessageGet (osMessageQId queue_id, uint32_t millisec)
1100:Middlewares/Third_Party/FreeRTOS/Source/CMSIS_RTOS/cmsis_os.c **** {
 2543              		.loc 1 1100 1 is_stmt 1 view -0
 2544              		.cfi_startproc
 2545              		@ args = 0, pretend = 0, frame = 16
 2546              		@ frame_needed = 0, uses_anonymous_args = 0
 2547              		.loc 1 1100 1 is_stmt 0 view .LVU626
 2548 0000 70B5     		push	{r4, r5, r6, lr}
 2549              	.LCFI68:
 2550              		.cfi_def_cfa_offset 16
 2551              		.cfi_offset 4, -16
 2552              		.cfi_offset 5, -12
 2553              		.cfi_offset 6, -8
 2554              		.cfi_offset 14, -4
 2555 0002 84B0     		sub	sp, sp, #16
 2556              	.LCFI69:
 2557              		.cfi_def_cfa_offset 32
 2558 0004 0446     		mov	r4, r0
1101:Middlewares/Third_Party/FreeRTOS/Source/CMSIS_RTOS/cmsis_os.c ****   portBASE_TYPE taskWoken;
 2559              		.loc 1 1101 3 is_stmt 1 view .LVU627
1102:Middlewares/Third_Party/FreeRTOS/Source/CMSIS_RTOS/cmsis_os.c ****   TickType_t ticks;
 2560              		.loc 1 1102 3 view .LVU628
1103:Middlewares/Third_Party/FreeRTOS/Source/CMSIS_RTOS/cmsis_os.c ****   osEvent event;
 2561              		.loc 1 1103 3 view .LVU629
1104:Middlewares/Third_Party/FreeRTOS/Source/CMSIS_RTOS/cmsis_os.c ****   
1105:Middlewares/Third_Party/FreeRTOS/Source/CMSIS_RTOS/cmsis_os.c ****   event.def.message_id = queue_id;
 2562              		.loc 1 1105 3 view .LVU630
 2563              		.loc 1 1105 24 is_stmt 0 view .LVU631
 2564 0006 0291     		str	r1, [sp, #8]
1106:Middlewares/Third_Party/FreeRTOS/Source/CMSIS_RTOS/cmsis_os.c ****   event.value.v = 0;
 2565              		.loc 1 1106 3 is_stmt 1 view .LVU632
 2566              		.loc 1 1106 17 is_stmt 0 view .LVU633
 2567 0008 0023     		movs	r3, #0
 2568 000a 0193     		str	r3, [sp, #4]
1107:Middlewares/Third_Party/FreeRTOS/Source/CMSIS_RTOS/cmsis_os.c ****   
1108:Middlewares/Third_Party/FreeRTOS/Source/CMSIS_RTOS/cmsis_os.c ****   if (queue_id == NULL) {
 2569              		.loc 1 1108 3 is_stmt 1 view .LVU634
 2570              		.loc 1 1108 6 is_stmt 0 view .LVU635
 2571 000c E1B1     		cbz	r1, .L200
 2572 000e 0D46     		mov	r5, r1
 2573 0010 1646     		mov	r6, r2
1109:Middlewares/Third_Party/FreeRTOS/Source/CMSIS_RTOS/cmsis_os.c ****     event.status = osErrorParameter;
1110:Middlewares/Third_Party/FreeRTOS/Source/CMSIS_RTOS/cmsis_os.c ****     return event;
1111:Middlewares/Third_Party/FreeRTOS/Source/CMSIS_RTOS/cmsis_os.c ****   }
1112:Middlewares/Third_Party/FreeRTOS/Source/CMSIS_RTOS/cmsis_os.c ****   
1113:Middlewares/Third_Party/FreeRTOS/Source/CMSIS_RTOS/cmsis_os.c ****   taskWoken = pdFALSE;
 2574              		.loc 1 1113 3 is_stmt 1 view .LVU636
 2575              		.loc 1 1113 13 is_stmt 0 view .LVU637
 2576 0012 0023     		movs	r3, #0
 2577 0014 0393     		str	r3, [sp, #12]
1114:Middlewares/Third_Party/FreeRTOS/Source/CMSIS_RTOS/cmsis_os.c ****   
1115:Middlewares/Third_Party/FreeRTOS/Source/CMSIS_RTOS/cmsis_os.c ****   ticks = 0;
 2578              		.loc 1 1115 3 is_stmt 1 view .LVU638
ARM GAS  C:\Users\Lenovo\AppData\Local\Temp\cci3TShy.s 			page 76


 2579              	.LVL214:
1116:Middlewares/Third_Party/FreeRTOS/Source/CMSIS_RTOS/cmsis_os.c ****   if (millisec == osWaitForever) {
 2580              		.loc 1 1116 3 view .LVU639
1117:Middlewares/Third_Party/FreeRTOS/Source/CMSIS_RTOS/cmsis_os.c ****     ticks = portMAX_DELAY;
1118:Middlewares/Third_Party/FreeRTOS/Source/CMSIS_RTOS/cmsis_os.c ****   }
1119:Middlewares/Third_Party/FreeRTOS/Source/CMSIS_RTOS/cmsis_os.c ****   else if (millisec != 0) {
1120:Middlewares/Third_Party/FreeRTOS/Source/CMSIS_RTOS/cmsis_os.c ****     ticks = millisec / portTICK_PERIOD_MS;
1121:Middlewares/Third_Party/FreeRTOS/Source/CMSIS_RTOS/cmsis_os.c ****     if (ticks == 0) {
1122:Middlewares/Third_Party/FreeRTOS/Source/CMSIS_RTOS/cmsis_os.c ****       ticks = 1;
1123:Middlewares/Third_Party/FreeRTOS/Source/CMSIS_RTOS/cmsis_os.c ****     }
1124:Middlewares/Third_Party/FreeRTOS/Source/CMSIS_RTOS/cmsis_os.c ****   }
1125:Middlewares/Third_Party/FreeRTOS/Source/CMSIS_RTOS/cmsis_os.c ****   
1126:Middlewares/Third_Party/FreeRTOS/Source/CMSIS_RTOS/cmsis_os.c ****   if (inHandlerMode()) {
 2581              		.loc 1 1126 3 view .LVU640
 2582              		.loc 1 1126 7 is_stmt 0 view .LVU641
 2583 0016 FFF7FEFF 		bl	inHandlerMode
 2584              	.LVL215:
 2585              		.loc 1 1126 6 view .LVU642
 2586 001a 00B3     		cbz	r0, .L192
1127:Middlewares/Third_Party/FreeRTOS/Source/CMSIS_RTOS/cmsis_os.c ****     if (xQueueReceiveFromISR(queue_id, &event.value.v, &taskWoken) == pdTRUE) {
 2587              		.loc 1 1127 5 is_stmt 1 view .LVU643
 2588              		.loc 1 1127 9 is_stmt 0 view .LVU644
 2589 001c 03AA     		add	r2, sp, #12
 2590 001e 01A9     		add	r1, sp, #4
 2591 0020 2846     		mov	r0, r5
 2592 0022 FFF7FEFF 		bl	xQueueReceiveFromISR
 2593              	.LVL216:
 2594              		.loc 1 1127 8 view .LVU645
 2595 0026 0128     		cmp	r0, #1
 2596 0028 16D0     		beq	.L201
1128:Middlewares/Third_Party/FreeRTOS/Source/CMSIS_RTOS/cmsis_os.c ****       /* We have mail */
1129:Middlewares/Third_Party/FreeRTOS/Source/CMSIS_RTOS/cmsis_os.c ****       event.status = osEventMessage;
1130:Middlewares/Third_Party/FreeRTOS/Source/CMSIS_RTOS/cmsis_os.c ****     }
1131:Middlewares/Third_Party/FreeRTOS/Source/CMSIS_RTOS/cmsis_os.c ****     else {
1132:Middlewares/Third_Party/FreeRTOS/Source/CMSIS_RTOS/cmsis_os.c ****       event.status = osOK;
 2597              		.loc 1 1132 7 is_stmt 1 view .LVU646
 2598              		.loc 1 1132 20 is_stmt 0 view .LVU647
 2599 002a 0023     		movs	r3, #0
 2600 002c 0093     		str	r3, [sp]
 2601              	.L194:
1133:Middlewares/Third_Party/FreeRTOS/Source/CMSIS_RTOS/cmsis_os.c ****     }
1134:Middlewares/Third_Party/FreeRTOS/Source/CMSIS_RTOS/cmsis_os.c ****     portEND_SWITCHING_ISR(taskWoken);
 2602              		.loc 1 1134 5 is_stmt 1 view .LVU648
 2603 002e 039B     		ldr	r3, [sp, #12]
 2604 0030 FBB1     		cbz	r3, .L195
 2605              		.loc 1 1134 5 discriminator 1 view .LVU649
 2606 0032 4FF0E023 		mov	r3, #-536813568
 2607 0036 4FF08052 		mov	r2, #268435456
 2608 003a C3F8042D 		str	r2, [r3, #3332]
 2609              		.loc 1 1134 5 discriminator 1 view .LVU650
 2610              		.syntax unified
 2611              	@ 1134 "Middlewares/Third_Party/FreeRTOS/Source/CMSIS_RTOS/cmsis_os.c" 1
 2612 003e BFF34F8F 		dsb
 2613              	@ 0 "" 2
 2614              		.loc 1 1134 5 discriminator 1 view .LVU651
 2615              	@ 1134 "Middlewares/Third_Party/FreeRTOS/Source/CMSIS_RTOS/cmsis_os.c" 1
 2616 0042 BFF36F8F 		isb
ARM GAS  C:\Users\Lenovo\AppData\Local\Temp\cci3TShy.s 			page 77


 2617              	@ 0 "" 2
 2618              		.thumb
 2619              		.syntax unified
 2620 0046 14E0     		b	.L195
 2621              	.LVL217:
 2622              	.L200:
1109:Middlewares/Third_Party/FreeRTOS/Source/CMSIS_RTOS/cmsis_os.c ****     return event;
 2623              		.loc 1 1109 5 view .LVU652
1109:Middlewares/Third_Party/FreeRTOS/Source/CMSIS_RTOS/cmsis_os.c ****     return event;
 2624              		.loc 1 1109 18 is_stmt 0 view .LVU653
 2625 0048 8023     		movs	r3, #128
 2626 004a 0093     		str	r3, [sp]
1110:Middlewares/Third_Party/FreeRTOS/Source/CMSIS_RTOS/cmsis_os.c ****   }
 2627              		.loc 1 1110 5 is_stmt 1 view .LVU654
1110:Middlewares/Third_Party/FreeRTOS/Source/CMSIS_RTOS/cmsis_os.c ****   }
 2628              		.loc 1 1110 12 is_stmt 0 view .LVU655
 2629 004c 6B46     		mov	r3, sp
 2630 004e 93E80700 		ldm	r3, {r0, r1, r2}
 2631              	.LVL218:
1110:Middlewares/Third_Party/FreeRTOS/Source/CMSIS_RTOS/cmsis_os.c ****   }
 2632              		.loc 1 1110 12 view .LVU656
 2633 0052 84E80700 		stm	r4, {r0, r1, r2}
 2634 0056 11E0     		b	.L189
 2635              	.LVL219:
 2636              	.L201:
1129:Middlewares/Third_Party/FreeRTOS/Source/CMSIS_RTOS/cmsis_os.c ****     }
 2637              		.loc 1 1129 7 is_stmt 1 view .LVU657
1129:Middlewares/Third_Party/FreeRTOS/Source/CMSIS_RTOS/cmsis_os.c ****     }
 2638              		.loc 1 1129 20 is_stmt 0 view .LVU658
 2639 0058 1023     		movs	r3, #16
 2640 005a 0093     		str	r3, [sp]
 2641 005c E7E7     		b	.L194
 2642              	.L192:
1135:Middlewares/Third_Party/FreeRTOS/Source/CMSIS_RTOS/cmsis_os.c ****   }
1136:Middlewares/Third_Party/FreeRTOS/Source/CMSIS_RTOS/cmsis_os.c ****   else {
1137:Middlewares/Third_Party/FreeRTOS/Source/CMSIS_RTOS/cmsis_os.c ****     if (xQueueReceive(queue_id, &event.value.v, ticks) == pdTRUE) {
 2643              		.loc 1 1137 5 is_stmt 1 view .LVU659
 2644              		.loc 1 1137 9 is_stmt 0 view .LVU660
 2645 005e 3246     		mov	r2, r6
 2646 0060 01A9     		add	r1, sp, #4
 2647 0062 2846     		mov	r0, r5
 2648 0064 FFF7FEFF 		bl	xQueueReceive
 2649              	.LVL220:
 2650              		.loc 1 1137 8 view .LVU661
 2651 0068 0128     		cmp	r0, #1
 2652 006a 0AD0     		beq	.L202
1138:Middlewares/Third_Party/FreeRTOS/Source/CMSIS_RTOS/cmsis_os.c ****       /* We have mail */
1139:Middlewares/Third_Party/FreeRTOS/Source/CMSIS_RTOS/cmsis_os.c ****       event.status = osEventMessage;
1140:Middlewares/Third_Party/FreeRTOS/Source/CMSIS_RTOS/cmsis_os.c ****     }
1141:Middlewares/Third_Party/FreeRTOS/Source/CMSIS_RTOS/cmsis_os.c ****     else {
1142:Middlewares/Third_Party/FreeRTOS/Source/CMSIS_RTOS/cmsis_os.c ****       event.status = (ticks == 0) ? osOK : osEventTimeout;
 2653              		.loc 1 1142 7 is_stmt 1 view .LVU662
 2654              		.loc 1 1142 42 is_stmt 0 view .LVU663
 2655 006c 06B1     		cbz	r6, .L197
 2656 006e 4026     		movs	r6, #64
 2657              	.LVL221:
 2658              	.L197:
ARM GAS  C:\Users\Lenovo\AppData\Local\Temp\cci3TShy.s 			page 78


 2659              		.loc 1 1142 20 discriminator 4 view .LVU664
 2660 0070 0096     		str	r6, [sp]
 2661              	.L195:
1143:Middlewares/Third_Party/FreeRTOS/Source/CMSIS_RTOS/cmsis_os.c ****     }
1144:Middlewares/Third_Party/FreeRTOS/Source/CMSIS_RTOS/cmsis_os.c ****   }
1145:Middlewares/Third_Party/FreeRTOS/Source/CMSIS_RTOS/cmsis_os.c ****   
1146:Middlewares/Third_Party/FreeRTOS/Source/CMSIS_RTOS/cmsis_os.c ****   return event;
 2662              		.loc 1 1146 3 is_stmt 1 view .LVU665
 2663              		.loc 1 1146 10 is_stmt 0 view .LVU666
 2664 0072 6B46     		mov	r3, sp
 2665 0074 93E80700 		ldm	r3, {r0, r1, r2}
 2666 0078 84E80700 		stm	r4, {r0, r1, r2}
 2667              	.LVL222:
 2668              	.L189:
1147:Middlewares/Third_Party/FreeRTOS/Source/CMSIS_RTOS/cmsis_os.c **** }
 2669              		.loc 1 1147 1 view .LVU667
 2670 007c 2046     		mov	r0, r4
 2671 007e 04B0     		add	sp, sp, #16
 2672              	.LCFI70:
 2673              		.cfi_remember_state
 2674              		.cfi_def_cfa_offset 16
 2675              		@ sp needed
 2676 0080 70BD     		pop	{r4, r5, r6, pc}
 2677              	.LVL223:
 2678              	.L202:
 2679              	.LCFI71:
 2680              		.cfi_restore_state
1139:Middlewares/Third_Party/FreeRTOS/Source/CMSIS_RTOS/cmsis_os.c ****     }
 2681              		.loc 1 1139 7 is_stmt 1 view .LVU668
1139:Middlewares/Third_Party/FreeRTOS/Source/CMSIS_RTOS/cmsis_os.c ****     }
 2682              		.loc 1 1139 20 is_stmt 0 view .LVU669
 2683 0082 1023     		movs	r3, #16
 2684 0084 0093     		str	r3, [sp]
 2685 0086 F4E7     		b	.L195
 2686              		.cfi_endproc
 2687              	.LFE142:
 2689              		.section	.text.osMailCreate,"ax",%progbits
 2690              		.align	1
 2691              		.global	osMailCreate
 2692              		.syntax unified
 2693              		.thumb
 2694              		.thumb_func
 2696              	osMailCreate:
 2697              	.LVL224:
 2698              	.LFB143:
1148:Middlewares/Third_Party/FreeRTOS/Source/CMSIS_RTOS/cmsis_os.c **** 
1149:Middlewares/Third_Party/FreeRTOS/Source/CMSIS_RTOS/cmsis_os.c **** #endif     /* Use Message Queues */
1150:Middlewares/Third_Party/FreeRTOS/Source/CMSIS_RTOS/cmsis_os.c **** 
1151:Middlewares/Third_Party/FreeRTOS/Source/CMSIS_RTOS/cmsis_os.c **** /********************   Mail Queue Management Functions  ***********************/
1152:Middlewares/Third_Party/FreeRTOS/Source/CMSIS_RTOS/cmsis_os.c **** #if (defined (osFeature_MailQ)  &&  (osFeature_MailQ != 0))  /* Use Mail Queues */
1153:Middlewares/Third_Party/FreeRTOS/Source/CMSIS_RTOS/cmsis_os.c **** 
1154:Middlewares/Third_Party/FreeRTOS/Source/CMSIS_RTOS/cmsis_os.c **** 
1155:Middlewares/Third_Party/FreeRTOS/Source/CMSIS_RTOS/cmsis_os.c **** typedef struct os_mailQ_cb {
1156:Middlewares/Third_Party/FreeRTOS/Source/CMSIS_RTOS/cmsis_os.c ****   const osMailQDef_t *queue_def;
1157:Middlewares/Third_Party/FreeRTOS/Source/CMSIS_RTOS/cmsis_os.c ****   QueueHandle_t handle;
1158:Middlewares/Third_Party/FreeRTOS/Source/CMSIS_RTOS/cmsis_os.c ****   osPoolId pool;
1159:Middlewares/Third_Party/FreeRTOS/Source/CMSIS_RTOS/cmsis_os.c **** } os_mailQ_cb_t;
ARM GAS  C:\Users\Lenovo\AppData\Local\Temp\cci3TShy.s 			page 79


1160:Middlewares/Third_Party/FreeRTOS/Source/CMSIS_RTOS/cmsis_os.c **** 
1161:Middlewares/Third_Party/FreeRTOS/Source/CMSIS_RTOS/cmsis_os.c **** /**
1162:Middlewares/Third_Party/FreeRTOS/Source/CMSIS_RTOS/cmsis_os.c **** * @brief Create and Initialize mail queue
1163:Middlewares/Third_Party/FreeRTOS/Source/CMSIS_RTOS/cmsis_os.c **** * @param  queue_def     reference to the mail queue definition obtain with \ref osMailQ
1164:Middlewares/Third_Party/FreeRTOS/Source/CMSIS_RTOS/cmsis_os.c **** * @param   thread_id     thread ID (obtained by \ref osThreadCreate or \ref osThreadGetId) or NULL.
1165:Middlewares/Third_Party/FreeRTOS/Source/CMSIS_RTOS/cmsis_os.c **** * @retval mail queue ID for reference by other functions or NULL in case of error.
1166:Middlewares/Third_Party/FreeRTOS/Source/CMSIS_RTOS/cmsis_os.c **** * @note   MUST REMAIN UNCHANGED: \b osMailCreate shall be consistent in every CMSIS-RTOS.
1167:Middlewares/Third_Party/FreeRTOS/Source/CMSIS_RTOS/cmsis_os.c **** */
1168:Middlewares/Third_Party/FreeRTOS/Source/CMSIS_RTOS/cmsis_os.c **** osMailQId osMailCreate (const osMailQDef_t *queue_def, osThreadId thread_id)
1169:Middlewares/Third_Party/FreeRTOS/Source/CMSIS_RTOS/cmsis_os.c **** {
 2699              		.loc 1 1169 1 is_stmt 1 view -0
 2700              		.cfi_startproc
 2701              		@ args = 0, pretend = 0, frame = 16
 2702              		@ frame_needed = 0, uses_anonymous_args = 0
 2703              		.loc 1 1169 1 is_stmt 0 view .LVU671
 2704 0000 70B5     		push	{r4, r5, r6, lr}
 2705              	.LCFI72:
 2706              		.cfi_def_cfa_offset 16
 2707              		.cfi_offset 4, -16
 2708              		.cfi_offset 5, -12
 2709              		.cfi_offset 6, -8
 2710              		.cfi_offset 14, -4
 2711 0002 84B0     		sub	sp, sp, #16
 2712              	.LCFI73:
 2713              		.cfi_def_cfa_offset 32
 2714 0004 0446     		mov	r4, r0
1170:Middlewares/Third_Party/FreeRTOS/Source/CMSIS_RTOS/cmsis_os.c **** #if (configSUPPORT_DYNAMIC_ALLOCATION == 1)
1171:Middlewares/Third_Party/FreeRTOS/Source/CMSIS_RTOS/cmsis_os.c ****   (void) thread_id;
 2715              		.loc 1 1171 3 is_stmt 1 view .LVU672
1172:Middlewares/Third_Party/FreeRTOS/Source/CMSIS_RTOS/cmsis_os.c ****   
1173:Middlewares/Third_Party/FreeRTOS/Source/CMSIS_RTOS/cmsis_os.c ****   osPoolDef_t pool_def = {queue_def->queue_sz, queue_def->item_sz, NULL};
 2716              		.loc 1 1173 3 view .LVU673
 2717              		.loc 1 1173 36 is_stmt 0 view .LVU674
 2718 0006 0368     		ldr	r3, [r0]
 2719              		.loc 1 1173 15 view .LVU675
 2720 0008 0193     		str	r3, [sp, #4]
 2721              		.loc 1 1173 57 view .LVU676
 2722 000a 4368     		ldr	r3, [r0, #4]
 2723              		.loc 1 1173 15 view .LVU677
 2724 000c 0293     		str	r3, [sp, #8]
 2725 000e 0023     		movs	r3, #0
 2726 0010 0393     		str	r3, [sp, #12]
1174:Middlewares/Third_Party/FreeRTOS/Source/CMSIS_RTOS/cmsis_os.c ****   
1175:Middlewares/Third_Party/FreeRTOS/Source/CMSIS_RTOS/cmsis_os.c ****   /* Create a mail queue control block */
1176:Middlewares/Third_Party/FreeRTOS/Source/CMSIS_RTOS/cmsis_os.c **** 
1177:Middlewares/Third_Party/FreeRTOS/Source/CMSIS_RTOS/cmsis_os.c ****   *(queue_def->cb) = pvPortMalloc(sizeof(struct os_mailQ_cb));
 2727              		.loc 1 1177 3 is_stmt 1 view .LVU678
 2728              		.loc 1 1177 14 is_stmt 0 view .LVU679
 2729 0012 8568     		ldr	r5, [r0, #8]
 2730              		.loc 1 1177 22 view .LVU680
 2731 0014 0C20     		movs	r0, #12
 2732              	.LVL225:
 2733              		.loc 1 1177 22 view .LVU681
 2734 0016 FFF7FEFF 		bl	pvPortMalloc
 2735              	.LVL226:
 2736              		.loc 1 1177 20 view .LVU682
 2737 001a 2860     		str	r0, [r5]
ARM GAS  C:\Users\Lenovo\AppData\Local\Temp\cci3TShy.s 			page 80


1178:Middlewares/Third_Party/FreeRTOS/Source/CMSIS_RTOS/cmsis_os.c **** 
1179:Middlewares/Third_Party/FreeRTOS/Source/CMSIS_RTOS/cmsis_os.c ****   if (*(queue_def->cb) == NULL) {
 2738              		.loc 1 1179 3 is_stmt 1 view .LVU683
 2739              		.loc 1 1179 18 is_stmt 0 view .LVU684
 2740 001c A368     		ldr	r3, [r4, #8]
 2741              		.loc 1 1179 7 view .LVU685
 2742 001e 1D68     		ldr	r5, [r3]
 2743              		.loc 1 1179 6 view .LVU686
 2744 0020 A5B1     		cbz	r5, .L203
1180:Middlewares/Third_Party/FreeRTOS/Source/CMSIS_RTOS/cmsis_os.c ****     return NULL;
1181:Middlewares/Third_Party/FreeRTOS/Source/CMSIS_RTOS/cmsis_os.c ****   }
1182:Middlewares/Third_Party/FreeRTOS/Source/CMSIS_RTOS/cmsis_os.c ****   (*(queue_def->cb))->queue_def = queue_def;
 2745              		.loc 1 1182 3 is_stmt 1 view .LVU687
 2746              		.loc 1 1182 33 is_stmt 0 view .LVU688
 2747 0022 2C60     		str	r4, [r5]
1183:Middlewares/Third_Party/FreeRTOS/Source/CMSIS_RTOS/cmsis_os.c ****   
1184:Middlewares/Third_Party/FreeRTOS/Source/CMSIS_RTOS/cmsis_os.c ****   /* Create a queue in FreeRTOS */
1185:Middlewares/Third_Party/FreeRTOS/Source/CMSIS_RTOS/cmsis_os.c ****   (*(queue_def->cb))->handle = xQueueCreate(queue_def->queue_sz, sizeof(void *));
 2748              		.loc 1 1185 3 is_stmt 1 view .LVU689
 2749              		.loc 1 1185 15 is_stmt 0 view .LVU690
 2750 0024 A368     		ldr	r3, [r4, #8]
 2751              		.loc 1 1185 4 view .LVU691
 2752 0026 1D68     		ldr	r5, [r3]
 2753              		.loc 1 1185 32 view .LVU692
 2754 0028 0022     		movs	r2, #0
 2755 002a 0421     		movs	r1, #4
 2756 002c 2068     		ldr	r0, [r4]
 2757 002e FFF7FEFF 		bl	xQueueGenericCreate
 2758              	.LVL227:
 2759              		.loc 1 1185 30 view .LVU693
 2760 0032 6860     		str	r0, [r5, #4]
1186:Middlewares/Third_Party/FreeRTOS/Source/CMSIS_RTOS/cmsis_os.c **** 
1187:Middlewares/Third_Party/FreeRTOS/Source/CMSIS_RTOS/cmsis_os.c **** 
1188:Middlewares/Third_Party/FreeRTOS/Source/CMSIS_RTOS/cmsis_os.c ****   if ((*(queue_def->cb))->handle == NULL) {
 2761              		.loc 1 1188 3 is_stmt 1 view .LVU694
 2762              		.loc 1 1188 19 is_stmt 0 view .LVU695
 2763 0034 A368     		ldr	r3, [r4, #8]
 2764              		.loc 1 1188 8 view .LVU696
 2765 0036 1E68     		ldr	r6, [r3]
 2766              		.loc 1 1188 25 view .LVU697
 2767 0038 7568     		ldr	r5, [r6, #4]
 2768              		.loc 1 1188 6 view .LVU698
 2769 003a 55B1     		cbz	r5, .L207
1189:Middlewares/Third_Party/FreeRTOS/Source/CMSIS_RTOS/cmsis_os.c ****     vPortFree(*(queue_def->cb));
1190:Middlewares/Third_Party/FreeRTOS/Source/CMSIS_RTOS/cmsis_os.c ****     return NULL;
1191:Middlewares/Third_Party/FreeRTOS/Source/CMSIS_RTOS/cmsis_os.c ****   }
1192:Middlewares/Third_Party/FreeRTOS/Source/CMSIS_RTOS/cmsis_os.c ****   
1193:Middlewares/Third_Party/FreeRTOS/Source/CMSIS_RTOS/cmsis_os.c ****   /* Create a mail pool */
1194:Middlewares/Third_Party/FreeRTOS/Source/CMSIS_RTOS/cmsis_os.c ****   (*(queue_def->cb))->pool = osPoolCreate(&pool_def);
 2770              		.loc 1 1194 3 is_stmt 1 view .LVU699
 2771              		.loc 1 1194 30 is_stmt 0 view .LVU700
 2772 003c 01A8     		add	r0, sp, #4
 2773 003e FFF7FEFF 		bl	osPoolCreate
 2774              	.LVL228:
 2775              		.loc 1 1194 28 view .LVU701
 2776 0042 B060     		str	r0, [r6, #8]
1195:Middlewares/Third_Party/FreeRTOS/Source/CMSIS_RTOS/cmsis_os.c ****   if ((*(queue_def->cb))->pool == NULL) {
ARM GAS  C:\Users\Lenovo\AppData\Local\Temp\cci3TShy.s 			page 81


 2777              		.loc 1 1195 3 is_stmt 1 view .LVU702
 2778              		.loc 1 1195 19 is_stmt 0 view .LVU703
 2779 0044 A368     		ldr	r3, [r4, #8]
 2780              		.loc 1 1195 8 view .LVU704
 2781 0046 1D68     		ldr	r5, [r3]
 2782              		.loc 1 1195 25 view .LVU705
 2783 0048 AC68     		ldr	r4, [r5, #8]
 2784              	.LVL229:
 2785              		.loc 1 1195 6 view .LVU706
 2786 004a 34B1     		cbz	r4, .L208
 2787              	.L203:
1196:Middlewares/Third_Party/FreeRTOS/Source/CMSIS_RTOS/cmsis_os.c ****     //TODO: Delete queue. How to do it in FreeRTOS?
1197:Middlewares/Third_Party/FreeRTOS/Source/CMSIS_RTOS/cmsis_os.c ****     vPortFree(*(queue_def->cb));
1198:Middlewares/Third_Party/FreeRTOS/Source/CMSIS_RTOS/cmsis_os.c ****     return NULL;
1199:Middlewares/Third_Party/FreeRTOS/Source/CMSIS_RTOS/cmsis_os.c ****   }
1200:Middlewares/Third_Party/FreeRTOS/Source/CMSIS_RTOS/cmsis_os.c ****   
1201:Middlewares/Third_Party/FreeRTOS/Source/CMSIS_RTOS/cmsis_os.c ****   return *(queue_def->cb);
1202:Middlewares/Third_Party/FreeRTOS/Source/CMSIS_RTOS/cmsis_os.c **** #else
1203:Middlewares/Third_Party/FreeRTOS/Source/CMSIS_RTOS/cmsis_os.c ****   return NULL;
1204:Middlewares/Third_Party/FreeRTOS/Source/CMSIS_RTOS/cmsis_os.c **** #endif
1205:Middlewares/Third_Party/FreeRTOS/Source/CMSIS_RTOS/cmsis_os.c **** }
 2788              		.loc 1 1205 1 view .LVU707
 2789 004c 2846     		mov	r0, r5
 2790 004e 04B0     		add	sp, sp, #16
 2791              	.LCFI74:
 2792              		.cfi_remember_state
 2793              		.cfi_def_cfa_offset 16
 2794              		@ sp needed
 2795 0050 70BD     		pop	{r4, r5, r6, pc}
 2796              	.LVL230:
 2797              	.L207:
 2798              	.LCFI75:
 2799              		.cfi_restore_state
1189:Middlewares/Third_Party/FreeRTOS/Source/CMSIS_RTOS/cmsis_os.c ****     return NULL;
 2800              		.loc 1 1189 5 is_stmt 1 view .LVU708
 2801 0052 3046     		mov	r0, r6
 2802 0054 FFF7FEFF 		bl	vPortFree
 2803              	.LVL231:
1190:Middlewares/Third_Party/FreeRTOS/Source/CMSIS_RTOS/cmsis_os.c ****   }
 2804              		.loc 1 1190 5 view .LVU709
1190:Middlewares/Third_Party/FreeRTOS/Source/CMSIS_RTOS/cmsis_os.c ****   }
 2805              		.loc 1 1190 12 is_stmt 0 view .LVU710
 2806 0058 F8E7     		b	.L203
 2807              	.LVL232:
 2808              	.L208:
1197:Middlewares/Third_Party/FreeRTOS/Source/CMSIS_RTOS/cmsis_os.c ****     return NULL;
 2809              		.loc 1 1197 5 is_stmt 1 view .LVU711
 2810 005a 2846     		mov	r0, r5
 2811 005c FFF7FEFF 		bl	vPortFree
 2812              	.LVL233:
1198:Middlewares/Third_Party/FreeRTOS/Source/CMSIS_RTOS/cmsis_os.c ****   }
 2813              		.loc 1 1198 5 view .LVU712
1198:Middlewares/Third_Party/FreeRTOS/Source/CMSIS_RTOS/cmsis_os.c ****   }
 2814              		.loc 1 1198 12 is_stmt 0 view .LVU713
 2815 0060 2546     		mov	r5, r4
 2816 0062 F3E7     		b	.L203
 2817              		.cfi_endproc
ARM GAS  C:\Users\Lenovo\AppData\Local\Temp\cci3TShy.s 			page 82


 2818              	.LFE143:
 2820              		.section	.text.osMailAlloc,"ax",%progbits
 2821              		.align	1
 2822              		.global	osMailAlloc
 2823              		.syntax unified
 2824              		.thumb
 2825              		.thumb_func
 2827              	osMailAlloc:
 2828              	.LVL234:
 2829              	.LFB144:
1206:Middlewares/Third_Party/FreeRTOS/Source/CMSIS_RTOS/cmsis_os.c **** 
1207:Middlewares/Third_Party/FreeRTOS/Source/CMSIS_RTOS/cmsis_os.c **** /**
1208:Middlewares/Third_Party/FreeRTOS/Source/CMSIS_RTOS/cmsis_os.c **** * @brief Allocate a memory block from a mail
1209:Middlewares/Third_Party/FreeRTOS/Source/CMSIS_RTOS/cmsis_os.c **** * @param  queue_id      mail queue ID obtained with \ref osMailCreate.
1210:Middlewares/Third_Party/FreeRTOS/Source/CMSIS_RTOS/cmsis_os.c **** * @param  millisec      timeout value or 0 in case of no time-out.
1211:Middlewares/Third_Party/FreeRTOS/Source/CMSIS_RTOS/cmsis_os.c **** * @retval pointer to memory block that can be filled with mail or NULL in case error.
1212:Middlewares/Third_Party/FreeRTOS/Source/CMSIS_RTOS/cmsis_os.c **** * @note   MUST REMAIN UNCHANGED: \b osMailAlloc shall be consistent in every CMSIS-RTOS.
1213:Middlewares/Third_Party/FreeRTOS/Source/CMSIS_RTOS/cmsis_os.c **** */
1214:Middlewares/Third_Party/FreeRTOS/Source/CMSIS_RTOS/cmsis_os.c **** void *osMailAlloc (osMailQId queue_id, uint32_t millisec)
1215:Middlewares/Third_Party/FreeRTOS/Source/CMSIS_RTOS/cmsis_os.c **** {
 2830              		.loc 1 1215 1 is_stmt 1 view -0
 2831              		.cfi_startproc
 2832              		@ args = 0, pretend = 0, frame = 0
 2833              		@ frame_needed = 0, uses_anonymous_args = 0
 2834              		.loc 1 1215 1 is_stmt 0 view .LVU715
 2835 0000 08B5     		push	{r3, lr}
 2836              	.LCFI76:
 2837              		.cfi_def_cfa_offset 8
 2838              		.cfi_offset 3, -8
 2839              		.cfi_offset 14, -4
1216:Middlewares/Third_Party/FreeRTOS/Source/CMSIS_RTOS/cmsis_os.c ****   (void) millisec;
 2840              		.loc 1 1216 3 is_stmt 1 view .LVU716
1217:Middlewares/Third_Party/FreeRTOS/Source/CMSIS_RTOS/cmsis_os.c ****   void *p;
 2841              		.loc 1 1217 3 view .LVU717
1218:Middlewares/Third_Party/FreeRTOS/Source/CMSIS_RTOS/cmsis_os.c ****   
1219:Middlewares/Third_Party/FreeRTOS/Source/CMSIS_RTOS/cmsis_os.c ****   
1220:Middlewares/Third_Party/FreeRTOS/Source/CMSIS_RTOS/cmsis_os.c ****   if (queue_id == NULL) {
 2842              		.loc 1 1220 3 view .LVU718
 2843              		.loc 1 1220 6 is_stmt 0 view .LVU719
 2844 0002 10B1     		cbz	r0, .L209
1221:Middlewares/Third_Party/FreeRTOS/Source/CMSIS_RTOS/cmsis_os.c ****     return NULL;
1222:Middlewares/Third_Party/FreeRTOS/Source/CMSIS_RTOS/cmsis_os.c ****   }
1223:Middlewares/Third_Party/FreeRTOS/Source/CMSIS_RTOS/cmsis_os.c ****   
1224:Middlewares/Third_Party/FreeRTOS/Source/CMSIS_RTOS/cmsis_os.c ****   p = osPoolAlloc(queue_id->pool);
 2845              		.loc 1 1224 3 is_stmt 1 view .LVU720
 2846              		.loc 1 1224 7 is_stmt 0 view .LVU721
 2847 0004 8068     		ldr	r0, [r0, #8]
 2848              	.LVL235:
 2849              		.loc 1 1224 7 view .LVU722
 2850 0006 FFF7FEFF 		bl	osPoolAlloc
 2851              	.LVL236:
1225:Middlewares/Third_Party/FreeRTOS/Source/CMSIS_RTOS/cmsis_os.c ****   
1226:Middlewares/Third_Party/FreeRTOS/Source/CMSIS_RTOS/cmsis_os.c ****   return p;
 2852              		.loc 1 1226 3 is_stmt 1 view .LVU723
 2853              	.L209:
1227:Middlewares/Third_Party/FreeRTOS/Source/CMSIS_RTOS/cmsis_os.c **** }
 2854              		.loc 1 1227 1 is_stmt 0 view .LVU724
ARM GAS  C:\Users\Lenovo\AppData\Local\Temp\cci3TShy.s 			page 83


 2855 000a 08BD     		pop	{r3, pc}
 2856              		.cfi_endproc
 2857              	.LFE144:
 2859              		.section	.text.osMailCAlloc,"ax",%progbits
 2860              		.align	1
 2861              		.global	osMailCAlloc
 2862              		.syntax unified
 2863              		.thumb
 2864              		.thumb_func
 2866              	osMailCAlloc:
 2867              	.LVL237:
 2868              	.LFB145:
1228:Middlewares/Third_Party/FreeRTOS/Source/CMSIS_RTOS/cmsis_os.c **** 
1229:Middlewares/Third_Party/FreeRTOS/Source/CMSIS_RTOS/cmsis_os.c **** /**
1230:Middlewares/Third_Party/FreeRTOS/Source/CMSIS_RTOS/cmsis_os.c **** * @brief Allocate a memory block from a mail and set memory block to zero
1231:Middlewares/Third_Party/FreeRTOS/Source/CMSIS_RTOS/cmsis_os.c **** * @param  queue_id      mail queue ID obtained with \ref osMailCreate.
1232:Middlewares/Third_Party/FreeRTOS/Source/CMSIS_RTOS/cmsis_os.c **** * @param  millisec      timeout value or 0 in case of no time-out.
1233:Middlewares/Third_Party/FreeRTOS/Source/CMSIS_RTOS/cmsis_os.c **** * @retval pointer to memory block that can be filled with mail or NULL in case error.
1234:Middlewares/Third_Party/FreeRTOS/Source/CMSIS_RTOS/cmsis_os.c **** * @note   MUST REMAIN UNCHANGED: \b osMailCAlloc shall be consistent in every CMSIS-RTOS.
1235:Middlewares/Third_Party/FreeRTOS/Source/CMSIS_RTOS/cmsis_os.c **** */
1236:Middlewares/Third_Party/FreeRTOS/Source/CMSIS_RTOS/cmsis_os.c **** void *osMailCAlloc (osMailQId queue_id, uint32_t millisec)
1237:Middlewares/Third_Party/FreeRTOS/Source/CMSIS_RTOS/cmsis_os.c **** {
 2869              		.loc 1 1237 1 is_stmt 1 view -0
 2870              		.cfi_startproc
 2871              		@ args = 0, pretend = 0, frame = 0
 2872              		@ frame_needed = 0, uses_anonymous_args = 0
 2873              		.loc 1 1237 1 is_stmt 0 view .LVU726
 2874 0000 10B5     		push	{r4, lr}
 2875              	.LCFI77:
 2876              		.cfi_def_cfa_offset 8
 2877              		.cfi_offset 4, -8
 2878              		.cfi_offset 14, -4
 2879 0002 0446     		mov	r4, r0
1238:Middlewares/Third_Party/FreeRTOS/Source/CMSIS_RTOS/cmsis_os.c ****   uint32_t i;
 2880              		.loc 1 1238 3 is_stmt 1 view .LVU727
1239:Middlewares/Third_Party/FreeRTOS/Source/CMSIS_RTOS/cmsis_os.c ****   void *p = osMailAlloc(queue_id, millisec);
 2881              		.loc 1 1239 3 view .LVU728
 2882              		.loc 1 1239 13 is_stmt 0 view .LVU729
 2883 0004 FFF7FEFF 		bl	osMailAlloc
 2884              	.LVL238:
1240:Middlewares/Third_Party/FreeRTOS/Source/CMSIS_RTOS/cmsis_os.c ****   
1241:Middlewares/Third_Party/FreeRTOS/Source/CMSIS_RTOS/cmsis_os.c ****   if (p) {
 2885              		.loc 1 1241 3 is_stmt 1 view .LVU730
 2886              		.loc 1 1241 6 is_stmt 0 view .LVU731
 2887 0008 0146     		mov	r1, r0
 2888 000a 40B1     		cbz	r0, .L213
1242:Middlewares/Third_Party/FreeRTOS/Source/CMSIS_RTOS/cmsis_os.c ****     for (i = 0; i < queue_id->queue_def->item_sz; i++) {
 2889              		.loc 1 1242 12 view .LVU732
 2890 000c 0023     		movs	r3, #0
 2891 000e 02E0     		b	.L214
 2892              	.LVL239:
 2893              	.L216:
1243:Middlewares/Third_Party/FreeRTOS/Source/CMSIS_RTOS/cmsis_os.c ****       ((uint8_t *)p)[i] = 0;
 2894              		.loc 1 1243 7 is_stmt 1 discriminator 3 view .LVU733
 2895              		.loc 1 1243 25 is_stmt 0 discriminator 3 view .LVU734
 2896 0010 0022     		movs	r2, #0
 2897 0012 CA54     		strb	r2, [r1, r3]
ARM GAS  C:\Users\Lenovo\AppData\Local\Temp\cci3TShy.s 			page 84


1242:Middlewares/Third_Party/FreeRTOS/Source/CMSIS_RTOS/cmsis_os.c ****     for (i = 0; i < queue_id->queue_def->item_sz; i++) {
 2898              		.loc 1 1242 51 is_stmt 1 discriminator 3 view .LVU735
1242:Middlewares/Third_Party/FreeRTOS/Source/CMSIS_RTOS/cmsis_os.c ****     for (i = 0; i < queue_id->queue_def->item_sz; i++) {
 2899              		.loc 1 1242 52 is_stmt 0 discriminator 3 view .LVU736
 2900 0014 0133     		adds	r3, r3, #1
 2901              	.LVL240:
 2902              	.L214:
1242:Middlewares/Third_Party/FreeRTOS/Source/CMSIS_RTOS/cmsis_os.c ****     for (i = 0; i < queue_id->queue_def->item_sz; i++) {
 2903              		.loc 1 1242 17 is_stmt 1 discriminator 1 view .LVU737
1242:Middlewares/Third_Party/FreeRTOS/Source/CMSIS_RTOS/cmsis_os.c ****     for (i = 0; i < queue_id->queue_def->item_sz; i++) {
 2904              		.loc 1 1242 29 is_stmt 0 discriminator 1 view .LVU738
 2905 0016 2268     		ldr	r2, [r4]
1242:Middlewares/Third_Party/FreeRTOS/Source/CMSIS_RTOS/cmsis_os.c ****     for (i = 0; i < queue_id->queue_def->item_sz; i++) {
 2906              		.loc 1 1242 40 discriminator 1 view .LVU739
 2907 0018 5268     		ldr	r2, [r2, #4]
1242:Middlewares/Third_Party/FreeRTOS/Source/CMSIS_RTOS/cmsis_os.c ****     for (i = 0; i < queue_id->queue_def->item_sz; i++) {
 2908              		.loc 1 1242 5 discriminator 1 view .LVU740
 2909 001a 9A42     		cmp	r2, r3
 2910 001c F8D8     		bhi	.L216
 2911              	.LVL241:
 2912              	.L213:
1244:Middlewares/Third_Party/FreeRTOS/Source/CMSIS_RTOS/cmsis_os.c ****     }
1245:Middlewares/Third_Party/FreeRTOS/Source/CMSIS_RTOS/cmsis_os.c ****   }
1246:Middlewares/Third_Party/FreeRTOS/Source/CMSIS_RTOS/cmsis_os.c ****   
1247:Middlewares/Third_Party/FreeRTOS/Source/CMSIS_RTOS/cmsis_os.c ****   return p;
1248:Middlewares/Third_Party/FreeRTOS/Source/CMSIS_RTOS/cmsis_os.c **** }
 2913              		.loc 1 1248 1 view .LVU741
 2914 001e 0846     		mov	r0, r1
 2915              	.LVL242:
 2916              		.loc 1 1248 1 view .LVU742
 2917 0020 10BD     		pop	{r4, pc}
 2918              		.loc 1 1248 1 view .LVU743
 2919              		.cfi_endproc
 2920              	.LFE145:
 2922              		.section	.text.osMailPut,"ax",%progbits
 2923              		.align	1
 2924              		.global	osMailPut
 2925              		.syntax unified
 2926              		.thumb
 2927              		.thumb_func
 2929              	osMailPut:
 2930              	.LVL243:
 2931              	.LFB146:
1249:Middlewares/Third_Party/FreeRTOS/Source/CMSIS_RTOS/cmsis_os.c **** 
1250:Middlewares/Third_Party/FreeRTOS/Source/CMSIS_RTOS/cmsis_os.c **** /**
1251:Middlewares/Third_Party/FreeRTOS/Source/CMSIS_RTOS/cmsis_os.c **** * @brief Put a mail to a queue
1252:Middlewares/Third_Party/FreeRTOS/Source/CMSIS_RTOS/cmsis_os.c **** * @param  queue_id      mail queue ID obtained with \ref osMailCreate.
1253:Middlewares/Third_Party/FreeRTOS/Source/CMSIS_RTOS/cmsis_os.c **** * @param  mail          memory block previously allocated with \ref osMailAlloc or \ref osMailCAllo
1254:Middlewares/Third_Party/FreeRTOS/Source/CMSIS_RTOS/cmsis_os.c **** * @retval status code that indicates the execution status of the function.
1255:Middlewares/Third_Party/FreeRTOS/Source/CMSIS_RTOS/cmsis_os.c **** * @note   MUST REMAIN UNCHANGED: \b osMailPut shall be consistent in every CMSIS-RTOS.
1256:Middlewares/Third_Party/FreeRTOS/Source/CMSIS_RTOS/cmsis_os.c **** */
1257:Middlewares/Third_Party/FreeRTOS/Source/CMSIS_RTOS/cmsis_os.c **** osStatus osMailPut (osMailQId queue_id, void *mail)
1258:Middlewares/Third_Party/FreeRTOS/Source/CMSIS_RTOS/cmsis_os.c **** {
 2932              		.loc 1 1258 1 is_stmt 1 view -0
 2933              		.cfi_startproc
 2934              		@ args = 0, pretend = 0, frame = 16
 2935              		@ frame_needed = 0, uses_anonymous_args = 0
ARM GAS  C:\Users\Lenovo\AppData\Local\Temp\cci3TShy.s 			page 85


 2936              		.loc 1 1258 1 is_stmt 0 view .LVU745
 2937 0000 10B5     		push	{r4, lr}
 2938              	.LCFI78:
 2939              		.cfi_def_cfa_offset 8
 2940              		.cfi_offset 4, -8
 2941              		.cfi_offset 14, -4
 2942 0002 84B0     		sub	sp, sp, #16
 2943              	.LCFI79:
 2944              		.cfi_def_cfa_offset 24
 2945 0004 0191     		str	r1, [sp, #4]
1259:Middlewares/Third_Party/FreeRTOS/Source/CMSIS_RTOS/cmsis_os.c ****   portBASE_TYPE taskWoken;
 2946              		.loc 1 1259 3 is_stmt 1 view .LVU746
1260:Middlewares/Third_Party/FreeRTOS/Source/CMSIS_RTOS/cmsis_os.c ****   
1261:Middlewares/Third_Party/FreeRTOS/Source/CMSIS_RTOS/cmsis_os.c ****   
1262:Middlewares/Third_Party/FreeRTOS/Source/CMSIS_RTOS/cmsis_os.c ****   if (queue_id == NULL) {
 2947              		.loc 1 1262 3 view .LVU747
 2948              		.loc 1 1262 6 is_stmt 0 view .LVU748
 2949 0006 30B3     		cbz	r0, .L222
 2950 0008 0446     		mov	r4, r0
1263:Middlewares/Third_Party/FreeRTOS/Source/CMSIS_RTOS/cmsis_os.c ****     return osErrorParameter;
1264:Middlewares/Third_Party/FreeRTOS/Source/CMSIS_RTOS/cmsis_os.c ****   }
1265:Middlewares/Third_Party/FreeRTOS/Source/CMSIS_RTOS/cmsis_os.c ****   
1266:Middlewares/Third_Party/FreeRTOS/Source/CMSIS_RTOS/cmsis_os.c ****   taskWoken = pdFALSE;
 2951              		.loc 1 1266 3 is_stmt 1 view .LVU749
 2952              		.loc 1 1266 13 is_stmt 0 view .LVU750
 2953 000a 0023     		movs	r3, #0
 2954 000c 0393     		str	r3, [sp, #12]
1267:Middlewares/Third_Party/FreeRTOS/Source/CMSIS_RTOS/cmsis_os.c ****   
1268:Middlewares/Third_Party/FreeRTOS/Source/CMSIS_RTOS/cmsis_os.c ****   if (inHandlerMode()) {
 2955              		.loc 1 1268 3 is_stmt 1 view .LVU751
 2956              		.loc 1 1268 7 is_stmt 0 view .LVU752
 2957 000e FFF7FEFF 		bl	inHandlerMode
 2958              	.LVL244:
 2959              		.loc 1 1268 6 view .LVU753
 2960 0012 A8B1     		cbz	r0, .L221
1269:Middlewares/Third_Party/FreeRTOS/Source/CMSIS_RTOS/cmsis_os.c ****     if (xQueueSendFromISR(queue_id->handle, &mail, &taskWoken) != pdTRUE) {
 2961              		.loc 1 1269 5 is_stmt 1 view .LVU754
 2962              		.loc 1 1269 9 is_stmt 0 view .LVU755
 2963 0014 0023     		movs	r3, #0
 2964 0016 03AA     		add	r2, sp, #12
 2965 0018 01A9     		add	r1, sp, #4
 2966 001a 6068     		ldr	r0, [r4, #4]
 2967 001c FFF7FEFF 		bl	xQueueGenericSendFromISR
 2968              	.LVL245:
 2969              		.loc 1 1269 8 view .LVU756
 2970 0020 0128     		cmp	r0, #1
 2971 0022 1AD1     		bne	.L223
1270:Middlewares/Third_Party/FreeRTOS/Source/CMSIS_RTOS/cmsis_os.c ****       return osErrorOS;
1271:Middlewares/Third_Party/FreeRTOS/Source/CMSIS_RTOS/cmsis_os.c ****     }
1272:Middlewares/Third_Party/FreeRTOS/Source/CMSIS_RTOS/cmsis_os.c ****     portEND_SWITCHING_ISR(taskWoken);
 2972              		.loc 1 1272 5 is_stmt 1 view .LVU757
 2973 0024 039B     		ldr	r3, [sp, #12]
 2974 0026 D3B1     		cbz	r3, .L224
 2975              		.loc 1 1272 5 discriminator 1 view .LVU758
 2976 0028 4FF0E023 		mov	r3, #-536813568
 2977 002c 4FF08052 		mov	r2, #268435456
 2978 0030 C3F8042D 		str	r2, [r3, #3332]
ARM GAS  C:\Users\Lenovo\AppData\Local\Temp\cci3TShy.s 			page 86


 2979              		.loc 1 1272 5 discriminator 1 view .LVU759
 2980              		.syntax unified
 2981              	@ 1272 "Middlewares/Third_Party/FreeRTOS/Source/CMSIS_RTOS/cmsis_os.c" 1
 2982 0034 BFF34F8F 		dsb
 2983              	@ 0 "" 2
 2984              		.loc 1 1272 5 discriminator 1 view .LVU760
 2985              	@ 1272 "Middlewares/Third_Party/FreeRTOS/Source/CMSIS_RTOS/cmsis_os.c" 1
 2986 0038 BFF36F8F 		isb
 2987              	@ 0 "" 2
1273:Middlewares/Third_Party/FreeRTOS/Source/CMSIS_RTOS/cmsis_os.c ****   }
1274:Middlewares/Third_Party/FreeRTOS/Source/CMSIS_RTOS/cmsis_os.c ****   else {
1275:Middlewares/Third_Party/FreeRTOS/Source/CMSIS_RTOS/cmsis_os.c ****     if (xQueueSend(queue_id->handle, &mail, 0) != pdTRUE) { 
1276:Middlewares/Third_Party/FreeRTOS/Source/CMSIS_RTOS/cmsis_os.c ****       return osErrorOS;
1277:Middlewares/Third_Party/FreeRTOS/Source/CMSIS_RTOS/cmsis_os.c ****     }
1278:Middlewares/Third_Party/FreeRTOS/Source/CMSIS_RTOS/cmsis_os.c ****   }
1279:Middlewares/Third_Party/FreeRTOS/Source/CMSIS_RTOS/cmsis_os.c ****   
1280:Middlewares/Third_Party/FreeRTOS/Source/CMSIS_RTOS/cmsis_os.c ****   return osOK;
 2988              		.loc 1 1280 10 is_stmt 0 discriminator 1 view .LVU761
 2989              		.thumb
 2990              		.syntax unified
 2991 003c 0020     		movs	r0, #0
 2992 003e 08E0     		b	.L219
 2993              	.L221:
1275:Middlewares/Third_Party/FreeRTOS/Source/CMSIS_RTOS/cmsis_os.c ****       return osErrorOS;
 2994              		.loc 1 1275 5 is_stmt 1 view .LVU762
1275:Middlewares/Third_Party/FreeRTOS/Source/CMSIS_RTOS/cmsis_os.c ****       return osErrorOS;
 2995              		.loc 1 1275 9 is_stmt 0 view .LVU763
 2996 0040 0023     		movs	r3, #0
 2997 0042 1A46     		mov	r2, r3
 2998 0044 01A9     		add	r1, sp, #4
 2999 0046 6068     		ldr	r0, [r4, #4]
 3000 0048 FFF7FEFF 		bl	xQueueGenericSend
 3001              	.LVL246:
1275:Middlewares/Third_Party/FreeRTOS/Source/CMSIS_RTOS/cmsis_os.c ****       return osErrorOS;
 3002              		.loc 1 1275 8 view .LVU764
 3003 004c 0128     		cmp	r0, #1
 3004 004e 08D1     		bne	.L225
 3005              		.loc 1 1280 10 view .LVU765
 3006 0050 0020     		movs	r0, #0
 3007              	.LVL247:
 3008              	.L219:
1281:Middlewares/Third_Party/FreeRTOS/Source/CMSIS_RTOS/cmsis_os.c **** }
 3009              		.loc 1 1281 1 view .LVU766
 3010 0052 04B0     		add	sp, sp, #16
 3011              	.LCFI80:
 3012              		.cfi_remember_state
 3013              		.cfi_def_cfa_offset 8
 3014              		@ sp needed
 3015 0054 10BD     		pop	{r4, pc}
 3016              	.LVL248:
 3017              	.L222:
 3018              	.LCFI81:
 3019              		.cfi_restore_state
1263:Middlewares/Third_Party/FreeRTOS/Source/CMSIS_RTOS/cmsis_os.c ****   }
 3020              		.loc 1 1263 12 view .LVU767
 3021 0056 8020     		movs	r0, #128
 3022              	.LVL249:
ARM GAS  C:\Users\Lenovo\AppData\Local\Temp\cci3TShy.s 			page 87


1263:Middlewares/Third_Party/FreeRTOS/Source/CMSIS_RTOS/cmsis_os.c ****   }
 3023              		.loc 1 1263 12 view .LVU768
 3024 0058 FBE7     		b	.L219
 3025              	.LVL250:
 3026              	.L223:
1270:Middlewares/Third_Party/FreeRTOS/Source/CMSIS_RTOS/cmsis_os.c ****     }
 3027              		.loc 1 1270 14 view .LVU769
 3028 005a FF20     		movs	r0, #255
 3029 005c F9E7     		b	.L219
 3030              	.L224:
1280:Middlewares/Third_Party/FreeRTOS/Source/CMSIS_RTOS/cmsis_os.c **** }
 3031              		.loc 1 1280 10 view .LVU770
 3032 005e 0020     		movs	r0, #0
 3033 0060 F7E7     		b	.L219
 3034              	.L225:
1276:Middlewares/Third_Party/FreeRTOS/Source/CMSIS_RTOS/cmsis_os.c ****     }
 3035              		.loc 1 1276 14 view .LVU771
 3036 0062 FF20     		movs	r0, #255
 3037 0064 F5E7     		b	.L219
 3038              		.cfi_endproc
 3039              	.LFE146:
 3041              		.section	.text.osMailGet,"ax",%progbits
 3042              		.align	1
 3043              		.global	osMailGet
 3044              		.syntax unified
 3045              		.thumb
 3046              		.thumb_func
 3048              	osMailGet:
 3049              	.LVL251:
 3050              	.LFB147:
1282:Middlewares/Third_Party/FreeRTOS/Source/CMSIS_RTOS/cmsis_os.c **** 
1283:Middlewares/Third_Party/FreeRTOS/Source/CMSIS_RTOS/cmsis_os.c **** /**
1284:Middlewares/Third_Party/FreeRTOS/Source/CMSIS_RTOS/cmsis_os.c **** * @brief Get a mail from a queue
1285:Middlewares/Third_Party/FreeRTOS/Source/CMSIS_RTOS/cmsis_os.c **** * @param  queue_id   mail queue ID obtained with \ref osMailCreate.
1286:Middlewares/Third_Party/FreeRTOS/Source/CMSIS_RTOS/cmsis_os.c **** * @param millisec    timeout value or 0 in case of no time-out
1287:Middlewares/Third_Party/FreeRTOS/Source/CMSIS_RTOS/cmsis_os.c **** * @retval event that contains mail information or error code.
1288:Middlewares/Third_Party/FreeRTOS/Source/CMSIS_RTOS/cmsis_os.c **** * @note   MUST REMAIN UNCHANGED: \b osMailGet shall be consistent in every CMSIS-RTOS.
1289:Middlewares/Third_Party/FreeRTOS/Source/CMSIS_RTOS/cmsis_os.c **** */
1290:Middlewares/Third_Party/FreeRTOS/Source/CMSIS_RTOS/cmsis_os.c **** osEvent osMailGet (osMailQId queue_id, uint32_t millisec)
1291:Middlewares/Third_Party/FreeRTOS/Source/CMSIS_RTOS/cmsis_os.c **** {
 3051              		.loc 1 1291 1 is_stmt 1 view -0
 3052              		.cfi_startproc
 3053              		@ args = 0, pretend = 0, frame = 16
 3054              		@ frame_needed = 0, uses_anonymous_args = 0
 3055              		.loc 1 1291 1 is_stmt 0 view .LVU773
 3056 0000 70B5     		push	{r4, r5, r6, lr}
 3057              	.LCFI82:
 3058              		.cfi_def_cfa_offset 16
 3059              		.cfi_offset 4, -16
 3060              		.cfi_offset 5, -12
 3061              		.cfi_offset 6, -8
 3062              		.cfi_offset 14, -4
 3063 0002 84B0     		sub	sp, sp, #16
 3064              	.LCFI83:
 3065              		.cfi_def_cfa_offset 32
 3066 0004 0446     		mov	r4, r0
1292:Middlewares/Third_Party/FreeRTOS/Source/CMSIS_RTOS/cmsis_os.c ****   portBASE_TYPE taskWoken;
ARM GAS  C:\Users\Lenovo\AppData\Local\Temp\cci3TShy.s 			page 88


 3067              		.loc 1 1292 3 is_stmt 1 view .LVU774
1293:Middlewares/Third_Party/FreeRTOS/Source/CMSIS_RTOS/cmsis_os.c ****   TickType_t ticks;
 3068              		.loc 1 1293 3 view .LVU775
1294:Middlewares/Third_Party/FreeRTOS/Source/CMSIS_RTOS/cmsis_os.c ****   osEvent event;
 3069              		.loc 1 1294 3 view .LVU776
1295:Middlewares/Third_Party/FreeRTOS/Source/CMSIS_RTOS/cmsis_os.c ****   
1296:Middlewares/Third_Party/FreeRTOS/Source/CMSIS_RTOS/cmsis_os.c ****   event.def.mail_id = queue_id;
 3070              		.loc 1 1296 3 view .LVU777
 3071              		.loc 1 1296 21 is_stmt 0 view .LVU778
 3072 0006 0291     		str	r1, [sp, #8]
1297:Middlewares/Third_Party/FreeRTOS/Source/CMSIS_RTOS/cmsis_os.c ****   
1298:Middlewares/Third_Party/FreeRTOS/Source/CMSIS_RTOS/cmsis_os.c ****   if (queue_id == NULL) {
 3073              		.loc 1 1298 3 is_stmt 1 view .LVU779
 3074              		.loc 1 1298 6 is_stmt 0 view .LVU780
 3075 0008 E1B1     		cbz	r1, .L238
 3076 000a 0D46     		mov	r5, r1
 3077 000c 1646     		mov	r6, r2
1299:Middlewares/Third_Party/FreeRTOS/Source/CMSIS_RTOS/cmsis_os.c ****     event.status = osErrorParameter;
1300:Middlewares/Third_Party/FreeRTOS/Source/CMSIS_RTOS/cmsis_os.c ****     return event;
1301:Middlewares/Third_Party/FreeRTOS/Source/CMSIS_RTOS/cmsis_os.c ****   }
1302:Middlewares/Third_Party/FreeRTOS/Source/CMSIS_RTOS/cmsis_os.c ****   
1303:Middlewares/Third_Party/FreeRTOS/Source/CMSIS_RTOS/cmsis_os.c ****   taskWoken = pdFALSE;
 3078              		.loc 1 1303 3 is_stmt 1 view .LVU781
 3079              		.loc 1 1303 13 is_stmt 0 view .LVU782
 3080 000e 0023     		movs	r3, #0
 3081 0010 0393     		str	r3, [sp, #12]
1304:Middlewares/Third_Party/FreeRTOS/Source/CMSIS_RTOS/cmsis_os.c ****   
1305:Middlewares/Third_Party/FreeRTOS/Source/CMSIS_RTOS/cmsis_os.c ****   ticks = 0;
 3082              		.loc 1 1305 3 is_stmt 1 view .LVU783
 3083              	.LVL252:
1306:Middlewares/Third_Party/FreeRTOS/Source/CMSIS_RTOS/cmsis_os.c ****   if (millisec == osWaitForever) {
 3084              		.loc 1 1306 3 view .LVU784
1307:Middlewares/Third_Party/FreeRTOS/Source/CMSIS_RTOS/cmsis_os.c ****     ticks = portMAX_DELAY;
1308:Middlewares/Third_Party/FreeRTOS/Source/CMSIS_RTOS/cmsis_os.c ****   }
1309:Middlewares/Third_Party/FreeRTOS/Source/CMSIS_RTOS/cmsis_os.c ****   else if (millisec != 0) {
1310:Middlewares/Third_Party/FreeRTOS/Source/CMSIS_RTOS/cmsis_os.c ****     ticks = millisec / portTICK_PERIOD_MS;
1311:Middlewares/Third_Party/FreeRTOS/Source/CMSIS_RTOS/cmsis_os.c ****     if (ticks == 0) {
1312:Middlewares/Third_Party/FreeRTOS/Source/CMSIS_RTOS/cmsis_os.c ****       ticks = 1;
1313:Middlewares/Third_Party/FreeRTOS/Source/CMSIS_RTOS/cmsis_os.c ****     }
1314:Middlewares/Third_Party/FreeRTOS/Source/CMSIS_RTOS/cmsis_os.c ****   }
1315:Middlewares/Third_Party/FreeRTOS/Source/CMSIS_RTOS/cmsis_os.c ****   
1316:Middlewares/Third_Party/FreeRTOS/Source/CMSIS_RTOS/cmsis_os.c ****   if (inHandlerMode()) {
 3085              		.loc 1 1316 3 view .LVU785
 3086              		.loc 1 1316 7 is_stmt 0 view .LVU786
 3087 0012 FFF7FEFF 		bl	inHandlerMode
 3088              	.LVL253:
 3089              		.loc 1 1316 6 view .LVU787
 3090 0016 00B3     		cbz	r0, .L230
1317:Middlewares/Third_Party/FreeRTOS/Source/CMSIS_RTOS/cmsis_os.c ****     if (xQueueReceiveFromISR(queue_id->handle, &event.value.p, &taskWoken) == pdTRUE) {
 3091              		.loc 1 1317 5 is_stmt 1 view .LVU788
 3092              		.loc 1 1317 9 is_stmt 0 view .LVU789
 3093 0018 03AA     		add	r2, sp, #12
 3094 001a 01A9     		add	r1, sp, #4
 3095 001c 6868     		ldr	r0, [r5, #4]
 3096 001e FFF7FEFF 		bl	xQueueReceiveFromISR
 3097              	.LVL254:
 3098              		.loc 1 1317 8 view .LVU790
ARM GAS  C:\Users\Lenovo\AppData\Local\Temp\cci3TShy.s 			page 89


 3099 0022 0128     		cmp	r0, #1
 3100 0024 16D0     		beq	.L239
1318:Middlewares/Third_Party/FreeRTOS/Source/CMSIS_RTOS/cmsis_os.c ****       /* We have mail */
1319:Middlewares/Third_Party/FreeRTOS/Source/CMSIS_RTOS/cmsis_os.c ****       event.status = osEventMail;
1320:Middlewares/Third_Party/FreeRTOS/Source/CMSIS_RTOS/cmsis_os.c ****     }
1321:Middlewares/Third_Party/FreeRTOS/Source/CMSIS_RTOS/cmsis_os.c ****     else {
1322:Middlewares/Third_Party/FreeRTOS/Source/CMSIS_RTOS/cmsis_os.c ****       event.status = osOK;
 3101              		.loc 1 1322 7 is_stmt 1 view .LVU791
 3102              		.loc 1 1322 20 is_stmt 0 view .LVU792
 3103 0026 0023     		movs	r3, #0
 3104 0028 0093     		str	r3, [sp]
 3105              	.L232:
1323:Middlewares/Third_Party/FreeRTOS/Source/CMSIS_RTOS/cmsis_os.c ****     }
1324:Middlewares/Third_Party/FreeRTOS/Source/CMSIS_RTOS/cmsis_os.c ****     portEND_SWITCHING_ISR(taskWoken);
 3106              		.loc 1 1324 5 is_stmt 1 view .LVU793
 3107 002a 039B     		ldr	r3, [sp, #12]
 3108 002c FBB1     		cbz	r3, .L233
 3109              		.loc 1 1324 5 discriminator 1 view .LVU794
 3110 002e 4FF0E023 		mov	r3, #-536813568
 3111 0032 4FF08052 		mov	r2, #268435456
 3112 0036 C3F8042D 		str	r2, [r3, #3332]
 3113              		.loc 1 1324 5 discriminator 1 view .LVU795
 3114              		.syntax unified
 3115              	@ 1324 "Middlewares/Third_Party/FreeRTOS/Source/CMSIS_RTOS/cmsis_os.c" 1
 3116 003a BFF34F8F 		dsb
 3117              	@ 0 "" 2
 3118              		.loc 1 1324 5 discriminator 1 view .LVU796
 3119              	@ 1324 "Middlewares/Third_Party/FreeRTOS/Source/CMSIS_RTOS/cmsis_os.c" 1
 3120 003e BFF36F8F 		isb
 3121              	@ 0 "" 2
 3122              		.thumb
 3123              		.syntax unified
 3124 0042 14E0     		b	.L233
 3125              	.LVL255:
 3126              	.L238:
1299:Middlewares/Third_Party/FreeRTOS/Source/CMSIS_RTOS/cmsis_os.c ****     return event;
 3127              		.loc 1 1299 5 view .LVU797
1299:Middlewares/Third_Party/FreeRTOS/Source/CMSIS_RTOS/cmsis_os.c ****     return event;
 3128              		.loc 1 1299 18 is_stmt 0 view .LVU798
 3129 0044 8023     		movs	r3, #128
 3130 0046 0093     		str	r3, [sp]
1300:Middlewares/Third_Party/FreeRTOS/Source/CMSIS_RTOS/cmsis_os.c ****   }
 3131              		.loc 1 1300 5 is_stmt 1 view .LVU799
1300:Middlewares/Third_Party/FreeRTOS/Source/CMSIS_RTOS/cmsis_os.c ****   }
 3132              		.loc 1 1300 12 is_stmt 0 view .LVU800
 3133 0048 6B46     		mov	r3, sp
 3134 004a 93E80700 		ldm	r3, {r0, r1, r2}
 3135              	.LVL256:
1300:Middlewares/Third_Party/FreeRTOS/Source/CMSIS_RTOS/cmsis_os.c ****   }
 3136              		.loc 1 1300 12 view .LVU801
 3137 004e 84E80700 		stm	r4, {r0, r1, r2}
 3138 0052 11E0     		b	.L227
 3139              	.LVL257:
 3140              	.L239:
1319:Middlewares/Third_Party/FreeRTOS/Source/CMSIS_RTOS/cmsis_os.c ****     }
 3141              		.loc 1 1319 7 is_stmt 1 view .LVU802
1319:Middlewares/Third_Party/FreeRTOS/Source/CMSIS_RTOS/cmsis_os.c ****     }
ARM GAS  C:\Users\Lenovo\AppData\Local\Temp\cci3TShy.s 			page 90


 3142              		.loc 1 1319 20 is_stmt 0 view .LVU803
 3143 0054 2023     		movs	r3, #32
 3144 0056 0093     		str	r3, [sp]
 3145 0058 E7E7     		b	.L232
 3146              	.L230:
1325:Middlewares/Third_Party/FreeRTOS/Source/CMSIS_RTOS/cmsis_os.c ****   }
1326:Middlewares/Third_Party/FreeRTOS/Source/CMSIS_RTOS/cmsis_os.c ****   else {
1327:Middlewares/Third_Party/FreeRTOS/Source/CMSIS_RTOS/cmsis_os.c ****     if (xQueueReceive(queue_id->handle, &event.value.p, ticks) == pdTRUE) {
 3147              		.loc 1 1327 5 is_stmt 1 view .LVU804
 3148              		.loc 1 1327 9 is_stmt 0 view .LVU805
 3149 005a 3246     		mov	r2, r6
 3150 005c 01A9     		add	r1, sp, #4
 3151 005e 6868     		ldr	r0, [r5, #4]
 3152 0060 FFF7FEFF 		bl	xQueueReceive
 3153              	.LVL258:
 3154              		.loc 1 1327 8 view .LVU806
 3155 0064 0128     		cmp	r0, #1
 3156 0066 0AD0     		beq	.L240
1328:Middlewares/Third_Party/FreeRTOS/Source/CMSIS_RTOS/cmsis_os.c ****       /* We have mail */
1329:Middlewares/Third_Party/FreeRTOS/Source/CMSIS_RTOS/cmsis_os.c ****       event.status = osEventMail;
1330:Middlewares/Third_Party/FreeRTOS/Source/CMSIS_RTOS/cmsis_os.c ****     }
1331:Middlewares/Third_Party/FreeRTOS/Source/CMSIS_RTOS/cmsis_os.c ****     else {
1332:Middlewares/Third_Party/FreeRTOS/Source/CMSIS_RTOS/cmsis_os.c ****       event.status = (ticks == 0) ? osOK : osEventTimeout;
 3157              		.loc 1 1332 7 is_stmt 1 view .LVU807
 3158              		.loc 1 1332 42 is_stmt 0 view .LVU808
 3159 0068 06B1     		cbz	r6, .L235
 3160 006a 4026     		movs	r6, #64
 3161              	.LVL259:
 3162              	.L235:
 3163              		.loc 1 1332 20 discriminator 4 view .LVU809
 3164 006c 0096     		str	r6, [sp]
 3165              	.L233:
1333:Middlewares/Third_Party/FreeRTOS/Source/CMSIS_RTOS/cmsis_os.c ****     }
1334:Middlewares/Third_Party/FreeRTOS/Source/CMSIS_RTOS/cmsis_os.c ****   }
1335:Middlewares/Third_Party/FreeRTOS/Source/CMSIS_RTOS/cmsis_os.c ****   
1336:Middlewares/Third_Party/FreeRTOS/Source/CMSIS_RTOS/cmsis_os.c ****   return event;
 3166              		.loc 1 1336 3 is_stmt 1 view .LVU810
 3167              		.loc 1 1336 10 is_stmt 0 view .LVU811
 3168 006e 6B46     		mov	r3, sp
 3169 0070 93E80700 		ldm	r3, {r0, r1, r2}
 3170 0074 84E80700 		stm	r4, {r0, r1, r2}
 3171              	.LVL260:
 3172              	.L227:
1337:Middlewares/Third_Party/FreeRTOS/Source/CMSIS_RTOS/cmsis_os.c **** }
 3173              		.loc 1 1337 1 view .LVU812
 3174 0078 2046     		mov	r0, r4
 3175 007a 04B0     		add	sp, sp, #16
 3176              	.LCFI84:
 3177              		.cfi_remember_state
 3178              		.cfi_def_cfa_offset 16
 3179              		@ sp needed
 3180 007c 70BD     		pop	{r4, r5, r6, pc}
 3181              	.LVL261:
 3182              	.L240:
 3183              	.LCFI85:
 3184              		.cfi_restore_state
1329:Middlewares/Third_Party/FreeRTOS/Source/CMSIS_RTOS/cmsis_os.c ****     }
ARM GAS  C:\Users\Lenovo\AppData\Local\Temp\cci3TShy.s 			page 91


 3185              		.loc 1 1329 7 is_stmt 1 view .LVU813
1329:Middlewares/Third_Party/FreeRTOS/Source/CMSIS_RTOS/cmsis_os.c ****     }
 3186              		.loc 1 1329 20 is_stmt 0 view .LVU814
 3187 007e 2023     		movs	r3, #32
 3188 0080 0093     		str	r3, [sp]
 3189 0082 F4E7     		b	.L233
 3190              		.cfi_endproc
 3191              	.LFE147:
 3193              		.section	.text.osMailFree,"ax",%progbits
 3194              		.align	1
 3195              		.global	osMailFree
 3196              		.syntax unified
 3197              		.thumb
 3198              		.thumb_func
 3200              	osMailFree:
 3201              	.LVL262:
 3202              	.LFB148:
1338:Middlewares/Third_Party/FreeRTOS/Source/CMSIS_RTOS/cmsis_os.c **** 
1339:Middlewares/Third_Party/FreeRTOS/Source/CMSIS_RTOS/cmsis_os.c **** /**
1340:Middlewares/Third_Party/FreeRTOS/Source/CMSIS_RTOS/cmsis_os.c **** * @brief Free a memory block from a mail
1341:Middlewares/Third_Party/FreeRTOS/Source/CMSIS_RTOS/cmsis_os.c **** * @param  queue_id mail queue ID obtained with \ref osMailCreate.
1342:Middlewares/Third_Party/FreeRTOS/Source/CMSIS_RTOS/cmsis_os.c **** * @param  mail     pointer to the memory block that was obtained with \ref osMailGet.
1343:Middlewares/Third_Party/FreeRTOS/Source/CMSIS_RTOS/cmsis_os.c **** * @retval status code that indicates the execution status of the function.
1344:Middlewares/Third_Party/FreeRTOS/Source/CMSIS_RTOS/cmsis_os.c **** * @note   MUST REMAIN UNCHANGED: \b osMailFree shall be consistent in every CMSIS-RTOS.
1345:Middlewares/Third_Party/FreeRTOS/Source/CMSIS_RTOS/cmsis_os.c **** */
1346:Middlewares/Third_Party/FreeRTOS/Source/CMSIS_RTOS/cmsis_os.c **** osStatus osMailFree (osMailQId queue_id, void *mail)
1347:Middlewares/Third_Party/FreeRTOS/Source/CMSIS_RTOS/cmsis_os.c **** {
 3203              		.loc 1 1347 1 is_stmt 1 view -0
 3204              		.cfi_startproc
 3205              		@ args = 0, pretend = 0, frame = 0
 3206              		@ frame_needed = 0, uses_anonymous_args = 0
1348:Middlewares/Third_Party/FreeRTOS/Source/CMSIS_RTOS/cmsis_os.c ****   if (queue_id == NULL) {
 3207              		.loc 1 1348 3 view .LVU816
 3208              		.loc 1 1348 6 is_stmt 0 view .LVU817
 3209 0000 20B1     		cbz	r0, .L243
1347:Middlewares/Third_Party/FreeRTOS/Source/CMSIS_RTOS/cmsis_os.c ****   if (queue_id == NULL) {
 3210              		.loc 1 1347 1 view .LVU818
 3211 0002 08B5     		push	{r3, lr}
 3212              	.LCFI86:
 3213              		.cfi_def_cfa_offset 8
 3214              		.cfi_offset 3, -8
 3215              		.cfi_offset 14, -4
1349:Middlewares/Third_Party/FreeRTOS/Source/CMSIS_RTOS/cmsis_os.c ****     return osErrorParameter;
1350:Middlewares/Third_Party/FreeRTOS/Source/CMSIS_RTOS/cmsis_os.c ****   }
1351:Middlewares/Third_Party/FreeRTOS/Source/CMSIS_RTOS/cmsis_os.c ****   
1352:Middlewares/Third_Party/FreeRTOS/Source/CMSIS_RTOS/cmsis_os.c ****   return osPoolFree(queue_id->pool, mail);
 3216              		.loc 1 1352 3 is_stmt 1 view .LVU819
 3217              		.loc 1 1352 10 is_stmt 0 view .LVU820
 3218 0004 8068     		ldr	r0, [r0, #8]
 3219              	.LVL263:
 3220              		.loc 1 1352 10 view .LVU821
 3221 0006 FFF7FEFF 		bl	osPoolFree
 3222              	.LVL264:
1353:Middlewares/Third_Party/FreeRTOS/Source/CMSIS_RTOS/cmsis_os.c **** }
 3223              		.loc 1 1353 1 view .LVU822
 3224 000a 08BD     		pop	{r3, pc}
 3225              	.LVL265:
ARM GAS  C:\Users\Lenovo\AppData\Local\Temp\cci3TShy.s 			page 92


 3226              	.L243:
 3227              	.LCFI87:
 3228              		.cfi_def_cfa_offset 0
 3229              		.cfi_restore 3
 3230              		.cfi_restore 14
1349:Middlewares/Third_Party/FreeRTOS/Source/CMSIS_RTOS/cmsis_os.c ****     return osErrorParameter;
 3231              		.loc 1 1349 12 view .LVU823
 3232 000c 8020     		movs	r0, #128
 3233              	.LVL266:
 3234              		.loc 1 1353 1 view .LVU824
 3235 000e 7047     		bx	lr
 3236              		.cfi_endproc
 3237              	.LFE148:
 3239              		.section	.text.osSystickHandler,"ax",%progbits
 3240              		.align	1
 3241              		.global	osSystickHandler
 3242              		.syntax unified
 3243              		.thumb
 3244              		.thumb_func
 3246              	osSystickHandler:
 3247              	.LFB149:
1354:Middlewares/Third_Party/FreeRTOS/Source/CMSIS_RTOS/cmsis_os.c **** #endif  /* Use Mail Queues */
1355:Middlewares/Third_Party/FreeRTOS/Source/CMSIS_RTOS/cmsis_os.c **** 
1356:Middlewares/Third_Party/FreeRTOS/Source/CMSIS_RTOS/cmsis_os.c **** /*************************** Additional specific APIs to Free RTOS ************/
1357:Middlewares/Third_Party/FreeRTOS/Source/CMSIS_RTOS/cmsis_os.c **** /**
1358:Middlewares/Third_Party/FreeRTOS/Source/CMSIS_RTOS/cmsis_os.c **** * @brief  Handles the tick increment
1359:Middlewares/Third_Party/FreeRTOS/Source/CMSIS_RTOS/cmsis_os.c **** * @param  none.
1360:Middlewares/Third_Party/FreeRTOS/Source/CMSIS_RTOS/cmsis_os.c **** * @retval none.
1361:Middlewares/Third_Party/FreeRTOS/Source/CMSIS_RTOS/cmsis_os.c **** */
1362:Middlewares/Third_Party/FreeRTOS/Source/CMSIS_RTOS/cmsis_os.c **** void osSystickHandler(void)
1363:Middlewares/Third_Party/FreeRTOS/Source/CMSIS_RTOS/cmsis_os.c **** {
 3248              		.loc 1 1363 1 is_stmt 1 view -0
 3249              		.cfi_startproc
 3250              		@ args = 0, pretend = 0, frame = 0
 3251              		@ frame_needed = 0, uses_anonymous_args = 0
 3252 0000 08B5     		push	{r3, lr}
 3253              	.LCFI88:
 3254              		.cfi_def_cfa_offset 8
 3255              		.cfi_offset 3, -8
 3256              		.cfi_offset 14, -4
1364:Middlewares/Third_Party/FreeRTOS/Source/CMSIS_RTOS/cmsis_os.c **** 
1365:Middlewares/Third_Party/FreeRTOS/Source/CMSIS_RTOS/cmsis_os.c **** #if (INCLUDE_xTaskGetSchedulerState  == 1 )
1366:Middlewares/Third_Party/FreeRTOS/Source/CMSIS_RTOS/cmsis_os.c ****   if (xTaskGetSchedulerState() != taskSCHEDULER_NOT_STARTED)
 3257              		.loc 1 1366 3 view .LVU826
 3258              		.loc 1 1366 7 is_stmt 0 view .LVU827
 3259 0002 FFF7FEFF 		bl	xTaskGetSchedulerState
 3260              	.LVL267:
 3261              		.loc 1 1366 6 view .LVU828
 3262 0006 0128     		cmp	r0, #1
 3263 0008 00D1     		bne	.L251
 3264              	.L248:
1367:Middlewares/Third_Party/FreeRTOS/Source/CMSIS_RTOS/cmsis_os.c ****   {
1368:Middlewares/Third_Party/FreeRTOS/Source/CMSIS_RTOS/cmsis_os.c **** #endif  /* INCLUDE_xTaskGetSchedulerState */  
1369:Middlewares/Third_Party/FreeRTOS/Source/CMSIS_RTOS/cmsis_os.c ****     xPortSysTickHandler();
1370:Middlewares/Third_Party/FreeRTOS/Source/CMSIS_RTOS/cmsis_os.c **** #if (INCLUDE_xTaskGetSchedulerState  == 1 )
1371:Middlewares/Third_Party/FreeRTOS/Source/CMSIS_RTOS/cmsis_os.c ****   }
1372:Middlewares/Third_Party/FreeRTOS/Source/CMSIS_RTOS/cmsis_os.c **** #endif  /* INCLUDE_xTaskGetSchedulerState */  
ARM GAS  C:\Users\Lenovo\AppData\Local\Temp\cci3TShy.s 			page 93


1373:Middlewares/Third_Party/FreeRTOS/Source/CMSIS_RTOS/cmsis_os.c **** }
 3265              		.loc 1 1373 1 view .LVU829
 3266 000a 08BD     		pop	{r3, pc}
 3267              	.L251:
1369:Middlewares/Third_Party/FreeRTOS/Source/CMSIS_RTOS/cmsis_os.c **** #if (INCLUDE_xTaskGetSchedulerState  == 1 )
 3268              		.loc 1 1369 5 is_stmt 1 view .LVU830
 3269 000c FFF7FEFF 		bl	SysTick_Handler
 3270              	.LVL268:
 3271              		.loc 1 1373 1 is_stmt 0 view .LVU831
 3272 0010 FBE7     		b	.L248
 3273              		.cfi_endproc
 3274              	.LFE149:
 3276              		.section	.text.osThreadSuspend,"ax",%progbits
 3277              		.align	1
 3278              		.global	osThreadSuspend
 3279              		.syntax unified
 3280              		.thumb
 3281              		.thumb_func
 3283              	osThreadSuspend:
 3284              	.LVL269:
 3285              	.LFB150:
1374:Middlewares/Third_Party/FreeRTOS/Source/CMSIS_RTOS/cmsis_os.c **** 
1375:Middlewares/Third_Party/FreeRTOS/Source/CMSIS_RTOS/cmsis_os.c **** #if ( INCLUDE_eTaskGetState == 1 )
1376:Middlewares/Third_Party/FreeRTOS/Source/CMSIS_RTOS/cmsis_os.c **** /**
1377:Middlewares/Third_Party/FreeRTOS/Source/CMSIS_RTOS/cmsis_os.c **** * @brief  Obtain the state of any thread.
1378:Middlewares/Third_Party/FreeRTOS/Source/CMSIS_RTOS/cmsis_os.c **** * @param   thread_id   thread ID obtained by \ref osThreadCreate or \ref osThreadGetId.
1379:Middlewares/Third_Party/FreeRTOS/Source/CMSIS_RTOS/cmsis_os.c **** * @retval  the stae of the thread, states are encoded by the osThreadState enumerated type.
1380:Middlewares/Third_Party/FreeRTOS/Source/CMSIS_RTOS/cmsis_os.c **** */
1381:Middlewares/Third_Party/FreeRTOS/Source/CMSIS_RTOS/cmsis_os.c **** osThreadState osThreadGetState(osThreadId thread_id)
1382:Middlewares/Third_Party/FreeRTOS/Source/CMSIS_RTOS/cmsis_os.c **** {
1383:Middlewares/Third_Party/FreeRTOS/Source/CMSIS_RTOS/cmsis_os.c ****   eTaskState ThreadState;
1384:Middlewares/Third_Party/FreeRTOS/Source/CMSIS_RTOS/cmsis_os.c ****   osThreadState result;
1385:Middlewares/Third_Party/FreeRTOS/Source/CMSIS_RTOS/cmsis_os.c ****   
1386:Middlewares/Third_Party/FreeRTOS/Source/CMSIS_RTOS/cmsis_os.c ****   ThreadState = eTaskGetState(thread_id);
1387:Middlewares/Third_Party/FreeRTOS/Source/CMSIS_RTOS/cmsis_os.c ****   
1388:Middlewares/Third_Party/FreeRTOS/Source/CMSIS_RTOS/cmsis_os.c ****   switch (ThreadState)
1389:Middlewares/Third_Party/FreeRTOS/Source/CMSIS_RTOS/cmsis_os.c ****   {
1390:Middlewares/Third_Party/FreeRTOS/Source/CMSIS_RTOS/cmsis_os.c ****   case eRunning :
1391:Middlewares/Third_Party/FreeRTOS/Source/CMSIS_RTOS/cmsis_os.c ****     result = osThreadRunning;
1392:Middlewares/Third_Party/FreeRTOS/Source/CMSIS_RTOS/cmsis_os.c ****     break;
1393:Middlewares/Third_Party/FreeRTOS/Source/CMSIS_RTOS/cmsis_os.c ****   case eReady :
1394:Middlewares/Third_Party/FreeRTOS/Source/CMSIS_RTOS/cmsis_os.c ****     result = osThreadReady;
1395:Middlewares/Third_Party/FreeRTOS/Source/CMSIS_RTOS/cmsis_os.c ****     break;
1396:Middlewares/Third_Party/FreeRTOS/Source/CMSIS_RTOS/cmsis_os.c ****   case eBlocked :
1397:Middlewares/Third_Party/FreeRTOS/Source/CMSIS_RTOS/cmsis_os.c ****     result = osThreadBlocked;
1398:Middlewares/Third_Party/FreeRTOS/Source/CMSIS_RTOS/cmsis_os.c ****     break;
1399:Middlewares/Third_Party/FreeRTOS/Source/CMSIS_RTOS/cmsis_os.c ****   case eSuspended :
1400:Middlewares/Third_Party/FreeRTOS/Source/CMSIS_RTOS/cmsis_os.c ****     result = osThreadSuspended;
1401:Middlewares/Third_Party/FreeRTOS/Source/CMSIS_RTOS/cmsis_os.c ****     break;
1402:Middlewares/Third_Party/FreeRTOS/Source/CMSIS_RTOS/cmsis_os.c ****   case eDeleted :
1403:Middlewares/Third_Party/FreeRTOS/Source/CMSIS_RTOS/cmsis_os.c ****     result = osThreadDeleted;
1404:Middlewares/Third_Party/FreeRTOS/Source/CMSIS_RTOS/cmsis_os.c ****     break;
1405:Middlewares/Third_Party/FreeRTOS/Source/CMSIS_RTOS/cmsis_os.c ****   default:
1406:Middlewares/Third_Party/FreeRTOS/Source/CMSIS_RTOS/cmsis_os.c ****     result = osThreadError;
1407:Middlewares/Third_Party/FreeRTOS/Source/CMSIS_RTOS/cmsis_os.c ****   } 
1408:Middlewares/Third_Party/FreeRTOS/Source/CMSIS_RTOS/cmsis_os.c ****   
1409:Middlewares/Third_Party/FreeRTOS/Source/CMSIS_RTOS/cmsis_os.c ****   return result;
ARM GAS  C:\Users\Lenovo\AppData\Local\Temp\cci3TShy.s 			page 94


1410:Middlewares/Third_Party/FreeRTOS/Source/CMSIS_RTOS/cmsis_os.c **** }
1411:Middlewares/Third_Party/FreeRTOS/Source/CMSIS_RTOS/cmsis_os.c **** #endif /* INCLUDE_eTaskGetState */
1412:Middlewares/Third_Party/FreeRTOS/Source/CMSIS_RTOS/cmsis_os.c **** 
1413:Middlewares/Third_Party/FreeRTOS/Source/CMSIS_RTOS/cmsis_os.c **** #if (INCLUDE_eTaskGetState == 1)
1414:Middlewares/Third_Party/FreeRTOS/Source/CMSIS_RTOS/cmsis_os.c **** /**
1415:Middlewares/Third_Party/FreeRTOS/Source/CMSIS_RTOS/cmsis_os.c **** * @brief Check if a thread is already suspended or not.
1416:Middlewares/Third_Party/FreeRTOS/Source/CMSIS_RTOS/cmsis_os.c **** * @param thread_id thread ID obtained by \ref osThreadCreate or \ref osThreadGetId.
1417:Middlewares/Third_Party/FreeRTOS/Source/CMSIS_RTOS/cmsis_os.c **** * @retval status code that indicates the execution status of the function.
1418:Middlewares/Third_Party/FreeRTOS/Source/CMSIS_RTOS/cmsis_os.c **** */
1419:Middlewares/Third_Party/FreeRTOS/Source/CMSIS_RTOS/cmsis_os.c **** osStatus osThreadIsSuspended(osThreadId thread_id)
1420:Middlewares/Third_Party/FreeRTOS/Source/CMSIS_RTOS/cmsis_os.c **** {
1421:Middlewares/Third_Party/FreeRTOS/Source/CMSIS_RTOS/cmsis_os.c ****   if (eTaskGetState(thread_id) == eSuspended)
1422:Middlewares/Third_Party/FreeRTOS/Source/CMSIS_RTOS/cmsis_os.c ****     return osOK;
1423:Middlewares/Third_Party/FreeRTOS/Source/CMSIS_RTOS/cmsis_os.c ****   else
1424:Middlewares/Third_Party/FreeRTOS/Source/CMSIS_RTOS/cmsis_os.c ****     return osErrorOS;
1425:Middlewares/Third_Party/FreeRTOS/Source/CMSIS_RTOS/cmsis_os.c **** }
1426:Middlewares/Third_Party/FreeRTOS/Source/CMSIS_RTOS/cmsis_os.c **** #endif /* INCLUDE_eTaskGetState */
1427:Middlewares/Third_Party/FreeRTOS/Source/CMSIS_RTOS/cmsis_os.c **** /**
1428:Middlewares/Third_Party/FreeRTOS/Source/CMSIS_RTOS/cmsis_os.c **** * @brief  Suspend execution of a thread.
1429:Middlewares/Third_Party/FreeRTOS/Source/CMSIS_RTOS/cmsis_os.c **** * @param   thread_id   thread ID obtained by \ref osThreadCreate or \ref osThreadGetId.
1430:Middlewares/Third_Party/FreeRTOS/Source/CMSIS_RTOS/cmsis_os.c **** * @retval  status code that indicates the execution status of the function.
1431:Middlewares/Third_Party/FreeRTOS/Source/CMSIS_RTOS/cmsis_os.c **** */
1432:Middlewares/Third_Party/FreeRTOS/Source/CMSIS_RTOS/cmsis_os.c **** osStatus osThreadSuspend (osThreadId thread_id)
1433:Middlewares/Third_Party/FreeRTOS/Source/CMSIS_RTOS/cmsis_os.c **** {
 3286              		.loc 1 1433 1 is_stmt 1 view -0
 3287              		.cfi_startproc
 3288              		@ args = 0, pretend = 0, frame = 0
 3289              		@ frame_needed = 0, uses_anonymous_args = 0
 3290              		.loc 1 1433 1 is_stmt 0 view .LVU833
 3291 0000 08B5     		push	{r3, lr}
 3292              	.LCFI89:
 3293              		.cfi_def_cfa_offset 8
 3294              		.cfi_offset 3, -8
 3295              		.cfi_offset 14, -4
1434:Middlewares/Third_Party/FreeRTOS/Source/CMSIS_RTOS/cmsis_os.c **** #if (INCLUDE_vTaskSuspend == 1)
1435:Middlewares/Third_Party/FreeRTOS/Source/CMSIS_RTOS/cmsis_os.c ****     vTaskSuspend(thread_id);
 3296              		.loc 1 1435 5 is_stmt 1 view .LVU834
 3297 0002 FFF7FEFF 		bl	vTaskSuspend
 3298              	.LVL270:
1436:Middlewares/Third_Party/FreeRTOS/Source/CMSIS_RTOS/cmsis_os.c ****   
1437:Middlewares/Third_Party/FreeRTOS/Source/CMSIS_RTOS/cmsis_os.c ****   return osOK;
 3299              		.loc 1 1437 3 view .LVU835
1438:Middlewares/Third_Party/FreeRTOS/Source/CMSIS_RTOS/cmsis_os.c **** #else
1439:Middlewares/Third_Party/FreeRTOS/Source/CMSIS_RTOS/cmsis_os.c ****   return osErrorResource;
1440:Middlewares/Third_Party/FreeRTOS/Source/CMSIS_RTOS/cmsis_os.c **** #endif
1441:Middlewares/Third_Party/FreeRTOS/Source/CMSIS_RTOS/cmsis_os.c **** }
 3300              		.loc 1 1441 1 is_stmt 0 view .LVU836
 3301 0006 0020     		movs	r0, #0
 3302 0008 08BD     		pop	{r3, pc}
 3303              		.cfi_endproc
 3304              	.LFE150:
 3306              		.section	.text.osThreadResume,"ax",%progbits
 3307              		.align	1
 3308              		.global	osThreadResume
 3309              		.syntax unified
 3310              		.thumb
 3311              		.thumb_func
ARM GAS  C:\Users\Lenovo\AppData\Local\Temp\cci3TShy.s 			page 95


 3313              	osThreadResume:
 3314              	.LVL271:
 3315              	.LFB151:
1442:Middlewares/Third_Party/FreeRTOS/Source/CMSIS_RTOS/cmsis_os.c **** 
1443:Middlewares/Third_Party/FreeRTOS/Source/CMSIS_RTOS/cmsis_os.c **** /**
1444:Middlewares/Third_Party/FreeRTOS/Source/CMSIS_RTOS/cmsis_os.c **** * @brief  Resume execution of a suspended thread.
1445:Middlewares/Third_Party/FreeRTOS/Source/CMSIS_RTOS/cmsis_os.c **** * @param   thread_id   thread ID obtained by \ref osThreadCreate or \ref osThreadGetId.
1446:Middlewares/Third_Party/FreeRTOS/Source/CMSIS_RTOS/cmsis_os.c **** * @retval  status code that indicates the execution status of the function.
1447:Middlewares/Third_Party/FreeRTOS/Source/CMSIS_RTOS/cmsis_os.c **** */
1448:Middlewares/Third_Party/FreeRTOS/Source/CMSIS_RTOS/cmsis_os.c **** osStatus osThreadResume (osThreadId thread_id)
1449:Middlewares/Third_Party/FreeRTOS/Source/CMSIS_RTOS/cmsis_os.c **** {
 3316              		.loc 1 1449 1 is_stmt 1 view -0
 3317              		.cfi_startproc
 3318              		@ args = 0, pretend = 0, frame = 0
 3319              		@ frame_needed = 0, uses_anonymous_args = 0
 3320              		.loc 1 1449 1 is_stmt 0 view .LVU838
 3321 0000 10B5     		push	{r4, lr}
 3322              	.LCFI90:
 3323              		.cfi_def_cfa_offset 8
 3324              		.cfi_offset 4, -8
 3325              		.cfi_offset 14, -4
 3326 0002 0446     		mov	r4, r0
1450:Middlewares/Third_Party/FreeRTOS/Source/CMSIS_RTOS/cmsis_os.c **** #if (INCLUDE_vTaskSuspend == 1)  
1451:Middlewares/Third_Party/FreeRTOS/Source/CMSIS_RTOS/cmsis_os.c ****   if(inHandlerMode())
 3327              		.loc 1 1451 3 is_stmt 1 view .LVU839
 3328              		.loc 1 1451 6 is_stmt 0 view .LVU840
 3329 0004 FFF7FEFF 		bl	inHandlerMode
 3330              	.LVL272:
 3331              		.loc 1 1451 5 view .LVU841
 3332 0008 78B1     		cbz	r0, .L255
1452:Middlewares/Third_Party/FreeRTOS/Source/CMSIS_RTOS/cmsis_os.c ****   {
1453:Middlewares/Third_Party/FreeRTOS/Source/CMSIS_RTOS/cmsis_os.c ****     if (xTaskResumeFromISR(thread_id) == pdTRUE)
 3333              		.loc 1 1453 5 is_stmt 1 view .LVU842
 3334              		.loc 1 1453 9 is_stmt 0 view .LVU843
 3335 000a 2046     		mov	r0, r4
 3336 000c FFF7FEFF 		bl	xTaskResumeFromISR
 3337              	.LVL273:
 3338              		.loc 1 1453 8 view .LVU844
 3339 0010 0128     		cmp	r0, #1
 3340 0012 0DD1     		bne	.L256
1454:Middlewares/Third_Party/FreeRTOS/Source/CMSIS_RTOS/cmsis_os.c ****     {
1455:Middlewares/Third_Party/FreeRTOS/Source/CMSIS_RTOS/cmsis_os.c ****       portYIELD_FROM_ISR(pdTRUE);
 3341              		.loc 1 1455 7 is_stmt 1 discriminator 1 view .LVU845
 3342              		.loc 1 1455 7 discriminator 1 view .LVU846
 3343 0014 4FF0E023 		mov	r3, #-536813568
 3344 0018 4FF08052 		mov	r2, #268435456
 3345 001c C3F8042D 		str	r2, [r3, #3332]
 3346              		.loc 1 1455 7 discriminator 1 view .LVU847
 3347              		.syntax unified
 3348              	@ 1455 "Middlewares/Third_Party/FreeRTOS/Source/CMSIS_RTOS/cmsis_os.c" 1
 3349 0020 BFF34F8F 		dsb
 3350              	@ 0 "" 2
 3351              		.loc 1 1455 7 discriminator 1 view .LVU848
 3352              	@ 1455 "Middlewares/Third_Party/FreeRTOS/Source/CMSIS_RTOS/cmsis_os.c" 1
 3353 0024 BFF36F8F 		isb
 3354              	@ 0 "" 2
 3355              		.thumb
ARM GAS  C:\Users\Lenovo\AppData\Local\Temp\cci3TShy.s 			page 96


 3356              		.syntax unified
 3357 0028 02E0     		b	.L256
 3358              	.L255:
1456:Middlewares/Third_Party/FreeRTOS/Source/CMSIS_RTOS/cmsis_os.c ****     }
1457:Middlewares/Third_Party/FreeRTOS/Source/CMSIS_RTOS/cmsis_os.c ****   }
1458:Middlewares/Third_Party/FreeRTOS/Source/CMSIS_RTOS/cmsis_os.c ****   else
1459:Middlewares/Third_Party/FreeRTOS/Source/CMSIS_RTOS/cmsis_os.c ****   {
1460:Middlewares/Third_Party/FreeRTOS/Source/CMSIS_RTOS/cmsis_os.c ****     vTaskResume(thread_id);
 3359              		.loc 1 1460 5 view .LVU849
 3360 002a 2046     		mov	r0, r4
 3361 002c FFF7FEFF 		bl	vTaskResume
 3362              	.LVL274:
 3363              	.L256:
1461:Middlewares/Third_Party/FreeRTOS/Source/CMSIS_RTOS/cmsis_os.c ****   }
1462:Middlewares/Third_Party/FreeRTOS/Source/CMSIS_RTOS/cmsis_os.c ****   return osOK;
 3364              		.loc 1 1462 3 view .LVU850
1463:Middlewares/Third_Party/FreeRTOS/Source/CMSIS_RTOS/cmsis_os.c **** #else
1464:Middlewares/Third_Party/FreeRTOS/Source/CMSIS_RTOS/cmsis_os.c ****   return osErrorResource;
1465:Middlewares/Third_Party/FreeRTOS/Source/CMSIS_RTOS/cmsis_os.c **** #endif
1466:Middlewares/Third_Party/FreeRTOS/Source/CMSIS_RTOS/cmsis_os.c **** }
 3365              		.loc 1 1466 1 is_stmt 0 view .LVU851
 3366 0030 0020     		movs	r0, #0
 3367 0032 10BD     		pop	{r4, pc}
 3368              		.loc 1 1466 1 view .LVU852
 3369              		.cfi_endproc
 3370              	.LFE151:
 3372              		.section	.text.osThreadSuspendAll,"ax",%progbits
 3373              		.align	1
 3374              		.global	osThreadSuspendAll
 3375              		.syntax unified
 3376              		.thumb
 3377              		.thumb_func
 3379              	osThreadSuspendAll:
 3380              	.LFB152:
1467:Middlewares/Third_Party/FreeRTOS/Source/CMSIS_RTOS/cmsis_os.c **** 
1468:Middlewares/Third_Party/FreeRTOS/Source/CMSIS_RTOS/cmsis_os.c **** /**
1469:Middlewares/Third_Party/FreeRTOS/Source/CMSIS_RTOS/cmsis_os.c **** * @brief  Suspend execution of a all active threads.
1470:Middlewares/Third_Party/FreeRTOS/Source/CMSIS_RTOS/cmsis_os.c **** * @retval  status code that indicates the execution status of the function.
1471:Middlewares/Third_Party/FreeRTOS/Source/CMSIS_RTOS/cmsis_os.c **** */
1472:Middlewares/Third_Party/FreeRTOS/Source/CMSIS_RTOS/cmsis_os.c **** osStatus osThreadSuspendAll (void)
1473:Middlewares/Third_Party/FreeRTOS/Source/CMSIS_RTOS/cmsis_os.c **** {
 3381              		.loc 1 1473 1 is_stmt 1 view -0
 3382              		.cfi_startproc
 3383              		@ args = 0, pretend = 0, frame = 0
 3384              		@ frame_needed = 0, uses_anonymous_args = 0
 3385 0000 08B5     		push	{r3, lr}
 3386              	.LCFI91:
 3387              		.cfi_def_cfa_offset 8
 3388              		.cfi_offset 3, -8
 3389              		.cfi_offset 14, -4
1474:Middlewares/Third_Party/FreeRTOS/Source/CMSIS_RTOS/cmsis_os.c ****   vTaskSuspendAll();
 3390              		.loc 1 1474 3 view .LVU854
 3391 0002 FFF7FEFF 		bl	vTaskSuspendAll
 3392              	.LVL275:
1475:Middlewares/Third_Party/FreeRTOS/Source/CMSIS_RTOS/cmsis_os.c ****   
1476:Middlewares/Third_Party/FreeRTOS/Source/CMSIS_RTOS/cmsis_os.c ****   return osOK;
 3393              		.loc 1 1476 3 view .LVU855
ARM GAS  C:\Users\Lenovo\AppData\Local\Temp\cci3TShy.s 			page 97


1477:Middlewares/Third_Party/FreeRTOS/Source/CMSIS_RTOS/cmsis_os.c **** }
 3394              		.loc 1 1477 1 is_stmt 0 view .LVU856
 3395 0006 0020     		movs	r0, #0
 3396 0008 08BD     		pop	{r3, pc}
 3397              		.cfi_endproc
 3398              	.LFE152:
 3400              		.section	.text.osThreadResumeAll,"ax",%progbits
 3401              		.align	1
 3402              		.global	osThreadResumeAll
 3403              		.syntax unified
 3404              		.thumb
 3405              		.thumb_func
 3407              	osThreadResumeAll:
 3408              	.LFB153:
1478:Middlewares/Third_Party/FreeRTOS/Source/CMSIS_RTOS/cmsis_os.c **** 
1479:Middlewares/Third_Party/FreeRTOS/Source/CMSIS_RTOS/cmsis_os.c **** /**
1480:Middlewares/Third_Party/FreeRTOS/Source/CMSIS_RTOS/cmsis_os.c **** * @brief  Resume execution of a all suspended threads.
1481:Middlewares/Third_Party/FreeRTOS/Source/CMSIS_RTOS/cmsis_os.c **** * @retval  status code that indicates the execution status of the function.
1482:Middlewares/Third_Party/FreeRTOS/Source/CMSIS_RTOS/cmsis_os.c **** */
1483:Middlewares/Third_Party/FreeRTOS/Source/CMSIS_RTOS/cmsis_os.c **** osStatus osThreadResumeAll (void)
1484:Middlewares/Third_Party/FreeRTOS/Source/CMSIS_RTOS/cmsis_os.c **** {
 3409              		.loc 1 1484 1 is_stmt 1 view -0
 3410              		.cfi_startproc
 3411              		@ args = 0, pretend = 0, frame = 0
 3412              		@ frame_needed = 0, uses_anonymous_args = 0
 3413 0000 08B5     		push	{r3, lr}
 3414              	.LCFI92:
 3415              		.cfi_def_cfa_offset 8
 3416              		.cfi_offset 3, -8
 3417              		.cfi_offset 14, -4
1485:Middlewares/Third_Party/FreeRTOS/Source/CMSIS_RTOS/cmsis_os.c ****   if (xTaskResumeAll() == pdTRUE)
 3418              		.loc 1 1485 3 view .LVU858
 3419              		.loc 1 1485 7 is_stmt 0 view .LVU859
 3420 0002 FFF7FEFF 		bl	xTaskResumeAll
 3421              	.LVL276:
 3422              		.loc 1 1485 6 view .LVU860
 3423 0006 0128     		cmp	r0, #1
 3424 0008 01D0     		beq	.L264
1486:Middlewares/Third_Party/FreeRTOS/Source/CMSIS_RTOS/cmsis_os.c ****     return osOK;
1487:Middlewares/Third_Party/FreeRTOS/Source/CMSIS_RTOS/cmsis_os.c ****   else
1488:Middlewares/Third_Party/FreeRTOS/Source/CMSIS_RTOS/cmsis_os.c ****     return osErrorOS;
 3425              		.loc 1 1488 12 view .LVU861
 3426 000a FF20     		movs	r0, #255
 3427              	.L260:
1489:Middlewares/Third_Party/FreeRTOS/Source/CMSIS_RTOS/cmsis_os.c ****   
1490:Middlewares/Third_Party/FreeRTOS/Source/CMSIS_RTOS/cmsis_os.c **** }
 3428              		.loc 1 1490 1 view .LVU862
 3429 000c 08BD     		pop	{r3, pc}
 3430              	.L264:
1486:Middlewares/Third_Party/FreeRTOS/Source/CMSIS_RTOS/cmsis_os.c ****     return osOK;
 3431              		.loc 1 1486 12 view .LVU863
 3432 000e 0020     		movs	r0, #0
 3433 0010 FCE7     		b	.L260
 3434              		.cfi_endproc
 3435              	.LFE153:
 3437              		.section	.text.osDelayUntil,"ax",%progbits
 3438              		.align	1
ARM GAS  C:\Users\Lenovo\AppData\Local\Temp\cci3TShy.s 			page 98


 3439              		.global	osDelayUntil
 3440              		.syntax unified
 3441              		.thumb
 3442              		.thumb_func
 3444              	osDelayUntil:
 3445              	.LVL277:
 3446              	.LFB154:
1491:Middlewares/Third_Party/FreeRTOS/Source/CMSIS_RTOS/cmsis_os.c **** 
1492:Middlewares/Third_Party/FreeRTOS/Source/CMSIS_RTOS/cmsis_os.c **** /**
1493:Middlewares/Third_Party/FreeRTOS/Source/CMSIS_RTOS/cmsis_os.c **** * @brief  Delay a task until a specified time
1494:Middlewares/Third_Party/FreeRTOS/Source/CMSIS_RTOS/cmsis_os.c **** * @param   PreviousWakeTime   Pointer to a variable that holds the time at which the 
1495:Middlewares/Third_Party/FreeRTOS/Source/CMSIS_RTOS/cmsis_os.c **** *          task was last unblocked. PreviousWakeTime must be initialised with the current time
1496:Middlewares/Third_Party/FreeRTOS/Source/CMSIS_RTOS/cmsis_os.c **** *          prior to its first use (PreviousWakeTime = osKernelSysTick() )
1497:Middlewares/Third_Party/FreeRTOS/Source/CMSIS_RTOS/cmsis_os.c **** * @param   millisec    time delay value
1498:Middlewares/Third_Party/FreeRTOS/Source/CMSIS_RTOS/cmsis_os.c **** * @retval  status code that indicates the execution status of the function.
1499:Middlewares/Third_Party/FreeRTOS/Source/CMSIS_RTOS/cmsis_os.c **** */
1500:Middlewares/Third_Party/FreeRTOS/Source/CMSIS_RTOS/cmsis_os.c **** osStatus osDelayUntil (uint32_t *PreviousWakeTime, uint32_t millisec)
1501:Middlewares/Third_Party/FreeRTOS/Source/CMSIS_RTOS/cmsis_os.c **** {
 3447              		.loc 1 1501 1 is_stmt 1 view -0
 3448              		.cfi_startproc
 3449              		@ args = 0, pretend = 0, frame = 0
 3450              		@ frame_needed = 0, uses_anonymous_args = 0
 3451              		.loc 1 1501 1 is_stmt 0 view .LVU865
 3452 0000 08B5     		push	{r3, lr}
 3453              	.LCFI93:
 3454              		.cfi_def_cfa_offset 8
 3455              		.cfi_offset 3, -8
 3456              		.cfi_offset 14, -4
1502:Middlewares/Third_Party/FreeRTOS/Source/CMSIS_RTOS/cmsis_os.c **** #if INCLUDE_vTaskDelayUntil
1503:Middlewares/Third_Party/FreeRTOS/Source/CMSIS_RTOS/cmsis_os.c ****   TickType_t ticks = (millisec / portTICK_PERIOD_MS);
 3457              		.loc 1 1503 3 is_stmt 1 view .LVU866
 3458              	.LVL278:
1504:Middlewares/Third_Party/FreeRTOS/Source/CMSIS_RTOS/cmsis_os.c ****   vTaskDelayUntil((TickType_t *) PreviousWakeTime, ticks ? ticks : 1);
 3459              		.loc 1 1504 3 view .LVU867
 3460 0002 01B9     		cbnz	r1, .L266
 3461 0004 0121     		movs	r1, #1
 3462              	.LVL279:
 3463              	.L266:
 3464              		.loc 1 1504 3 is_stmt 0 discriminator 4 view .LVU868
 3465 0006 FFF7FEFF 		bl	vTaskDelayUntil
 3466              	.LVL280:
1505:Middlewares/Third_Party/FreeRTOS/Source/CMSIS_RTOS/cmsis_os.c ****   
1506:Middlewares/Third_Party/FreeRTOS/Source/CMSIS_RTOS/cmsis_os.c ****   return osOK;
 3467              		.loc 1 1506 3 is_stmt 1 discriminator 4 view .LVU869
1507:Middlewares/Third_Party/FreeRTOS/Source/CMSIS_RTOS/cmsis_os.c **** #else
1508:Middlewares/Third_Party/FreeRTOS/Source/CMSIS_RTOS/cmsis_os.c ****   (void) millisec;
1509:Middlewares/Third_Party/FreeRTOS/Source/CMSIS_RTOS/cmsis_os.c ****   (void) PreviousWakeTime;
1510:Middlewares/Third_Party/FreeRTOS/Source/CMSIS_RTOS/cmsis_os.c ****   
1511:Middlewares/Third_Party/FreeRTOS/Source/CMSIS_RTOS/cmsis_os.c ****   return osErrorResource;
1512:Middlewares/Third_Party/FreeRTOS/Source/CMSIS_RTOS/cmsis_os.c **** #endif
1513:Middlewares/Third_Party/FreeRTOS/Source/CMSIS_RTOS/cmsis_os.c **** }
 3468              		.loc 1 1513 1 is_stmt 0 discriminator 4 view .LVU870
 3469 000a 0020     		movs	r0, #0
 3470 000c 08BD     		pop	{r3, pc}
 3471              		.cfi_endproc
 3472              	.LFE154:
 3474              		.section	.text.osAbortDelay,"ax",%progbits
ARM GAS  C:\Users\Lenovo\AppData\Local\Temp\cci3TShy.s 			page 99


 3475              		.align	1
 3476              		.global	osAbortDelay
 3477              		.syntax unified
 3478              		.thumb
 3479              		.thumb_func
 3481              	osAbortDelay:
 3482              	.LVL281:
 3483              	.LFB155:
1514:Middlewares/Third_Party/FreeRTOS/Source/CMSIS_RTOS/cmsis_os.c **** 
1515:Middlewares/Third_Party/FreeRTOS/Source/CMSIS_RTOS/cmsis_os.c **** /**
1516:Middlewares/Third_Party/FreeRTOS/Source/CMSIS_RTOS/cmsis_os.c **** * @brief   Abort the delay for a specific thread
1517:Middlewares/Third_Party/FreeRTOS/Source/CMSIS_RTOS/cmsis_os.c **** * @param   thread_id   thread ID obtained by \ref osThreadCreate or \ref osThreadGetId   
1518:Middlewares/Third_Party/FreeRTOS/Source/CMSIS_RTOS/cmsis_os.c **** * @retval  status code that indicates the execution status of the function.
1519:Middlewares/Third_Party/FreeRTOS/Source/CMSIS_RTOS/cmsis_os.c **** */
1520:Middlewares/Third_Party/FreeRTOS/Source/CMSIS_RTOS/cmsis_os.c **** osStatus osAbortDelay(osThreadId thread_id)
1521:Middlewares/Third_Party/FreeRTOS/Source/CMSIS_RTOS/cmsis_os.c **** {
 3484              		.loc 1 1521 1 is_stmt 1 view -0
 3485              		.cfi_startproc
 3486              		@ args = 0, pretend = 0, frame = 0
 3487              		@ frame_needed = 0, uses_anonymous_args = 0
 3488              		@ link register save eliminated.
1522:Middlewares/Third_Party/FreeRTOS/Source/CMSIS_RTOS/cmsis_os.c **** #if INCLUDE_xTaskAbortDelay
1523:Middlewares/Third_Party/FreeRTOS/Source/CMSIS_RTOS/cmsis_os.c ****   
1524:Middlewares/Third_Party/FreeRTOS/Source/CMSIS_RTOS/cmsis_os.c ****   xTaskAbortDelay(thread_id);
1525:Middlewares/Third_Party/FreeRTOS/Source/CMSIS_RTOS/cmsis_os.c ****   
1526:Middlewares/Third_Party/FreeRTOS/Source/CMSIS_RTOS/cmsis_os.c ****   return osOK;
1527:Middlewares/Third_Party/FreeRTOS/Source/CMSIS_RTOS/cmsis_os.c **** #else
1528:Middlewares/Third_Party/FreeRTOS/Source/CMSIS_RTOS/cmsis_os.c ****   (void) thread_id;
 3489              		.loc 1 1528 3 view .LVU872
1529:Middlewares/Third_Party/FreeRTOS/Source/CMSIS_RTOS/cmsis_os.c ****   
1530:Middlewares/Third_Party/FreeRTOS/Source/CMSIS_RTOS/cmsis_os.c ****   return osErrorResource;
 3490              		.loc 1 1530 3 view .LVU873
1531:Middlewares/Third_Party/FreeRTOS/Source/CMSIS_RTOS/cmsis_os.c **** #endif
1532:Middlewares/Third_Party/FreeRTOS/Source/CMSIS_RTOS/cmsis_os.c **** }
 3491              		.loc 1 1532 1 is_stmt 0 view .LVU874
 3492 0000 8120     		movs	r0, #129
 3493              	.LVL282:
 3494              		.loc 1 1532 1 view .LVU875
 3495 0002 7047     		bx	lr
 3496              		.cfi_endproc
 3497              	.LFE155:
 3499              		.section	.text.osThreadList,"ax",%progbits
 3500              		.align	1
 3501              		.global	osThreadList
 3502              		.syntax unified
 3503              		.thumb
 3504              		.thumb_func
 3506              	osThreadList:
 3507              	.LVL283:
 3508              	.LFB156:
1533:Middlewares/Third_Party/FreeRTOS/Source/CMSIS_RTOS/cmsis_os.c **** 
1534:Middlewares/Third_Party/FreeRTOS/Source/CMSIS_RTOS/cmsis_os.c **** /**
1535:Middlewares/Third_Party/FreeRTOS/Source/CMSIS_RTOS/cmsis_os.c **** * @brief   Lists all the current threads, along with their current state 
1536:Middlewares/Third_Party/FreeRTOS/Source/CMSIS_RTOS/cmsis_os.c **** *          and stack usage high water mark.
1537:Middlewares/Third_Party/FreeRTOS/Source/CMSIS_RTOS/cmsis_os.c **** * @param   buffer   A buffer into which the above mentioned details
1538:Middlewares/Third_Party/FreeRTOS/Source/CMSIS_RTOS/cmsis_os.c **** *          will be written
1539:Middlewares/Third_Party/FreeRTOS/Source/CMSIS_RTOS/cmsis_os.c **** * @retval  status code that indicates the execution status of the function.
ARM GAS  C:\Users\Lenovo\AppData\Local\Temp\cci3TShy.s 			page 100


1540:Middlewares/Third_Party/FreeRTOS/Source/CMSIS_RTOS/cmsis_os.c **** */
1541:Middlewares/Third_Party/FreeRTOS/Source/CMSIS_RTOS/cmsis_os.c **** osStatus osThreadList (uint8_t *buffer)
1542:Middlewares/Third_Party/FreeRTOS/Source/CMSIS_RTOS/cmsis_os.c **** {
 3509              		.loc 1 1542 1 is_stmt 1 view -0
 3510              		.cfi_startproc
 3511              		@ args = 0, pretend = 0, frame = 0
 3512              		@ frame_needed = 0, uses_anonymous_args = 0
 3513              		@ link register save eliminated.
1543:Middlewares/Third_Party/FreeRTOS/Source/CMSIS_RTOS/cmsis_os.c **** #if ( ( configUSE_TRACE_FACILITY == 1 ) && ( configUSE_STATS_FORMATTING_FUNCTIONS == 1 ) )
1544:Middlewares/Third_Party/FreeRTOS/Source/CMSIS_RTOS/cmsis_os.c ****   vTaskList((char *)buffer);
1545:Middlewares/Third_Party/FreeRTOS/Source/CMSIS_RTOS/cmsis_os.c **** #endif
1546:Middlewares/Third_Party/FreeRTOS/Source/CMSIS_RTOS/cmsis_os.c ****   return osOK;
 3514              		.loc 1 1546 3 view .LVU877
1547:Middlewares/Third_Party/FreeRTOS/Source/CMSIS_RTOS/cmsis_os.c **** }
 3515              		.loc 1 1547 1 is_stmt 0 view .LVU878
 3516 0000 0020     		movs	r0, #0
 3517              	.LVL284:
 3518              		.loc 1 1547 1 view .LVU879
 3519 0002 7047     		bx	lr
 3520              		.cfi_endproc
 3521              	.LFE156:
 3523              		.section	.text.osMessagePeek,"ax",%progbits
 3524              		.align	1
 3525              		.global	osMessagePeek
 3526              		.syntax unified
 3527              		.thumb
 3528              		.thumb_func
 3530              	osMessagePeek:
 3531              	.LVL285:
 3532              	.LFB157:
1548:Middlewares/Third_Party/FreeRTOS/Source/CMSIS_RTOS/cmsis_os.c **** 
1549:Middlewares/Third_Party/FreeRTOS/Source/CMSIS_RTOS/cmsis_os.c **** /**
1550:Middlewares/Third_Party/FreeRTOS/Source/CMSIS_RTOS/cmsis_os.c **** * @brief  Receive an item from a queue without removing the item from the queue.
1551:Middlewares/Third_Party/FreeRTOS/Source/CMSIS_RTOS/cmsis_os.c **** * @param  queue_id  message queue ID obtained with \ref osMessageCreate.
1552:Middlewares/Third_Party/FreeRTOS/Source/CMSIS_RTOS/cmsis_os.c **** * @param  millisec  timeout value or 0 in case of no time-out.
1553:Middlewares/Third_Party/FreeRTOS/Source/CMSIS_RTOS/cmsis_os.c **** * @retval event information that includes status code.
1554:Middlewares/Third_Party/FreeRTOS/Source/CMSIS_RTOS/cmsis_os.c **** */
1555:Middlewares/Third_Party/FreeRTOS/Source/CMSIS_RTOS/cmsis_os.c **** osEvent osMessagePeek (osMessageQId queue_id, uint32_t millisec)
1556:Middlewares/Third_Party/FreeRTOS/Source/CMSIS_RTOS/cmsis_os.c **** {
 3533              		.loc 1 1556 1 is_stmt 1 view -0
 3534              		.cfi_startproc
 3535              		@ args = 0, pretend = 0, frame = 16
 3536              		@ frame_needed = 0, uses_anonymous_args = 0
 3537              		.loc 1 1556 1 is_stmt 0 view .LVU881
 3538 0000 30B5     		push	{r4, r5, lr}
 3539              	.LCFI94:
 3540              		.cfi_def_cfa_offset 12
 3541              		.cfi_offset 4, -12
 3542              		.cfi_offset 5, -8
 3543              		.cfi_offset 14, -4
 3544 0002 85B0     		sub	sp, sp, #20
 3545              	.LCFI95:
 3546              		.cfi_def_cfa_offset 32
 3547 0004 0446     		mov	r4, r0
1557:Middlewares/Third_Party/FreeRTOS/Source/CMSIS_RTOS/cmsis_os.c ****   TickType_t ticks;
 3548              		.loc 1 1557 3 is_stmt 1 view .LVU882
1558:Middlewares/Third_Party/FreeRTOS/Source/CMSIS_RTOS/cmsis_os.c ****   osEvent event;
ARM GAS  C:\Users\Lenovo\AppData\Local\Temp\cci3TShy.s 			page 101


 3549              		.loc 1 1558 3 view .LVU883
1559:Middlewares/Third_Party/FreeRTOS/Source/CMSIS_RTOS/cmsis_os.c ****   
1560:Middlewares/Third_Party/FreeRTOS/Source/CMSIS_RTOS/cmsis_os.c ****   event.def.message_id = queue_id;
 3550              		.loc 1 1560 3 view .LVU884
 3551              		.loc 1 1560 24 is_stmt 0 view .LVU885
 3552 0006 0391     		str	r1, [sp, #12]
1561:Middlewares/Third_Party/FreeRTOS/Source/CMSIS_RTOS/cmsis_os.c ****   
1562:Middlewares/Third_Party/FreeRTOS/Source/CMSIS_RTOS/cmsis_os.c ****   if (queue_id == NULL) {
 3553              		.loc 1 1562 3 is_stmt 1 view .LVU886
 3554              		.loc 1 1562 6 is_stmt 0 view .LVU887
 3555 0008 89B1     		cbz	r1, .L279
 3556 000a 0846     		mov	r0, r1
 3557              	.LVL286:
 3558              		.loc 1 1562 6 view .LVU888
 3559 000c 1546     		mov	r5, r2
1563:Middlewares/Third_Party/FreeRTOS/Source/CMSIS_RTOS/cmsis_os.c ****     event.status = osErrorParameter;
1564:Middlewares/Third_Party/FreeRTOS/Source/CMSIS_RTOS/cmsis_os.c ****     return event;
1565:Middlewares/Third_Party/FreeRTOS/Source/CMSIS_RTOS/cmsis_os.c ****   }
1566:Middlewares/Third_Party/FreeRTOS/Source/CMSIS_RTOS/cmsis_os.c ****   
1567:Middlewares/Third_Party/FreeRTOS/Source/CMSIS_RTOS/cmsis_os.c ****   ticks = 0;
 3560              		.loc 1 1567 3 is_stmt 1 view .LVU889
 3561              	.LVL287:
1568:Middlewares/Third_Party/FreeRTOS/Source/CMSIS_RTOS/cmsis_os.c ****   if (millisec == osWaitForever) {
 3562              		.loc 1 1568 3 view .LVU890
1569:Middlewares/Third_Party/FreeRTOS/Source/CMSIS_RTOS/cmsis_os.c ****     ticks = portMAX_DELAY;
1570:Middlewares/Third_Party/FreeRTOS/Source/CMSIS_RTOS/cmsis_os.c ****   }
1571:Middlewares/Third_Party/FreeRTOS/Source/CMSIS_RTOS/cmsis_os.c ****   else if (millisec != 0) {
1572:Middlewares/Third_Party/FreeRTOS/Source/CMSIS_RTOS/cmsis_os.c ****     ticks = millisec / portTICK_PERIOD_MS;
1573:Middlewares/Third_Party/FreeRTOS/Source/CMSIS_RTOS/cmsis_os.c ****     if (ticks == 0) {
1574:Middlewares/Third_Party/FreeRTOS/Source/CMSIS_RTOS/cmsis_os.c ****       ticks = 1;
1575:Middlewares/Third_Party/FreeRTOS/Source/CMSIS_RTOS/cmsis_os.c ****     }
1576:Middlewares/Third_Party/FreeRTOS/Source/CMSIS_RTOS/cmsis_os.c ****   }
1577:Middlewares/Third_Party/FreeRTOS/Source/CMSIS_RTOS/cmsis_os.c ****   
1578:Middlewares/Third_Party/FreeRTOS/Source/CMSIS_RTOS/cmsis_os.c ****   if (xQueuePeek(queue_id, &event.value.v, ticks) == pdTRUE) 
 3563              		.loc 1 1578 3 view .LVU891
 3564              		.loc 1 1578 7 is_stmt 0 view .LVU892
 3565 000e 02A9     		add	r1, sp, #8
 3566              	.LVL288:
 3567              		.loc 1 1578 7 view .LVU893
 3568 0010 FFF7FEFF 		bl	xQueuePeek
 3569              	.LVL289:
 3570              		.loc 1 1578 6 view .LVU894
 3571 0014 0128     		cmp	r0, #1
 3572 0016 12D0     		beq	.L280
1579:Middlewares/Third_Party/FreeRTOS/Source/CMSIS_RTOS/cmsis_os.c ****   {
1580:Middlewares/Third_Party/FreeRTOS/Source/CMSIS_RTOS/cmsis_os.c ****     /* We have mail */
1581:Middlewares/Third_Party/FreeRTOS/Source/CMSIS_RTOS/cmsis_os.c ****     event.status = osEventMessage;
1582:Middlewares/Third_Party/FreeRTOS/Source/CMSIS_RTOS/cmsis_os.c ****   }
1583:Middlewares/Third_Party/FreeRTOS/Source/CMSIS_RTOS/cmsis_os.c ****   else 
1584:Middlewares/Third_Party/FreeRTOS/Source/CMSIS_RTOS/cmsis_os.c ****   {
1585:Middlewares/Third_Party/FreeRTOS/Source/CMSIS_RTOS/cmsis_os.c ****     event.status = (ticks == 0) ? osOK : osEventTimeout;
 3573              		.loc 1 1585 5 is_stmt 1 view .LVU895
 3574              		.loc 1 1585 40 is_stmt 0 view .LVU896
 3575 0018 05B1     		cbz	r5, .L276
 3576 001a 4025     		movs	r5, #64
 3577              	.LVL290:
 3578              	.L276:
ARM GAS  C:\Users\Lenovo\AppData\Local\Temp\cci3TShy.s 			page 102


 3579              		.loc 1 1585 18 discriminator 4 view .LVU897
 3580 001c 0195     		str	r5, [sp, #4]
 3581              	.L275:
1586:Middlewares/Third_Party/FreeRTOS/Source/CMSIS_RTOS/cmsis_os.c ****   }
1587:Middlewares/Third_Party/FreeRTOS/Source/CMSIS_RTOS/cmsis_os.c ****   
1588:Middlewares/Third_Party/FreeRTOS/Source/CMSIS_RTOS/cmsis_os.c ****   return event;
 3582              		.loc 1 1588 3 is_stmt 1 view .LVU898
 3583              		.loc 1 1588 10 is_stmt 0 view .LVU899
 3584 001e 04AB     		add	r3, sp, #16
 3585 0020 13E90700 		ldmdb	r3, {r0, r1, r2}
 3586 0024 84E80700 		stm	r4, {r0, r1, r2}
 3587              	.LVL291:
 3588              	.L271:
1589:Middlewares/Third_Party/FreeRTOS/Source/CMSIS_RTOS/cmsis_os.c **** }
 3589              		.loc 1 1589 1 view .LVU900
 3590 0028 2046     		mov	r0, r4
 3591 002a 05B0     		add	sp, sp, #20
 3592              	.LCFI96:
 3593              		.cfi_remember_state
 3594              		.cfi_def_cfa_offset 12
 3595              		@ sp needed
 3596 002c 30BD     		pop	{r4, r5, pc}
 3597              	.LVL292:
 3598              	.L279:
 3599              	.LCFI97:
 3600              		.cfi_restore_state
1563:Middlewares/Third_Party/FreeRTOS/Source/CMSIS_RTOS/cmsis_os.c ****     return event;
 3601              		.loc 1 1563 5 is_stmt 1 view .LVU901
1563:Middlewares/Third_Party/FreeRTOS/Source/CMSIS_RTOS/cmsis_os.c ****     return event;
 3602              		.loc 1 1563 18 is_stmt 0 view .LVU902
 3603 002e 8023     		movs	r3, #128
 3604 0030 0193     		str	r3, [sp, #4]
1564:Middlewares/Third_Party/FreeRTOS/Source/CMSIS_RTOS/cmsis_os.c ****   }
 3605              		.loc 1 1564 5 is_stmt 1 view .LVU903
1564:Middlewares/Third_Party/FreeRTOS/Source/CMSIS_RTOS/cmsis_os.c ****   }
 3606              		.loc 1 1564 12 is_stmt 0 view .LVU904
 3607 0032 04AB     		add	r3, sp, #16
 3608 0034 13E90700 		ldmdb	r3, {r0, r1, r2}
 3609              	.LVL293:
1564:Middlewares/Third_Party/FreeRTOS/Source/CMSIS_RTOS/cmsis_os.c ****   }
 3610              		.loc 1 1564 12 view .LVU905
 3611 0038 84E80700 		stm	r4, {r0, r1, r2}
 3612 003c F4E7     		b	.L271
 3613              	.LVL294:
 3614              	.L280:
1581:Middlewares/Third_Party/FreeRTOS/Source/CMSIS_RTOS/cmsis_os.c ****   }
 3615              		.loc 1 1581 5 is_stmt 1 view .LVU906
1581:Middlewares/Third_Party/FreeRTOS/Source/CMSIS_RTOS/cmsis_os.c ****   }
 3616              		.loc 1 1581 18 is_stmt 0 view .LVU907
 3617 003e 1023     		movs	r3, #16
 3618 0040 0193     		str	r3, [sp, #4]
 3619 0042 ECE7     		b	.L275
 3620              		.cfi_endproc
 3621              	.LFE157:
 3623              		.section	.text.osMessageWaiting,"ax",%progbits
 3624              		.align	1
 3625              		.global	osMessageWaiting
ARM GAS  C:\Users\Lenovo\AppData\Local\Temp\cci3TShy.s 			page 103


 3626              		.syntax unified
 3627              		.thumb
 3628              		.thumb_func
 3630              	osMessageWaiting:
 3631              	.LVL295:
 3632              	.LFB158:
1590:Middlewares/Third_Party/FreeRTOS/Source/CMSIS_RTOS/cmsis_os.c **** 
1591:Middlewares/Third_Party/FreeRTOS/Source/CMSIS_RTOS/cmsis_os.c **** /**
1592:Middlewares/Third_Party/FreeRTOS/Source/CMSIS_RTOS/cmsis_os.c **** * @brief  Get the number of messaged stored in a queue.
1593:Middlewares/Third_Party/FreeRTOS/Source/CMSIS_RTOS/cmsis_os.c **** * @param  queue_id  message queue ID obtained with \ref osMessageCreate.
1594:Middlewares/Third_Party/FreeRTOS/Source/CMSIS_RTOS/cmsis_os.c **** * @retval number of messages stored in a queue.
1595:Middlewares/Third_Party/FreeRTOS/Source/CMSIS_RTOS/cmsis_os.c **** */
1596:Middlewares/Third_Party/FreeRTOS/Source/CMSIS_RTOS/cmsis_os.c **** uint32_t osMessageWaiting(osMessageQId queue_id)
1597:Middlewares/Third_Party/FreeRTOS/Source/CMSIS_RTOS/cmsis_os.c **** {
 3633              		.loc 1 1597 1 is_stmt 1 view -0
 3634              		.cfi_startproc
 3635              		@ args = 0, pretend = 0, frame = 0
 3636              		@ frame_needed = 0, uses_anonymous_args = 0
 3637              		.loc 1 1597 1 is_stmt 0 view .LVU909
 3638 0000 10B5     		push	{r4, lr}
 3639              	.LCFI98:
 3640              		.cfi_def_cfa_offset 8
 3641              		.cfi_offset 4, -8
 3642              		.cfi_offset 14, -4
 3643 0002 0446     		mov	r4, r0
1598:Middlewares/Third_Party/FreeRTOS/Source/CMSIS_RTOS/cmsis_os.c ****   if (inHandlerMode()) {
 3644              		.loc 1 1598 3 is_stmt 1 view .LVU910
 3645              		.loc 1 1598 7 is_stmt 0 view .LVU911
 3646 0004 FFF7FEFF 		bl	inHandlerMode
 3647              	.LVL296:
 3648              		.loc 1 1598 6 view .LVU912
 3649 0008 18B1     		cbz	r0, .L282
1599:Middlewares/Third_Party/FreeRTOS/Source/CMSIS_RTOS/cmsis_os.c ****     return uxQueueMessagesWaitingFromISR(queue_id);
 3650              		.loc 1 1599 5 is_stmt 1 view .LVU913
 3651              		.loc 1 1599 12 is_stmt 0 view .LVU914
 3652 000a 2046     		mov	r0, r4
 3653 000c FFF7FEFF 		bl	uxQueueMessagesWaitingFromISR
 3654              	.LVL297:
 3655              	.L281:
1600:Middlewares/Third_Party/FreeRTOS/Source/CMSIS_RTOS/cmsis_os.c ****   }
1601:Middlewares/Third_Party/FreeRTOS/Source/CMSIS_RTOS/cmsis_os.c ****   else
1602:Middlewares/Third_Party/FreeRTOS/Source/CMSIS_RTOS/cmsis_os.c ****   {
1603:Middlewares/Third_Party/FreeRTOS/Source/CMSIS_RTOS/cmsis_os.c ****     return uxQueueMessagesWaiting(queue_id);
1604:Middlewares/Third_Party/FreeRTOS/Source/CMSIS_RTOS/cmsis_os.c ****   }
1605:Middlewares/Third_Party/FreeRTOS/Source/CMSIS_RTOS/cmsis_os.c **** }
 3656              		.loc 1 1605 1 view .LVU915
 3657 0010 10BD     		pop	{r4, pc}
 3658              	.LVL298:
 3659              	.L282:
1603:Middlewares/Third_Party/FreeRTOS/Source/CMSIS_RTOS/cmsis_os.c ****   }
 3660              		.loc 1 1603 5 is_stmt 1 view .LVU916
1603:Middlewares/Third_Party/FreeRTOS/Source/CMSIS_RTOS/cmsis_os.c ****   }
 3661              		.loc 1 1603 12 is_stmt 0 view .LVU917
 3662 0012 2046     		mov	r0, r4
 3663 0014 FFF7FEFF 		bl	uxQueueMessagesWaiting
 3664              	.LVL299:
 3665 0018 FAE7     		b	.L281
ARM GAS  C:\Users\Lenovo\AppData\Local\Temp\cci3TShy.s 			page 104


 3666              		.cfi_endproc
 3667              	.LFE158:
 3669              		.section	.text.osMessageAvailableSpace,"ax",%progbits
 3670              		.align	1
 3671              		.global	osMessageAvailableSpace
 3672              		.syntax unified
 3673              		.thumb
 3674              		.thumb_func
 3676              	osMessageAvailableSpace:
 3677              	.LVL300:
 3678              	.LFB159:
1606:Middlewares/Third_Party/FreeRTOS/Source/CMSIS_RTOS/cmsis_os.c **** 
1607:Middlewares/Third_Party/FreeRTOS/Source/CMSIS_RTOS/cmsis_os.c **** /**
1608:Middlewares/Third_Party/FreeRTOS/Source/CMSIS_RTOS/cmsis_os.c **** * @brief  Get the available space in a message queue.
1609:Middlewares/Third_Party/FreeRTOS/Source/CMSIS_RTOS/cmsis_os.c **** * @param  queue_id  message queue ID obtained with \ref osMessageCreate.
1610:Middlewares/Third_Party/FreeRTOS/Source/CMSIS_RTOS/cmsis_os.c **** * @retval available space in a message queue.
1611:Middlewares/Third_Party/FreeRTOS/Source/CMSIS_RTOS/cmsis_os.c **** */
1612:Middlewares/Third_Party/FreeRTOS/Source/CMSIS_RTOS/cmsis_os.c **** uint32_t osMessageAvailableSpace(osMessageQId queue_id)  
1613:Middlewares/Third_Party/FreeRTOS/Source/CMSIS_RTOS/cmsis_os.c **** {
 3679              		.loc 1 1613 1 is_stmt 1 view -0
 3680              		.cfi_startproc
 3681              		@ args = 0, pretend = 0, frame = 0
 3682              		@ frame_needed = 0, uses_anonymous_args = 0
 3683              		.loc 1 1613 1 is_stmt 0 view .LVU919
 3684 0000 08B5     		push	{r3, lr}
 3685              	.LCFI99:
 3686              		.cfi_def_cfa_offset 8
 3687              		.cfi_offset 3, -8
 3688              		.cfi_offset 14, -4
1614:Middlewares/Third_Party/FreeRTOS/Source/CMSIS_RTOS/cmsis_os.c ****   return uxQueueSpacesAvailable(queue_id);
 3689              		.loc 1 1614 3 is_stmt 1 view .LVU920
 3690              		.loc 1 1614 10 is_stmt 0 view .LVU921
 3691 0002 FFF7FEFF 		bl	uxQueueSpacesAvailable
 3692              	.LVL301:
1615:Middlewares/Third_Party/FreeRTOS/Source/CMSIS_RTOS/cmsis_os.c **** }
 3693              		.loc 1 1615 1 view .LVU922
 3694 0006 08BD     		pop	{r3, pc}
 3695              		.cfi_endproc
 3696              	.LFE159:
 3698              		.section	.text.osMessageDelete,"ax",%progbits
 3699              		.align	1
 3700              		.global	osMessageDelete
 3701              		.syntax unified
 3702              		.thumb
 3703              		.thumb_func
 3705              	osMessageDelete:
 3706              	.LVL302:
 3707              	.LFB160:
1616:Middlewares/Third_Party/FreeRTOS/Source/CMSIS_RTOS/cmsis_os.c **** 
1617:Middlewares/Third_Party/FreeRTOS/Source/CMSIS_RTOS/cmsis_os.c **** /**
1618:Middlewares/Third_Party/FreeRTOS/Source/CMSIS_RTOS/cmsis_os.c **** * @brief Delete a Message Queue
1619:Middlewares/Third_Party/FreeRTOS/Source/CMSIS_RTOS/cmsis_os.c **** * @param  queue_id  message queue ID obtained with \ref osMessageCreate.
1620:Middlewares/Third_Party/FreeRTOS/Source/CMSIS_RTOS/cmsis_os.c **** * @retval  status code that indicates the execution status of the function.
1621:Middlewares/Third_Party/FreeRTOS/Source/CMSIS_RTOS/cmsis_os.c **** */
1622:Middlewares/Third_Party/FreeRTOS/Source/CMSIS_RTOS/cmsis_os.c **** osStatus osMessageDelete (osMessageQId queue_id)
1623:Middlewares/Third_Party/FreeRTOS/Source/CMSIS_RTOS/cmsis_os.c **** {
 3708              		.loc 1 1623 1 is_stmt 1 view -0
ARM GAS  C:\Users\Lenovo\AppData\Local\Temp\cci3TShy.s 			page 105


 3709              		.cfi_startproc
 3710              		@ args = 0, pretend = 0, frame = 0
 3711              		@ frame_needed = 0, uses_anonymous_args = 0
 3712              		.loc 1 1623 1 is_stmt 0 view .LVU924
 3713 0000 10B5     		push	{r4, lr}
 3714              	.LCFI100:
 3715              		.cfi_def_cfa_offset 8
 3716              		.cfi_offset 4, -8
 3717              		.cfi_offset 14, -4
 3718 0002 0446     		mov	r4, r0
1624:Middlewares/Third_Party/FreeRTOS/Source/CMSIS_RTOS/cmsis_os.c ****   if (inHandlerMode()) {
 3719              		.loc 1 1624 3 is_stmt 1 view .LVU925
 3720              		.loc 1 1624 7 is_stmt 0 view .LVU926
 3721 0004 FFF7FEFF 		bl	inHandlerMode
 3722              	.LVL303:
 3723              		.loc 1 1624 6 view .LVU927
 3724 0008 20B9     		cbnz	r0, .L289
1625:Middlewares/Third_Party/FreeRTOS/Source/CMSIS_RTOS/cmsis_os.c ****     return osErrorISR;
1626:Middlewares/Third_Party/FreeRTOS/Source/CMSIS_RTOS/cmsis_os.c ****   }
1627:Middlewares/Third_Party/FreeRTOS/Source/CMSIS_RTOS/cmsis_os.c **** 
1628:Middlewares/Third_Party/FreeRTOS/Source/CMSIS_RTOS/cmsis_os.c ****   vQueueDelete(queue_id);
 3725              		.loc 1 1628 3 is_stmt 1 view .LVU928
 3726 000a 2046     		mov	r0, r4
 3727 000c FFF7FEFF 		bl	vQueueDelete
 3728              	.LVL304:
1629:Middlewares/Third_Party/FreeRTOS/Source/CMSIS_RTOS/cmsis_os.c **** 
1630:Middlewares/Third_Party/FreeRTOS/Source/CMSIS_RTOS/cmsis_os.c ****   return osOK; 
 3729              		.loc 1 1630 3 view .LVU929
 3730              		.loc 1 1630 10 is_stmt 0 view .LVU930
 3731 0010 0020     		movs	r0, #0
 3732              	.L287:
1631:Middlewares/Third_Party/FreeRTOS/Source/CMSIS_RTOS/cmsis_os.c **** }
 3733              		.loc 1 1631 1 view .LVU931
 3734 0012 10BD     		pop	{r4, pc}
 3735              	.LVL305:
 3736              	.L289:
1625:Middlewares/Third_Party/FreeRTOS/Source/CMSIS_RTOS/cmsis_os.c ****     return osErrorISR;
 3737              		.loc 1 1625 12 view .LVU932
 3738 0014 8220     		movs	r0, #130
 3739 0016 FCE7     		b	.L287
 3740              		.cfi_endproc
 3741              	.LFE160:
 3743              		.section	.text.osRecursiveMutexCreate,"ax",%progbits
 3744              		.align	1
 3745              		.global	osRecursiveMutexCreate
 3746              		.syntax unified
 3747              		.thumb
 3748              		.thumb_func
 3750              	osRecursiveMutexCreate:
 3751              	.LVL306:
 3752              	.LFB161:
1632:Middlewares/Third_Party/FreeRTOS/Source/CMSIS_RTOS/cmsis_os.c **** 
1633:Middlewares/Third_Party/FreeRTOS/Source/CMSIS_RTOS/cmsis_os.c **** /**
1634:Middlewares/Third_Party/FreeRTOS/Source/CMSIS_RTOS/cmsis_os.c **** * @brief  Create and Initialize a Recursive Mutex
1635:Middlewares/Third_Party/FreeRTOS/Source/CMSIS_RTOS/cmsis_os.c **** * @param  mutex_def     mutex definition referenced with \ref osMutex.
1636:Middlewares/Third_Party/FreeRTOS/Source/CMSIS_RTOS/cmsis_os.c **** * @retval  mutex ID for reference by other functions or NULL in case of error..
1637:Middlewares/Third_Party/FreeRTOS/Source/CMSIS_RTOS/cmsis_os.c **** */
ARM GAS  C:\Users\Lenovo\AppData\Local\Temp\cci3TShy.s 			page 106


1638:Middlewares/Third_Party/FreeRTOS/Source/CMSIS_RTOS/cmsis_os.c **** osMutexId osRecursiveMutexCreate (const osMutexDef_t *mutex_def)
1639:Middlewares/Third_Party/FreeRTOS/Source/CMSIS_RTOS/cmsis_os.c **** {
 3753              		.loc 1 1639 1 is_stmt 1 view -0
 3754              		.cfi_startproc
 3755              		@ args = 0, pretend = 0, frame = 0
 3756              		@ frame_needed = 0, uses_anonymous_args = 0
 3757              		.loc 1 1639 1 is_stmt 0 view .LVU934
 3758 0000 08B5     		push	{r3, lr}
 3759              	.LCFI101:
 3760              		.cfi_def_cfa_offset 8
 3761              		.cfi_offset 3, -8
 3762              		.cfi_offset 14, -4
1640:Middlewares/Third_Party/FreeRTOS/Source/CMSIS_RTOS/cmsis_os.c **** #if (configUSE_RECURSIVE_MUTEXES == 1)
1641:Middlewares/Third_Party/FreeRTOS/Source/CMSIS_RTOS/cmsis_os.c **** #if( configSUPPORT_STATIC_ALLOCATION == 1 ) && ( configSUPPORT_DYNAMIC_ALLOCATION == 1 )
1642:Middlewares/Third_Party/FreeRTOS/Source/CMSIS_RTOS/cmsis_os.c **** 
1643:Middlewares/Third_Party/FreeRTOS/Source/CMSIS_RTOS/cmsis_os.c ****   if (mutex_def->controlblock != NULL){
 3763              		.loc 1 1643 3 is_stmt 1 view .LVU935
 3764              		.loc 1 1643 16 is_stmt 0 view .LVU936
 3765 0002 4168     		ldr	r1, [r0, #4]
 3766              		.loc 1 1643 6 view .LVU937
 3767 0004 19B1     		cbz	r1, .L292
1644:Middlewares/Third_Party/FreeRTOS/Source/CMSIS_RTOS/cmsis_os.c ****     return xSemaphoreCreateRecursiveMutexStatic( mutex_def->controlblock );
 3768              		.loc 1 1644 5 is_stmt 1 view .LVU938
 3769              		.loc 1 1644 12 is_stmt 0 view .LVU939
 3770 0006 0420     		movs	r0, #4
 3771              	.LVL307:
 3772              		.loc 1 1644 12 view .LVU940
 3773 0008 FFF7FEFF 		bl	xQueueCreateMutexStatic
 3774              	.LVL308:
 3775              	.L291:
1645:Middlewares/Third_Party/FreeRTOS/Source/CMSIS_RTOS/cmsis_os.c ****   }
1646:Middlewares/Third_Party/FreeRTOS/Source/CMSIS_RTOS/cmsis_os.c ****   else {
1647:Middlewares/Third_Party/FreeRTOS/Source/CMSIS_RTOS/cmsis_os.c ****     return xSemaphoreCreateRecursiveMutex();
1648:Middlewares/Third_Party/FreeRTOS/Source/CMSIS_RTOS/cmsis_os.c ****   }
1649:Middlewares/Third_Party/FreeRTOS/Source/CMSIS_RTOS/cmsis_os.c **** #elif ( configSUPPORT_STATIC_ALLOCATION == 1 )
1650:Middlewares/Third_Party/FreeRTOS/Source/CMSIS_RTOS/cmsis_os.c ****   return xSemaphoreCreateRecursiveMutexStatic( mutex_def->controlblock );
1651:Middlewares/Third_Party/FreeRTOS/Source/CMSIS_RTOS/cmsis_os.c **** #else 
1652:Middlewares/Third_Party/FreeRTOS/Source/CMSIS_RTOS/cmsis_os.c ****   return xSemaphoreCreateRecursiveMutex();
1653:Middlewares/Third_Party/FreeRTOS/Source/CMSIS_RTOS/cmsis_os.c **** #endif
1654:Middlewares/Third_Party/FreeRTOS/Source/CMSIS_RTOS/cmsis_os.c **** #else
1655:Middlewares/Third_Party/FreeRTOS/Source/CMSIS_RTOS/cmsis_os.c ****   return NULL;
1656:Middlewares/Third_Party/FreeRTOS/Source/CMSIS_RTOS/cmsis_os.c **** #endif	
1657:Middlewares/Third_Party/FreeRTOS/Source/CMSIS_RTOS/cmsis_os.c **** }
 3776              		.loc 1 1657 1 view .LVU941
 3777 000c 08BD     		pop	{r3, pc}
 3778              	.LVL309:
 3779              	.L292:
1647:Middlewares/Third_Party/FreeRTOS/Source/CMSIS_RTOS/cmsis_os.c ****   }
 3780              		.loc 1 1647 5 is_stmt 1 view .LVU942
1647:Middlewares/Third_Party/FreeRTOS/Source/CMSIS_RTOS/cmsis_os.c ****   }
 3781              		.loc 1 1647 12 is_stmt 0 view .LVU943
 3782 000e 0420     		movs	r0, #4
 3783              	.LVL310:
1647:Middlewares/Third_Party/FreeRTOS/Source/CMSIS_RTOS/cmsis_os.c ****   }
 3784              		.loc 1 1647 12 view .LVU944
 3785 0010 FFF7FEFF 		bl	xQueueCreateMutex
 3786              	.LVL311:
ARM GAS  C:\Users\Lenovo\AppData\Local\Temp\cci3TShy.s 			page 107


 3787 0014 FAE7     		b	.L291
 3788              		.cfi_endproc
 3789              	.LFE161:
 3791              		.section	.text.osRecursiveMutexRelease,"ax",%progbits
 3792              		.align	1
 3793              		.global	osRecursiveMutexRelease
 3794              		.syntax unified
 3795              		.thumb
 3796              		.thumb_func
 3798              	osRecursiveMutexRelease:
 3799              	.LVL312:
 3800              	.LFB162:
1658:Middlewares/Third_Party/FreeRTOS/Source/CMSIS_RTOS/cmsis_os.c **** 
1659:Middlewares/Third_Party/FreeRTOS/Source/CMSIS_RTOS/cmsis_os.c **** /**
1660:Middlewares/Third_Party/FreeRTOS/Source/CMSIS_RTOS/cmsis_os.c **** * @brief  Release a Recursive Mutex
1661:Middlewares/Third_Party/FreeRTOS/Source/CMSIS_RTOS/cmsis_os.c **** * @param   mutex_id      mutex ID obtained by \ref osRecursiveMutexCreate.
1662:Middlewares/Third_Party/FreeRTOS/Source/CMSIS_RTOS/cmsis_os.c **** * @retval  status code that indicates the execution status of the function.
1663:Middlewares/Third_Party/FreeRTOS/Source/CMSIS_RTOS/cmsis_os.c **** */
1664:Middlewares/Third_Party/FreeRTOS/Source/CMSIS_RTOS/cmsis_os.c **** osStatus osRecursiveMutexRelease (osMutexId mutex_id)
1665:Middlewares/Third_Party/FreeRTOS/Source/CMSIS_RTOS/cmsis_os.c **** {
 3801              		.loc 1 1665 1 is_stmt 1 view -0
 3802              		.cfi_startproc
 3803              		@ args = 0, pretend = 0, frame = 0
 3804              		@ frame_needed = 0, uses_anonymous_args = 0
 3805              		.loc 1 1665 1 is_stmt 0 view .LVU946
 3806 0000 08B5     		push	{r3, lr}
 3807              	.LCFI102:
 3808              		.cfi_def_cfa_offset 8
 3809              		.cfi_offset 3, -8
 3810              		.cfi_offset 14, -4
1666:Middlewares/Third_Party/FreeRTOS/Source/CMSIS_RTOS/cmsis_os.c **** #if (configUSE_RECURSIVE_MUTEXES == 1)
1667:Middlewares/Third_Party/FreeRTOS/Source/CMSIS_RTOS/cmsis_os.c ****   osStatus result = osOK;
 3811              		.loc 1 1667 3 is_stmt 1 view .LVU947
 3812              	.LVL313:
1668:Middlewares/Third_Party/FreeRTOS/Source/CMSIS_RTOS/cmsis_os.c ****  
1669:Middlewares/Third_Party/FreeRTOS/Source/CMSIS_RTOS/cmsis_os.c ****   if (xSemaphoreGiveRecursive(mutex_id) != pdTRUE) 
 3813              		.loc 1 1669 3 view .LVU948
 3814              		.loc 1 1669 7 is_stmt 0 view .LVU949
 3815 0002 FFF7FEFF 		bl	xQueueGiveMutexRecursive
 3816              	.LVL314:
 3817              		.loc 1 1669 6 view .LVU950
 3818 0006 0128     		cmp	r0, #1
 3819 0008 01D0     		beq	.L299
1670:Middlewares/Third_Party/FreeRTOS/Source/CMSIS_RTOS/cmsis_os.c ****   {
1671:Middlewares/Third_Party/FreeRTOS/Source/CMSIS_RTOS/cmsis_os.c ****     result = osErrorOS;
 3820              		.loc 1 1671 12 view .LVU951
 3821 000a FF20     		movs	r0, #255
 3822              	.LVL315:
1672:Middlewares/Third_Party/FreeRTOS/Source/CMSIS_RTOS/cmsis_os.c ****   }
1673:Middlewares/Third_Party/FreeRTOS/Source/CMSIS_RTOS/cmsis_os.c ****   return result;
 3823              		.loc 1 1673 3 is_stmt 1 view .LVU952
 3824              	.L295:
1674:Middlewares/Third_Party/FreeRTOS/Source/CMSIS_RTOS/cmsis_os.c **** #else
1675:Middlewares/Third_Party/FreeRTOS/Source/CMSIS_RTOS/cmsis_os.c **** 	return osErrorResource;
1676:Middlewares/Third_Party/FreeRTOS/Source/CMSIS_RTOS/cmsis_os.c **** #endif
1677:Middlewares/Third_Party/FreeRTOS/Source/CMSIS_RTOS/cmsis_os.c **** }
 3825              		.loc 1 1677 1 is_stmt 0 view .LVU953
ARM GAS  C:\Users\Lenovo\AppData\Local\Temp\cci3TShy.s 			page 108


 3826 000c 08BD     		pop	{r3, pc}
 3827              	.LVL316:
 3828              	.L299:
1667:Middlewares/Third_Party/FreeRTOS/Source/CMSIS_RTOS/cmsis_os.c ****  
 3829              		.loc 1 1667 12 view .LVU954
 3830 000e 0020     		movs	r0, #0
 3831 0010 FCE7     		b	.L295
 3832              		.cfi_endproc
 3833              	.LFE162:
 3835              		.section	.text.osRecursiveMutexWait,"ax",%progbits
 3836              		.align	1
 3837              		.global	osRecursiveMutexWait
 3838              		.syntax unified
 3839              		.thumb
 3840              		.thumb_func
 3842              	osRecursiveMutexWait:
 3843              	.LVL317:
 3844              	.LFB163:
1678:Middlewares/Third_Party/FreeRTOS/Source/CMSIS_RTOS/cmsis_os.c **** 
1679:Middlewares/Third_Party/FreeRTOS/Source/CMSIS_RTOS/cmsis_os.c **** /**
1680:Middlewares/Third_Party/FreeRTOS/Source/CMSIS_RTOS/cmsis_os.c **** * @brief  Release a Recursive Mutex
1681:Middlewares/Third_Party/FreeRTOS/Source/CMSIS_RTOS/cmsis_os.c **** * @param   mutex_id    mutex ID obtained by \ref osRecursiveMutexCreate.
1682:Middlewares/Third_Party/FreeRTOS/Source/CMSIS_RTOS/cmsis_os.c **** * @param millisec      timeout value or 0 in case of no time-out.
1683:Middlewares/Third_Party/FreeRTOS/Source/CMSIS_RTOS/cmsis_os.c **** * @retval  status code that indicates the execution status of the function.
1684:Middlewares/Third_Party/FreeRTOS/Source/CMSIS_RTOS/cmsis_os.c **** */
1685:Middlewares/Third_Party/FreeRTOS/Source/CMSIS_RTOS/cmsis_os.c **** osStatus osRecursiveMutexWait (osMutexId mutex_id, uint32_t millisec)
1686:Middlewares/Third_Party/FreeRTOS/Source/CMSIS_RTOS/cmsis_os.c **** {
 3845              		.loc 1 1686 1 is_stmt 1 view -0
 3846              		.cfi_startproc
 3847              		@ args = 0, pretend = 0, frame = 0
 3848              		@ frame_needed = 0, uses_anonymous_args = 0
1687:Middlewares/Third_Party/FreeRTOS/Source/CMSIS_RTOS/cmsis_os.c **** #if (configUSE_RECURSIVE_MUTEXES == 1)
1688:Middlewares/Third_Party/FreeRTOS/Source/CMSIS_RTOS/cmsis_os.c ****   TickType_t ticks;
 3849              		.loc 1 1688 3 view .LVU956
1689:Middlewares/Third_Party/FreeRTOS/Source/CMSIS_RTOS/cmsis_os.c ****   
1690:Middlewares/Third_Party/FreeRTOS/Source/CMSIS_RTOS/cmsis_os.c ****   if (mutex_id == NULL)
 3850              		.loc 1 1690 3 view .LVU957
 3851              		.loc 1 1690 6 is_stmt 0 view .LVU958
 3852 0000 30B1     		cbz	r0, .L302
1686:Middlewares/Third_Party/FreeRTOS/Source/CMSIS_RTOS/cmsis_os.c **** #if (configUSE_RECURSIVE_MUTEXES == 1)
 3853              		.loc 1 1686 1 view .LVU959
 3854 0002 08B5     		push	{r3, lr}
 3855              	.LCFI103:
 3856              		.cfi_def_cfa_offset 8
 3857              		.cfi_offset 3, -8
 3858              		.cfi_offset 14, -4
1691:Middlewares/Third_Party/FreeRTOS/Source/CMSIS_RTOS/cmsis_os.c ****   {
1692:Middlewares/Third_Party/FreeRTOS/Source/CMSIS_RTOS/cmsis_os.c ****     return osErrorParameter;
1693:Middlewares/Third_Party/FreeRTOS/Source/CMSIS_RTOS/cmsis_os.c ****   }
1694:Middlewares/Third_Party/FreeRTOS/Source/CMSIS_RTOS/cmsis_os.c ****   
1695:Middlewares/Third_Party/FreeRTOS/Source/CMSIS_RTOS/cmsis_os.c ****   ticks = 0;
 3859              		.loc 1 1695 3 is_stmt 1 view .LVU960
 3860              	.LVL318:
1696:Middlewares/Third_Party/FreeRTOS/Source/CMSIS_RTOS/cmsis_os.c ****   if (millisec == osWaitForever) 
 3861              		.loc 1 1696 3 view .LVU961
1697:Middlewares/Third_Party/FreeRTOS/Source/CMSIS_RTOS/cmsis_os.c ****   {
1698:Middlewares/Third_Party/FreeRTOS/Source/CMSIS_RTOS/cmsis_os.c ****     ticks = portMAX_DELAY;
ARM GAS  C:\Users\Lenovo\AppData\Local\Temp\cci3TShy.s 			page 109


1699:Middlewares/Third_Party/FreeRTOS/Source/CMSIS_RTOS/cmsis_os.c ****   }
1700:Middlewares/Third_Party/FreeRTOS/Source/CMSIS_RTOS/cmsis_os.c ****   else if (millisec != 0) 
1701:Middlewares/Third_Party/FreeRTOS/Source/CMSIS_RTOS/cmsis_os.c ****   {
1702:Middlewares/Third_Party/FreeRTOS/Source/CMSIS_RTOS/cmsis_os.c ****     ticks = millisec / portTICK_PERIOD_MS;
1703:Middlewares/Third_Party/FreeRTOS/Source/CMSIS_RTOS/cmsis_os.c ****     if (ticks == 0) 
1704:Middlewares/Third_Party/FreeRTOS/Source/CMSIS_RTOS/cmsis_os.c ****     {
1705:Middlewares/Third_Party/FreeRTOS/Source/CMSIS_RTOS/cmsis_os.c ****       ticks = 1;
1706:Middlewares/Third_Party/FreeRTOS/Source/CMSIS_RTOS/cmsis_os.c ****     }
1707:Middlewares/Third_Party/FreeRTOS/Source/CMSIS_RTOS/cmsis_os.c ****   }
1708:Middlewares/Third_Party/FreeRTOS/Source/CMSIS_RTOS/cmsis_os.c ****   
1709:Middlewares/Third_Party/FreeRTOS/Source/CMSIS_RTOS/cmsis_os.c ****   if (xSemaphoreTakeRecursive(mutex_id, ticks) != pdTRUE) 
 3862              		.loc 1 1709 3 view .LVU962
 3863              		.loc 1 1709 7 is_stmt 0 view .LVU963
 3864 0004 FFF7FEFF 		bl	xQueueTakeMutexRecursive
 3865              	.LVL319:
 3866              		.loc 1 1709 6 view .LVU964
 3867 0008 0128     		cmp	r0, #1
 3868 000a 03D1     		bne	.L303
1710:Middlewares/Third_Party/FreeRTOS/Source/CMSIS_RTOS/cmsis_os.c ****   {
1711:Middlewares/Third_Party/FreeRTOS/Source/CMSIS_RTOS/cmsis_os.c ****     return osErrorOS;
1712:Middlewares/Third_Party/FreeRTOS/Source/CMSIS_RTOS/cmsis_os.c ****   }
1713:Middlewares/Third_Party/FreeRTOS/Source/CMSIS_RTOS/cmsis_os.c ****   return osOK;
 3869              		.loc 1 1713 10 view .LVU965
 3870 000c 0020     		movs	r0, #0
 3871              	.L300:
1714:Middlewares/Third_Party/FreeRTOS/Source/CMSIS_RTOS/cmsis_os.c **** #else
1715:Middlewares/Third_Party/FreeRTOS/Source/CMSIS_RTOS/cmsis_os.c **** 	return osErrorResource;
1716:Middlewares/Third_Party/FreeRTOS/Source/CMSIS_RTOS/cmsis_os.c **** #endif
1717:Middlewares/Third_Party/FreeRTOS/Source/CMSIS_RTOS/cmsis_os.c **** }
 3872              		.loc 1 1717 1 view .LVU966
 3873 000e 08BD     		pop	{r3, pc}
 3874              	.LVL320:
 3875              	.L302:
 3876              	.LCFI104:
 3877              		.cfi_def_cfa_offset 0
 3878              		.cfi_restore 3
 3879              		.cfi_restore 14
1692:Middlewares/Third_Party/FreeRTOS/Source/CMSIS_RTOS/cmsis_os.c ****   }
 3880              		.loc 1 1692 12 view .LVU967
 3881 0010 8020     		movs	r0, #128
 3882              	.LVL321:
 3883              		.loc 1 1717 1 view .LVU968
 3884 0012 7047     		bx	lr
 3885              	.LVL322:
 3886              	.L303:
 3887              	.LCFI105:
 3888              		.cfi_def_cfa_offset 8
 3889              		.cfi_offset 3, -8
 3890              		.cfi_offset 14, -4
1711:Middlewares/Third_Party/FreeRTOS/Source/CMSIS_RTOS/cmsis_os.c ****   }
 3891              		.loc 1 1711 12 view .LVU969
 3892 0014 FF20     		movs	r0, #255
 3893 0016 FAE7     		b	.L300
 3894              		.cfi_endproc
 3895              	.LFE163:
 3897              		.section	.text.osSemaphoreGetCount,"ax",%progbits
 3898              		.align	1
ARM GAS  C:\Users\Lenovo\AppData\Local\Temp\cci3TShy.s 			page 110


 3899              		.global	osSemaphoreGetCount
 3900              		.syntax unified
 3901              		.thumb
 3902              		.thumb_func
 3904              	osSemaphoreGetCount:
 3905              	.LVL323:
 3906              	.LFB164:
1718:Middlewares/Third_Party/FreeRTOS/Source/CMSIS_RTOS/cmsis_os.c **** 
1719:Middlewares/Third_Party/FreeRTOS/Source/CMSIS_RTOS/cmsis_os.c **** /**
1720:Middlewares/Third_Party/FreeRTOS/Source/CMSIS_RTOS/cmsis_os.c **** * @brief  Returns the current count value of a counting semaphore
1721:Middlewares/Third_Party/FreeRTOS/Source/CMSIS_RTOS/cmsis_os.c **** * @param  semaphore_id  semaphore_id ID obtained by \ref osSemaphoreCreate.
1722:Middlewares/Third_Party/FreeRTOS/Source/CMSIS_RTOS/cmsis_os.c **** * @retval  count value
1723:Middlewares/Third_Party/FreeRTOS/Source/CMSIS_RTOS/cmsis_os.c **** */
1724:Middlewares/Third_Party/FreeRTOS/Source/CMSIS_RTOS/cmsis_os.c **** uint32_t osSemaphoreGetCount(osSemaphoreId semaphore_id)
1725:Middlewares/Third_Party/FreeRTOS/Source/CMSIS_RTOS/cmsis_os.c **** {
 3907              		.loc 1 1725 1 is_stmt 1 view -0
 3908              		.cfi_startproc
 3909              		@ args = 0, pretend = 0, frame = 0
 3910              		@ frame_needed = 0, uses_anonymous_args = 0
 3911              		.loc 1 1725 1 is_stmt 0 view .LVU971
 3912 0000 08B5     		push	{r3, lr}
 3913              	.LCFI106:
 3914              		.cfi_def_cfa_offset 8
 3915              		.cfi_offset 3, -8
 3916              		.cfi_offset 14, -4
1726:Middlewares/Third_Party/FreeRTOS/Source/CMSIS_RTOS/cmsis_os.c ****   return uxSemaphoreGetCount(semaphore_id);
 3917              		.loc 1 1726 3 is_stmt 1 view .LVU972
 3918              		.loc 1 1726 10 is_stmt 0 view .LVU973
 3919 0002 FFF7FEFF 		bl	uxQueueMessagesWaiting
 3920              	.LVL324:
1727:Middlewares/Third_Party/FreeRTOS/Source/CMSIS_RTOS/cmsis_os.c **** }
 3921              		.loc 1 1727 1 view .LVU974
 3922 0006 08BD     		pop	{r3, pc}
 3923              		.cfi_endproc
 3924              	.LFE164:
 3926              		.text
 3927              	.Letext0:
 3928              		.file 4 "d:\\zodhya projects\\technical doccuments\\stm32_vscode_make\\tools\\gcc-arm-none-eabi-10
 3929              		.file 5 "d:\\zodhya projects\\technical doccuments\\stm32_vscode_make\\tools\\gcc-arm-none-eabi-10
 3930              		.file 6 "Middlewares/Third_Party/FreeRTOS/Source/include/projdefs.h"
 3931              		.file 7 "Middlewares/Third_Party/FreeRTOS/Source/include/FreeRTOS.h"
 3932              		.file 8 "Middlewares/Third_Party/FreeRTOS/Source/include/task.h"
 3933              		.file 9 "Middlewares/Third_Party/FreeRTOS/Source/include/timers.h"
 3934              		.file 10 "Middlewares/Third_Party/FreeRTOS/Source/include/queue.h"
 3935              		.file 11 "Middlewares/Third_Party/FreeRTOS/Source/include/semphr.h"
 3936              		.file 12 "Middlewares/Third_Party/FreeRTOS/Source/CMSIS_RTOS/cmsis_os.h"
 3937              		.file 13 "Middlewares/Third_Party/FreeRTOS/Source/include/portable.h"
ARM GAS  C:\Users\Lenovo\AppData\Local\Temp\cci3TShy.s 			page 111


DEFINED SYMBOLS
                            *ABS*:00000000 cmsis_os.c
C:\Users\Lenovo\AppData\Local\Temp\cci3TShy.s:18     .text.makeFreeRtosPriority:00000000 $t
C:\Users\Lenovo\AppData\Local\Temp\cci3TShy.s:23     .text.makeFreeRtosPriority:00000000 makeFreeRtosPriority
C:\Users\Lenovo\AppData\Local\Temp\cci3TShy.s:55     .text.makeCmsisPriority:00000000 $t
C:\Users\Lenovo\AppData\Local\Temp\cci3TShy.s:60     .text.makeCmsisPriority:00000000 makeCmsisPriority
C:\Users\Lenovo\AppData\Local\Temp\cci3TShy.s:94     .text.inHandlerMode:00000000 $t
C:\Users\Lenovo\AppData\Local\Temp\cci3TShy.s:99     .text.inHandlerMode:00000000 inHandlerMode
C:\Users\Lenovo\AppData\Local\Temp\cci3TShy.s:134    .text.osKernelStart:00000000 $t
C:\Users\Lenovo\AppData\Local\Temp\cci3TShy.s:140    .text.osKernelStart:00000000 osKernelStart
C:\Users\Lenovo\AppData\Local\Temp\cci3TShy.s:162    .text.osKernelRunning:00000000 $t
C:\Users\Lenovo\AppData\Local\Temp\cci3TShy.s:168    .text.osKernelRunning:00000000 osKernelRunning
C:\Users\Lenovo\AppData\Local\Temp\cci3TShy.s:199    .text.osKernelSysTick:00000000 $t
C:\Users\Lenovo\AppData\Local\Temp\cci3TShy.s:205    .text.osKernelSysTick:00000000 osKernelSysTick
C:\Users\Lenovo\AppData\Local\Temp\cci3TShy.s:239    .text.osThreadCreate:00000000 $t
C:\Users\Lenovo\AppData\Local\Temp\cci3TShy.s:245    .text.osThreadCreate:00000000 osThreadCreate
C:\Users\Lenovo\AppData\Local\Temp\cci3TShy.s:350    .text.osThreadGetId:00000000 $t
C:\Users\Lenovo\AppData\Local\Temp\cci3TShy.s:356    .text.osThreadGetId:00000000 osThreadGetId
C:\Users\Lenovo\AppData\Local\Temp\cci3TShy.s:377    .text.osThreadTerminate:00000000 $t
C:\Users\Lenovo\AppData\Local\Temp\cci3TShy.s:383    .text.osThreadTerminate:00000000 osThreadTerminate
C:\Users\Lenovo\AppData\Local\Temp\cci3TShy.s:407    .text.osThreadYield:00000000 $t
C:\Users\Lenovo\AppData\Local\Temp\cci3TShy.s:413    .text.osThreadYield:00000000 osThreadYield
C:\Users\Lenovo\AppData\Local\Temp\cci3TShy.s:444    .text.osThreadSetPriority:00000000 $t
C:\Users\Lenovo\AppData\Local\Temp\cci3TShy.s:450    .text.osThreadSetPriority:00000000 osThreadSetPriority
C:\Users\Lenovo\AppData\Local\Temp\cci3TShy.s:484    .text.osThreadGetPriority:00000000 $t
C:\Users\Lenovo\AppData\Local\Temp\cci3TShy.s:490    .text.osThreadGetPriority:00000000 osThreadGetPriority
C:\Users\Lenovo\AppData\Local\Temp\cci3TShy.s:534    .text.osDelay:00000000 $t
C:\Users\Lenovo\AppData\Local\Temp\cci3TShy.s:540    .text.osDelay:00000000 osDelay
C:\Users\Lenovo\AppData\Local\Temp\cci3TShy.s:571    .rodata.osTimerCreate.str1.4:00000000 $d
C:\Users\Lenovo\AppData\Local\Temp\cci3TShy.s:575    .text.osTimerCreate:00000000 $t
C:\Users\Lenovo\AppData\Local\Temp\cci3TShy.s:581    .text.osTimerCreate:00000000 osTimerCreate
C:\Users\Lenovo\AppData\Local\Temp\cci3TShy.s:671    .text.osTimerCreate:00000040 $d
C:\Users\Lenovo\AppData\Local\Temp\cci3TShy.s:676    .text.osTimerStart:00000000 $t
C:\Users\Lenovo\AppData\Local\Temp\cci3TShy.s:682    .text.osTimerStart:00000000 osTimerStart
C:\Users\Lenovo\AppData\Local\Temp\cci3TShy.s:803    .text.osTimerStop:00000000 $t
C:\Users\Lenovo\AppData\Local\Temp\cci3TShy.s:809    .text.osTimerStop:00000000 osTimerStop
C:\Users\Lenovo\AppData\Local\Temp\cci3TShy.s:914    .text.osTimerDelete:00000000 $t
C:\Users\Lenovo\AppData\Local\Temp\cci3TShy.s:920    .text.osTimerDelete:00000000 osTimerDelete
C:\Users\Lenovo\AppData\Local\Temp\cci3TShy.s:984    .text.osSignalSet:00000000 $t
C:\Users\Lenovo\AppData\Local\Temp\cci3TShy.s:990    .text.osSignalSet:00000000 osSignalSet
C:\Users\Lenovo\AppData\Local\Temp\cci3TShy.s:1093   .text.osSignalWait:00000000 $t
C:\Users\Lenovo\AppData\Local\Temp\cci3TShy.s:1099   .text.osSignalWait:00000000 osSignalWait
C:\Users\Lenovo\AppData\Local\Temp\cci3TShy.s:1204   .text.osMutexCreate:00000000 $t
C:\Users\Lenovo\AppData\Local\Temp\cci3TShy.s:1210   .text.osMutexCreate:00000000 osMutexCreate
C:\Users\Lenovo\AppData\Local\Temp\cci3TShy.s:1252   .text.osMutexWait:00000000 $t
C:\Users\Lenovo\AppData\Local\Temp\cci3TShy.s:1258   .text.osMutexWait:00000000 osMutexWait
C:\Users\Lenovo\AppData\Local\Temp\cci3TShy.s:1372   .text.osMutexRelease:00000000 $t
C:\Users\Lenovo\AppData\Local\Temp\cci3TShy.s:1378   .text.osMutexRelease:00000000 osMutexRelease
C:\Users\Lenovo\AppData\Local\Temp\cci3TShy.s:1479   .text.osMutexDelete:00000000 $t
C:\Users\Lenovo\AppData\Local\Temp\cci3TShy.s:1485   .text.osMutexDelete:00000000 osMutexDelete
C:\Users\Lenovo\AppData\Local\Temp\cci3TShy.s:1524   .text.osSemaphoreCreate:00000000 $t
C:\Users\Lenovo\AppData\Local\Temp\cci3TShy.s:1530   .text.osSemaphoreCreate:00000000 osSemaphoreCreate
C:\Users\Lenovo\AppData\Local\Temp\cci3TShy.s:1640   .text.osSemaphoreWait:00000000 $t
C:\Users\Lenovo\AppData\Local\Temp\cci3TShy.s:1646   .text.osSemaphoreWait:00000000 osSemaphoreWait
C:\Users\Lenovo\AppData\Local\Temp\cci3TShy.s:1755   .text.osSemaphoreRelease:00000000 $t
C:\Users\Lenovo\AppData\Local\Temp\cci3TShy.s:1761   .text.osSemaphoreRelease:00000000 osSemaphoreRelease
C:\Users\Lenovo\AppData\Local\Temp\cci3TShy.s:1862   .text.osSemaphoreDelete:00000000 $t
ARM GAS  C:\Users\Lenovo\AppData\Local\Temp\cci3TShy.s 			page 112


C:\Users\Lenovo\AppData\Local\Temp\cci3TShy.s:1868   .text.osSemaphoreDelete:00000000 osSemaphoreDelete
C:\Users\Lenovo\AppData\Local\Temp\cci3TShy.s:1907   .text.osPoolCreate:00000000 $t
C:\Users\Lenovo\AppData\Local\Temp\cci3TShy.s:1913   .text.osPoolCreate:00000000 osPoolCreate
C:\Users\Lenovo\AppData\Local\Temp\cci3TShy.s:2049   .text.osPoolAlloc:00000000 $t
C:\Users\Lenovo\AppData\Local\Temp\cci3TShy.s:2055   .text.osPoolAlloc:00000000 osPoolAlloc
C:\Users\Lenovo\AppData\Local\Temp\cci3TShy.s:2213   .text.osPoolCAlloc:00000000 $t
C:\Users\Lenovo\AppData\Local\Temp\cci3TShy.s:2219   .text.osPoolCAlloc:00000000 osPoolCAlloc
C:\Users\Lenovo\AppData\Local\Temp\cci3TShy.s:2250   .text.osPoolFree:00000000 $t
C:\Users\Lenovo\AppData\Local\Temp\cci3TShy.s:2256   .text.osPoolFree:00000000 osPoolFree
C:\Users\Lenovo\AppData\Local\Temp\cci3TShy.s:2347   .text.osMessageCreate:00000000 $t
C:\Users\Lenovo\AppData\Local\Temp\cci3TShy.s:2353   .text.osMessageCreate:00000000 osMessageCreate
C:\Users\Lenovo\AppData\Local\Temp\cci3TShy.s:2415   .text.osMessagePut:00000000 $t
C:\Users\Lenovo\AppData\Local\Temp\cci3TShy.s:2421   .text.osMessagePut:00000000 osMessagePut
C:\Users\Lenovo\AppData\Local\Temp\cci3TShy.s:2534   .text.osMessageGet:00000000 $t
C:\Users\Lenovo\AppData\Local\Temp\cci3TShy.s:2540   .text.osMessageGet:00000000 osMessageGet
C:\Users\Lenovo\AppData\Local\Temp\cci3TShy.s:2690   .text.osMailCreate:00000000 $t
C:\Users\Lenovo\AppData\Local\Temp\cci3TShy.s:2696   .text.osMailCreate:00000000 osMailCreate
C:\Users\Lenovo\AppData\Local\Temp\cci3TShy.s:2821   .text.osMailAlloc:00000000 $t
C:\Users\Lenovo\AppData\Local\Temp\cci3TShy.s:2827   .text.osMailAlloc:00000000 osMailAlloc
C:\Users\Lenovo\AppData\Local\Temp\cci3TShy.s:2860   .text.osMailCAlloc:00000000 $t
C:\Users\Lenovo\AppData\Local\Temp\cci3TShy.s:2866   .text.osMailCAlloc:00000000 osMailCAlloc
C:\Users\Lenovo\AppData\Local\Temp\cci3TShy.s:2923   .text.osMailPut:00000000 $t
C:\Users\Lenovo\AppData\Local\Temp\cci3TShy.s:2929   .text.osMailPut:00000000 osMailPut
C:\Users\Lenovo\AppData\Local\Temp\cci3TShy.s:3042   .text.osMailGet:00000000 $t
C:\Users\Lenovo\AppData\Local\Temp\cci3TShy.s:3048   .text.osMailGet:00000000 osMailGet
C:\Users\Lenovo\AppData\Local\Temp\cci3TShy.s:3194   .text.osMailFree:00000000 $t
C:\Users\Lenovo\AppData\Local\Temp\cci3TShy.s:3200   .text.osMailFree:00000000 osMailFree
C:\Users\Lenovo\AppData\Local\Temp\cci3TShy.s:3240   .text.osSystickHandler:00000000 $t
C:\Users\Lenovo\AppData\Local\Temp\cci3TShy.s:3246   .text.osSystickHandler:00000000 osSystickHandler
C:\Users\Lenovo\AppData\Local\Temp\cci3TShy.s:3277   .text.osThreadSuspend:00000000 $t
C:\Users\Lenovo\AppData\Local\Temp\cci3TShy.s:3283   .text.osThreadSuspend:00000000 osThreadSuspend
C:\Users\Lenovo\AppData\Local\Temp\cci3TShy.s:3307   .text.osThreadResume:00000000 $t
C:\Users\Lenovo\AppData\Local\Temp\cci3TShy.s:3313   .text.osThreadResume:00000000 osThreadResume
C:\Users\Lenovo\AppData\Local\Temp\cci3TShy.s:3373   .text.osThreadSuspendAll:00000000 $t
C:\Users\Lenovo\AppData\Local\Temp\cci3TShy.s:3379   .text.osThreadSuspendAll:00000000 osThreadSuspendAll
C:\Users\Lenovo\AppData\Local\Temp\cci3TShy.s:3401   .text.osThreadResumeAll:00000000 $t
C:\Users\Lenovo\AppData\Local\Temp\cci3TShy.s:3407   .text.osThreadResumeAll:00000000 osThreadResumeAll
C:\Users\Lenovo\AppData\Local\Temp\cci3TShy.s:3438   .text.osDelayUntil:00000000 $t
C:\Users\Lenovo\AppData\Local\Temp\cci3TShy.s:3444   .text.osDelayUntil:00000000 osDelayUntil
C:\Users\Lenovo\AppData\Local\Temp\cci3TShy.s:3475   .text.osAbortDelay:00000000 $t
C:\Users\Lenovo\AppData\Local\Temp\cci3TShy.s:3481   .text.osAbortDelay:00000000 osAbortDelay
C:\Users\Lenovo\AppData\Local\Temp\cci3TShy.s:3500   .text.osThreadList:00000000 $t
C:\Users\Lenovo\AppData\Local\Temp\cci3TShy.s:3506   .text.osThreadList:00000000 osThreadList
C:\Users\Lenovo\AppData\Local\Temp\cci3TShy.s:3524   .text.osMessagePeek:00000000 $t
C:\Users\Lenovo\AppData\Local\Temp\cci3TShy.s:3530   .text.osMessagePeek:00000000 osMessagePeek
C:\Users\Lenovo\AppData\Local\Temp\cci3TShy.s:3624   .text.osMessageWaiting:00000000 $t
C:\Users\Lenovo\AppData\Local\Temp\cci3TShy.s:3630   .text.osMessageWaiting:00000000 osMessageWaiting
C:\Users\Lenovo\AppData\Local\Temp\cci3TShy.s:3670   .text.osMessageAvailableSpace:00000000 $t
C:\Users\Lenovo\AppData\Local\Temp\cci3TShy.s:3676   .text.osMessageAvailableSpace:00000000 osMessageAvailableSpace
C:\Users\Lenovo\AppData\Local\Temp\cci3TShy.s:3699   .text.osMessageDelete:00000000 $t
C:\Users\Lenovo\AppData\Local\Temp\cci3TShy.s:3705   .text.osMessageDelete:00000000 osMessageDelete
C:\Users\Lenovo\AppData\Local\Temp\cci3TShy.s:3744   .text.osRecursiveMutexCreate:00000000 $t
C:\Users\Lenovo\AppData\Local\Temp\cci3TShy.s:3750   .text.osRecursiveMutexCreate:00000000 osRecursiveMutexCreate
C:\Users\Lenovo\AppData\Local\Temp\cci3TShy.s:3792   .text.osRecursiveMutexRelease:00000000 $t
C:\Users\Lenovo\AppData\Local\Temp\cci3TShy.s:3798   .text.osRecursiveMutexRelease:00000000 osRecursiveMutexRelease
C:\Users\Lenovo\AppData\Local\Temp\cci3TShy.s:3836   .text.osRecursiveMutexWait:00000000 $t
C:\Users\Lenovo\AppData\Local\Temp\cci3TShy.s:3842   .text.osRecursiveMutexWait:00000000 osRecursiveMutexWait
ARM GAS  C:\Users\Lenovo\AppData\Local\Temp\cci3TShy.s 			page 113


C:\Users\Lenovo\AppData\Local\Temp\cci3TShy.s:3898   .text.osSemaphoreGetCount:00000000 $t
C:\Users\Lenovo\AppData\Local\Temp\cci3TShy.s:3904   .text.osSemaphoreGetCount:00000000 osSemaphoreGetCount

UNDEFINED SYMBOLS
vTaskStartScheduler
xTaskGetSchedulerState
xTaskGetTickCountFromISR
xTaskGetTickCount
xTaskCreateStatic
xTaskCreate
xTaskGetCurrentTaskHandle
vTaskDelete
vTaskPrioritySet
uxTaskPriorityGetFromISR
uxTaskPriorityGet
vTaskDelay
xTimerCreateStatic
xTimerCreate
xTimerGenericCommand
xTaskGenericNotifyFromISR
xTaskGenericNotify
xTaskNotifyWait
xQueueCreateMutexStatic
xQueueCreateMutex
xQueueReceiveFromISR
xQueueSemaphoreTake
xQueueGiveFromISR
xQueueGenericSend
vQueueDelete
xQueueCreateCountingSemaphoreStatic
xQueueGenericCreateStatic
xQueueCreateCountingSemaphore
xQueueGenericCreate
pvPortMalloc
vPortFree
vPortEnterCritical
vPortExitCritical
xQueueGenericSendFromISR
xQueueReceive
SysTick_Handler
vTaskSuspend
xTaskResumeFromISR
vTaskResume
vTaskSuspendAll
xTaskResumeAll
vTaskDelayUntil
xQueuePeek
uxQueueMessagesWaitingFromISR
uxQueueMessagesWaiting
uxQueueSpacesAvailable
xQueueGiveMutexRecursive
xQueueTakeMutexRecursive
